 PhysXCommon_64

 Timestamp is 683024b0 (Fri May 23 16:33:04 2025)

 Preferred load address is 0000000180000000

 Start         Length     Name                   Class
 0001:00000000 000029e0H .text$di                CODE
 0001:000029e0 00139900H .text$mn                CODE
 0001:0013c2e0 00000040H .text$mn$00             CODE
 0001:0013c320 00000a70H .text$mn$21             CODE
 0001:0013cd90 00000680H .text$x                 CODE
 0002:00000000 00000278H .idata$5                DATA
 0002:00000278 00000038H .00cfg                  DATA
 0002:000002b0 00000008H .CRT$XCA                DATA
 0002:000002b8 00001428H .CRT$XCU                DATA
 0002:000016e0 00000008H .CRT$XCZ                DATA
 0002:000016e8 00000008H .CRT$XIA                DATA
 0002:000016f0 00000018H .CRT$XIC                DATA
 0002:00001708 00000008H .CRT$XIZ                DATA
 0002:00001710 00000008H .CRT$XPA                DATA
 0002:00001718 00000010H .CRT$XPX                DATA
 0002:00001728 00000008H .CRT$XPXA               DATA
 0002:00001730 00000008H .CRT$XPZ                DATA
 0002:00001738 00000008H .CRT$XTA                DATA
 0002:00001740 00000010H .CRT$XTZ                DATA
 0002:00001748 00000000H .gehcont$y              DATA
 0002:00001748 00000000H .gfids$y                DATA
 0002:00001750 0000d150H .rdata                  DATA
 0002:0000e8a0 00000160H .rdata$00               DATA
 0002:0000ea00 00000000H .rdata$CastGuardVftablesA DATA
 0002:0000ea00 00000000H .rdata$CastGuardVftablesC DATA
 0002:0000ea00 00000464H .rdata$r                DATA
 0002:0000ee64 000001e4H .rdata$voltmd           DATA
 0002:0000f048 00000468H .rdata$zzzdbg           DATA
 0002:0000f4b0 00000008H .rtc$IAA                DATA
 0002:0000f4b8 00000008H .rtc$IZZ                DATA
 0002:0000f4c0 00000008H .rtc$TAA                DATA
 0002:0000f4c8 00000008H .rtc$TZZ                DATA
 0002:0000f4d0 0000c8f0H .xdata                  DATA
 0002:0001bdc0 00000084H .xdata$x                DATA
 0002:0001be44 00000020H .didat$2                DATA
 0002:0001be64 00000024H .didat$3                DATA
 0002:0001be88 00000088H .didat$4                DATA
 0002:0001bf10 00000318H .didat$6                DATA
 0002:0001c228 00000198H .didat$7                DATA
 0002:0001c3c0 0000a0dcH .edata                  DATA
 0002:0002649c 00000014H .idata$2                DATA
 0002:000264b0 00000018H .idata$3                DATA
 0002:000264c8 00000278H .idata$4                DATA
 0002:00026740 000005aeH .idata$6                DATA
 0003:00000000 000014a0H .data                   DATA
 0003:000014a0 000005c8H .data$r                 DATA
 0003:00001a68 000000f0H .data$rs                DATA
 0003:00001b58 00000088H .didat$5                DATA
 0003:00001be0 00003a70H .bss                    DATA
 0004:00000000 0000720cH .pdata                  DATA
 0005:00000000 00002208H _RDATA                  DATA
 0006:00000000 000000a0H .rsrc$01                DATA
 0006:000000a0 000004b0H .rsrc$02                DATA

  Address         Publics by Value              Rva+Base               Lib:Object

 0000:00000000       __AbsoluteZero             0000000000000000     <absolute>
 0000:00000000       ___safe_se_handler_count   0000000000000000     <absolute>
 0000:00000000       ___safe_se_handler_table   0000000000000000     <absolute>
 0000:00000000       __arm64x_extra_rfe_table   0000000000000000     <absolute>
 0000:00000000       __arm64x_extra_rfe_table_size 0000000000000000     <absolute>
 0000:00000000       __arm64x_native_entrypoint 0000000000000000     <absolute>
 0000:00000000       __arm64x_redirection_metadata 0000000000000000     <absolute>
 0000:00000000       __arm64x_redirection_metadata_count 0000000000000000     <absolute>
 0000:00000000       __dynamic_value_reloc_table 0000000000000000     <absolute>
 0000:00000000       __enclave_config           0000000000000000     <absolute>
 0000:00000000       __guard_check_icall_a64n_fptr 0000000000000000     <absolute>
 0000:00000000       __guard_eh_cont_count      0000000000000000     <absolute>
 0000:00000000       __guard_eh_cont_table      0000000000000000     <absolute>
 0000:00000000       __guard_fids_count         0000000000000000     <absolute>
 0000:00000000       __guard_fids_table         0000000000000000     <absolute>
 0000:00000000       __guard_iat_count          0000000000000000     <absolute>
 0000:00000000       __guard_iat_table          0000000000000000     <absolute>
 0000:00000000       __guard_longjmp_count      0000000000000000     <absolute>
 0000:00000000       __guard_longjmp_table      0000000000000000     <absolute>
 0000:00000000       __hybrid_auxiliary_delayload_iat 0000000000000000     <absolute>
 0000:00000000       __hybrid_auxiliary_delayload_iat_copy 0000000000000000     <absolute>
 0000:00000000       __hybrid_auxiliary_iat     0000000000000000     <absolute>
 0000:00000000       __hybrid_auxiliary_iat_copy 0000000000000000     <absolute>
 0000:00000000       __hybrid_code_map          0000000000000000     <absolute>
 0000:00000000       __hybrid_code_map_count    0000000000000000     <absolute>
 0000:00000000       __hybrid_image_info_bitfield 0000000000000000     <absolute>
 0000:00000000       __x64_code_ranges_to_entry_points 0000000000000000     <absolute>
 0000:00000000       __x64_code_ranges_to_entry_points_count 0000000000000000     <absolute>
 0000:00000100       __guard_flags              0000000000000100     <absolute>
 0000:00000000       __ImageBase                0000000180000000     <linker-defined>
 0001:000029e0       ??_ECollection@Cm@physx@@UEAAPEAXI@Z 00000001800039e0 f i CmCollection.obj
 0001:000029e0       ??_GCollection@Cm@physx@@UEAAPEAXI@Z 00000001800039e0 f i CmCollection.obj
 0001:00002a90       ??_EPxCollection@physx@@MEAAPEAXI@Z 0000000180003a90 f i CmCollection.obj
 0001:00002a90       ??_GPxCollection@physx@@MEAAPEAXI@Z 0000000180003a90 f i CmCollection.obj
 0001:00002ac0       ?PxCreateCollection@@YAPEAVPxCollection@physx@@XZ 0000000180003ac0 f   CmCollection.obj
 0001:00002bc0       ?add@Collection@Cm@physx@@UEAAXAEAVPxBase@3@_K@Z 0000000180003bc0 f   CmCollection.obj
 0001:00002cb0       ?add@Collection@Cm@physx@@UEAAXAEAVPxCollection@3@@Z 0000000180003cb0 f   CmCollection.obj
 0001:00002e70       ?addId@Collection@Cm@physx@@UEAAXAEAVPxBase@3@_K@Z 0000000180003e70 f   CmCollection.obj
 0001:00002fa0       ?contains@Collection@Cm@physx@@UEBA_NAEAVPxBase@3@@Z 0000000180003fa0 f   CmCollection.obj
 0001:00003050       ?create@?$HashBase@V?$Pair@$$CB_KPEAVPxBase@physx@@@shdfnd@physx@@_KU?$Hash@_K@23@UGetKey@?$HashMapBase@_KPEAVPxBase@physx@@U?$Hash@_K@shdfnd@2@VNonTrackingAllocator@42@@internal@23@VNonTrackingAllocator@23@$00@internal@shdfnd@physx@@QEAAPEAV?$Pair@$$CB_KPEAVPxBase@physx@@@34@AEB_KAEA_N@Z 0000000180004050 f i CmCollection.obj
 0001:00003050       ?create@?$HashBase@V?$Pair@QEAVPxBase@physx@@_K@shdfnd@physx@@PEAVPxBase@3@U?$Hash@PEAVPxBase@physx@@@23@UGetKey@?$HashMapBase@PEAVPxBase@physx@@_KU?$Hash@PEAVPxBase@physx@@@shdfnd@2@VNonTrackingAllocator@42@@internal@23@VNonTrackingAllocator@23@$00@internal@shdfnd@physx@@QEAAPEAV?$Pair@QEAVPxBase@physx@@_K@34@AEBQEAVPxBase@4@AEA_N@Z 0000000180004050 f i CmCollection.obj
 0001:000031e0       ?erase@?$HashBase@V?$Pair@$$CB_KPEAVPxBase@physx@@@shdfnd@physx@@_KU?$Hash@_K@23@UGetKey@?$HashMapBase@_KPEAVPxBase@physx@@U?$Hash@_K@shdfnd@2@VNonTrackingAllocator@42@@internal@23@VNonTrackingAllocator@23@$00@internal@shdfnd@physx@@QEAA_NAEB_K@Z 00000001800041e0 f i CmCollection.obj
 0001:000031e0       ?erase@?$HashBase@V?$Pair@QEAVPxBase@physx@@_K@shdfnd@physx@@PEAVPxBase@3@U?$Hash@PEAVPxBase@physx@@@23@UGetKey@?$HashMapBase@PEAVPxBase@physx@@_KU?$Hash@PEAVPxBase@physx@@@shdfnd@2@VNonTrackingAllocator@42@@internal@23@VNonTrackingAllocator@23@$00@internal@shdfnd@physx@@QEAA_NAEBQEAVPxBase@4@@Z 00000001800041e0 f i CmCollection.obj
 0001:00003390       ?find@?$HashMapBase@_KPEAVPxBase@physx@@U?$Hash@_K@shdfnd@2@VNonTrackingAllocator@42@@internal@shdfnd@physx@@QEBAPEBV?$Pair@$$CB_KPEAVPxBase@physx@@@34@AEB_K@Z 0000000180004390 f i CmCollection.obj
 0001:00003430       ?find@Collection@Cm@physx@@UEBAPEAVPxBase@3@_K@Z 0000000180004430 f   CmCollection.obj
 0001:00003460       ?getId@Collection@Cm@physx@@UEBA_KAEBVPxBase@3@@Z 0000000180004460 f   CmCollection.obj
 0001:00003510       ?getIds@Collection@Cm@physx@@UEBAIPEA_KII@Z 0000000180004510 f   CmCollection.obj
 0001:000035f0       ?getNbColumns@HeightField@Gu@physx@@UEBAIXZ 00000001800045f0 f   GuBounds.obj
 0001:000035f0       ?getNbIds@Collection@Cm@physx@@UEBAIXZ 00000001800045f0 f   CmCollection.obj
 0001:00003600       ?getNbObjects@Collection@Cm@physx@@UEBAIXZ 0000000180004600 f   CmCollection.obj
 0001:00003610       ?getObject@Collection@Cm@physx@@UEBAAEAVPxBase@3@I@Z 0000000180004610 f   CmCollection.obj
 0001:00003620       ?getObjects@Collection@Cm@physx@@UEBAIPEAPEAVPxBase@3@II@Z 0000000180004620 f   CmCollection.obj
 0001:00003660       ?release@Collection@Cm@physx@@UEAAXXZ 0000000180004660 f i CmCollection.obj
 0001:00003680       ?remove@Collection@Cm@physx@@UEAAXAEAVPxBase@3@@Z 0000000180004680 f   CmCollection.obj
 0001:00003770       ?remove@Collection@Cm@physx@@UEAAXAEAVPxCollection@3@@Z 0000000180004770 f   CmCollection.obj
 0001:00003890       ?removeId@Collection@Cm@physx@@UEAAX_K@Z 0000000180004890 f   CmCollection.obj
 0001:00003910       ?reserveInternal@?$HashBase@V?$Pair@$$CB_KPEAVPxBase@physx@@@shdfnd@physx@@_KU?$Hash@_K@23@UGetKey@?$HashMapBase@_KPEAVPxBase@physx@@U?$Hash@_K@shdfnd@2@VNonTrackingAllocator@42@@internal@23@VNonTrackingAllocator@23@$00@internal@shdfnd@physx@@AEAAXI@Z 0000000180004910 f i CmCollection.obj
 0001:00003910       ?reserveInternal@?$HashBase@V?$Pair@QEAVPxBase@physx@@_K@shdfnd@physx@@PEAVPxBase@3@U?$Hash@PEAVPxBase@physx@@@23@UGetKey@?$HashMapBase@PEAVPxBase@physx@@_KU?$Hash@PEAVPxBase@physx@@@shdfnd@2@VNonTrackingAllocator@42@@internal@23@VNonTrackingAllocator@23@$00@internal@shdfnd@physx@@AEAAXI@Z 0000000180004910 f i CmCollection.obj
 0001:00003b00       ??0PtrTable@Cm@physx@@QEAA@W4PxEMPTY@2@@Z 0000000180004b00 f i CmPtrTable.obj
 0001:00003b20       ??0PtrTable@Cm@physx@@QEAA@XZ 0000000180004b20 f   CmPtrTable.obj
 0001:00003b30       ??1AABBTreeBuildNode@Gu@physx@@QEAA@XZ 0000000180004b30 f   GuAABBTreeBuild.obj
 0001:00003b30       ??1Box@Gu@physx@@QEAA@XZ   0000000180004b30 f   GuBounds.obj
 0001:00003b30       ??1HeightFieldData@Gu@physx@@QEAA@XZ 0000000180004b30 f   GuBounds.obj
 0001:00003b30       ??1MaterialIndicesStruct@physx@@QEAA@XZ 0000000180004b30 f   GuGeometryUnion.obj
 0001:00003b30       ??1PtrTable@Cm@physx@@QEAA@XZ 0000000180004b30 f   CmPtrTable.obj
 0001:00003b30       ?profile@Callback@RTree@Gu@physx@@UEAAXXZ 0000000180004b30 f   GuMidphaseRTree.obj
 0001:00003b30       ?requiresObjects@ConvexMesh@Gu@physx@@UEAAXAEAVPxProcessPxBaseCallback@3@@Z 0000000180004b30 f   GuConvexMesh.obj
 0001:00003b30       ?requiresObjects@HeightField@Gu@physx@@UEAAXAEAVPxProcessPxBaseCallback@3@@Z 0000000180004b30 f   GuHeightField.obj
 0001:00003b30       ?requiresObjects@TriangleMesh@Gu@physx@@UEAAXAEAVPxProcessPxBaseCallback@3@@Z 0000000180004b30 f   GuTriangleMesh.obj
 0001:00003b30       _guard_check_icall_nop     0000000180004b30 f   LIBCMT:guard_support.obj
 0001:00003b40       ??4CmModuleUpdateLoader@Cm@physx@@QEAAAEAV012@AEBV012@@Z 0000000180004b40 f i CmWindowsModuleUpdateLoader.obj
 0001:00003b40       ??4MaterialIndicesStruct@physx@@QEAAAEAU01@AEBU01@@Z 0000000180004b40 f i GuGeometryUnion.obj
 0001:00003b40       ??4PtrTable@Cm@physx@@QEAAAEAU012@AEBU012@@Z 0000000180004b40 f i CmPtrTable.obj
 0001:00003b50       ?add@PtrTable@Cm@physx@@QEAAXPEAXAEAVPtrTableStorageManager@23@@Z 0000000180004b50 f   CmPtrTable.obj
 0001:00003c10       ?clear@PtrTable@Cm@physx@@QEAAXAEAVPtrTableStorageManager@23@@Z 0000000180004c10 f   CmPtrTable.obj
 0001:00003c80       ?exportExtraData@PtrTable@Cm@physx@@QEAAXAEAVPxSerializationContext@3@@Z 0000000180004c80 f   CmPtrTable.obj
 0001:00003cd0       ?find@PtrTable@Cm@physx@@QEBAIPEBX@Z 0000000180004cd0 f   CmPtrTable.obj
 0001:00003d00       ?getBinaryMetaData@PtrTable@Cm@physx@@SAXAEAVPxOutputStream@3@@Z 0000000180004d00 f   CmPtrTable.obj
 0001:00003ec0       ?getCount@PtrTable@Cm@physx@@QEBAIXZ 0000000180004ec0 f i CmPtrTable.obj
 0001:00003ed0       ?getPtrs@PtrTable@Cm@physx@@QEAAPEAPEAXXZ 0000000180004ed0 f i CmPtrTable.obj
 0001:00003ed0       ?getPtrs@PtrTable@Cm@physx@@QEBAPEBQEAXXZ 0000000180004ed0 f i CmPtrTable.obj
 0001:00003ee0       ?importExtraData@PtrTable@Cm@physx@@QEAAXAEAVPxDeserializationContext@3@@Z 0000000180004ee0 f   CmPtrTable.obj
 0001:00003f10       ?realloc@PtrTable@Cm@physx@@AEAAXIIAEAVPtrTableStorageManager@23@@Z 0000000180004f10 f   CmPtrTable.obj
 0001:00003fb0       ?replaceWithLast@PtrTable@Cm@physx@@QEAAXIAEAVPtrTableStorageManager@23@@Z 0000000180004fb0 f   CmPtrTable.obj
 0001:000040b0       ??0RadixSort@Cm@physx@@QEAA@XZ 00000001800050b0 f   CmRadixSort.obj
 0001:000040e0       ??1RadixSort@Cm@physx@@UEAA@XZ 00000001800050e0 f   CmRadixSort.obj
 0001:000040f0       ??_ERadixSort@Cm@physx@@UEAAPEAXI@Z 00000001800050f0 f i CmRadixSort.obj
 0001:00004180       ?GetNbHits@RadixSort@Cm@physx@@QEBAIXZ 0000000180005180 f i CmRadixSort.obj
 0001:00004190       ?GetNbTotalCalls@RadixSort@Cm@physx@@QEBAIXZ 0000000180005190 f i CmRadixSort.obj
 0001:000041a0       ?GetRanks@RadixSort@Cm@physx@@QEBAPEBIXZ 00000001800051a0 f i CmRadixSort.obj
 0001:000041a0       ?getHeightField@HeightFieldUtil@Gu@physx@@QEBAAEBVHeightField@23@XZ 00000001800051a0 f i GuCCTSweepTests.obj
 0001:000041b0       ?GetRecyclable@RadixSort@Cm@physx@@QEBAPEAIXZ 00000001800051b0 f i CmRadixSort.obj
 0001:000041b0       ?GetValencies@BigConvexData@physx@@QEBAPEBUValency@Gu@2@XZ 00000001800051b0 f i GuMetaData.obj
 0001:000041b0       ?getHeightFieldGeometry@HeightFieldUtil@Gu@physx@@QEBAAEBVPxHeightFieldGeometry@3@XZ 00000001800051b0 f i GuCCTSweepTests.obj
 0001:000041b0       ?getPos@AABBTreeBuildNode@Gu@physx@@QEBAPEBV123@XZ 00000001800051b0 f i GuAABBTreeBuild.obj
 0001:000041c0       ?SetBuffers@RadixSort@Cm@physx@@QEAA_NPEAI00PEAPEAI@Z 00000001800051c0 f   CmRadixSort.obj
 0001:00004200       ?Sort@RadixSort@Cm@physx@@QEAAAEAV123@PEBIIW4RadixHint@23@@Z 0000000180005200 f   CmRadixSort.obj
 0001:000048b0       ?Sort@RadixSort@Cm@physx@@QEAAAEAV123@PEBMI@Z 00000001800058b0 f   CmRadixSort.obj
 0001:00005040       ?invalidateRanks@RadixSort@Cm@physx@@QEAAXXZ 0000000180006040 f i CmRadixSort.obj
 0001:00005050       ??0RadixSortBuffered@Cm@physx@@QEAA@XZ 0000000180006050 f   CmRadixSortBuffered.obj
 0001:00005080       ??1RadixSortBuffered@Cm@physx@@UEAA@XZ 0000000180006080 f   CmRadixSortBuffered.obj
 0001:000050b0       ??_ERadixSortBuffered@Cm@physx@@UEAAPEAXI@Z 00000001800060b0 f i CmRadixSortBuffered.obj
 0001:00005180       ?CheckResize@RadixSortBuffered@Cm@physx@@AEAAXI@Z 0000000180006180 f i CmRadixSortBuffered.obj
 0001:000051c0       ?Resize@RadixSortBuffered@Cm@physx@@AEAA_NI@Z 00000001800061c0 f   CmRadixSortBuffered.obj
 0001:000052b0       ?Sort@RadixSortBuffered@Cm@physx@@QEAAAEAV123@PEBIIW4RadixHint@23@@Z 00000001800062b0 f   CmRadixSortBuffered.obj
 0001:00005350       ?Sort@RadixSortBuffered@Cm@physx@@QEAAAEAV123@PEBMI@Z 0000000180006350 f   CmRadixSortBuffered.obj
 0001:000053e0       ?reset@RadixSortBuffered@Cm@physx@@QEAAXXZ 00000001800063e0 f   CmRadixSortBuffered.obj
 0001:00005460       ??0DebugText@Cm@physx@@QEAA@$$QEAU012@@Z 0000000180006460 f i CmRenderOutput.obj
 0001:00005460       ??0DebugText@Cm@physx@@QEAA@AEBU012@@Z 0000000180006460 f i CmRenderOutput.obj
 0001:00005540       ??0DebugText@Cm@physx@@QEAA@AEBVPxVec3@2@MPEBDZZ 0000000180006540 f   CmRenderOutput.obj
 0001:000055a0       ??0RenderOutput@Cm@physx@@QEAA@AEAVRenderBuffer@12@@Z 00000001800065a0 f i CmRenderOutput.obj
 0001:000055f0       ??0RenderOutput@Cm@physx@@QEAA@AEBV012@@Z 00000001800065f0 f i CmRenderOutput.obj
 0001:00005690       ??4DebugText@Cm@physx@@QEAAAEAU012@$$QEAU012@@Z 0000000180006690 f i CmRenderOutput.obj
 0001:00005690       ??4DebugText@Cm@physx@@QEAAAEAU012@AEBU012@@Z 0000000180006690 f i CmRenderOutput.obj
 0001:000057c0       ??6Cm@physx@@YAAEAVRenderOutput@01@AEAV201@AEBUDebugArc@01@@Z 00000001800067c0 f   CmRenderOutput.obj
 0001:000058e0       ??6Cm@physx@@YAAEAVRenderOutput@01@AEAV201@AEBUDebugArrow@01@@Z 00000001800068e0 f   CmRenderOutput.obj
 0001:00005ce0       ??6Cm@physx@@YAAEAVRenderOutput@01@AEAV201@AEBUDebugBasis@01@@Z 0000000180006ce0 f   CmRenderOutput.obj
 0001:00005de0       ??6Cm@physx@@YAAEAVRenderOutput@01@AEAV201@AEBUDebugBox@01@@Z 0000000180006de0 f   CmRenderOutput.obj
 0001:000062e0       ??6Cm@physx@@YAAEAVRenderOutput@01@AEAV201@AEBUDebugCircle@01@@Z 00000001800072e0 f   CmRenderOutput.obj
 0001:000063e0       ??6RenderOutput@Cm@physx@@QEAAAEAV012@AEBUDebugText@12@@Z 00000001800073e0 f   CmRenderOutput.obj
 0001:000065a0       ??6RenderOutput@Cm@physx@@QEAAAEAV012@AEBVPxMat44@2@@Z 00000001800075a0 f   CmRenderOutput.obj
 0001:00006610       ??6RenderOutput@Cm@physx@@QEAAAEAV012@AEBVPxTransform@2@@Z 0000000180007610 f   CmRenderOutput.obj
 0001:00006790       ??6RenderOutput@Cm@physx@@QEAAAEAV012@I@Z 0000000180007790 f   CmRenderOutput.obj
 0001:000067a0       ??6RenderOutput@Cm@physx@@QEAAAEAV012@VPxVec3@2@@Z 00000001800077a0 f   CmRenderOutput.obj
 0001:00006c90       ??6RenderOutput@Cm@physx@@QEAAAEAV012@W4Primitive@012@@Z 0000000180007c90 f   CmRenderOutput.obj
 0001:00006ca0       ?allocate@?$Array@DV?$ReflectionAllocator@D@shdfnd@physx@@@shdfnd@physx@@IEAAPEADI@Z 0000000180007ca0 f i CmRenderOutput.obj
 0001:00006d30       ?allocate@?$Array@UPxDebugLine@physx@@V?$ReflectionAllocator@UPxDebugLine@physx@@@shdfnd@2@@shdfnd@physx@@IEAAPEAUPxDebugLine@3@I@Z 0000000180007d30 f i CmRenderOutput.obj
 0001:00006dd0       ?allocate@?$Array@UPxDebugPoint@physx@@V?$ReflectionAllocator@UPxDebugPoint@physx@@@shdfnd@2@@shdfnd@physx@@IEAAPEAUPxDebugPoint@3@I@Z 0000000180007dd0 f i CmRenderOutput.obj
 0001:00006e70       ?allocate@?$Array@UPxDebugText@physx@@V?$ReflectionAllocator@UPxDebugText@physx@@@shdfnd@2@@shdfnd@physx@@IEAAPEAUPxDebugText@3@I@Z 0000000180007e70 f i CmRenderOutput.obj
 0001:00006f10       ?allocate@?$Array@UPxDebugTriangle@physx@@V?$ReflectionAllocator@UPxDebugTriangle@physx@@@shdfnd@2@@shdfnd@physx@@IEAAPEAUPxDebugTriangle@3@I@Z 0000000180007f10 f i CmRenderOutput.obj
 0001:00006fc0       ?copy@?$Array@UPxDebugLine@physx@@V?$ReflectionAllocator@UPxDebugLine@physx@@@shdfnd@2@@shdfnd@physx@@KAXPEAUPxDebugLine@3@0PEBU43@@Z 0000000180007fc0 f i CmRenderOutput.obj
 0001:00007160       ?copy@?$Array@UPxDebugPoint@physx@@V?$ReflectionAllocator@UPxDebugPoint@physx@@@shdfnd@2@@shdfnd@physx@@KAXPEAUPxDebugPoint@3@0PEBU43@@Z 0000000180008160 f i CmRenderOutput.obj
 0001:00007250       ?copy@?$Array@UPxDebugText@physx@@V?$ReflectionAllocator@UPxDebugText@physx@@@shdfnd@2@@shdfnd@physx@@KAXPEAUPxDebugText@3@0PEBU43@@Z 0000000180008250 f i CmRenderOutput.obj
 0001:000073a0       ?copy@?$Array@UPxDebugTriangle@physx@@V?$ReflectionAllocator@UPxDebugTriangle@physx@@@shdfnd@2@@shdfnd@physx@@KAXPEAUPxDebugTriangle@3@0PEBU43@@Z 00000001800083a0 f i CmRenderOutput.obj
 0001:00007640       ?growAndPushBack@?$Array@DV?$ReflectionAllocator@D@shdfnd@physx@@@shdfnd@physx@@IEAAAEADAEBD@Z 0000000180008640 f i CmRenderOutput.obj
 0001:00007710       ?growAndPushBack@?$Array@UPxDebugLine@physx@@V?$ReflectionAllocator@UPxDebugLine@physx@@@shdfnd@2@@shdfnd@physx@@IEAAAEAUPxDebugLine@3@AEBU43@@Z 0000000180008710 f i CmRenderOutput.obj
 0001:00007800       ?growAndPushBack@?$Array@UPxDebugPoint@physx@@V?$ReflectionAllocator@UPxDebugPoint@physx@@@shdfnd@2@@shdfnd@physx@@IEAAAEAUPxDebugPoint@3@AEBU43@@Z 0000000180008800 f i CmRenderOutput.obj
 0001:000078d0       ?growAndPushBack@?$Array@UPxDebugText@physx@@V?$ReflectionAllocator@UPxDebugText@physx@@@shdfnd@2@@shdfnd@physx@@IEAAAEAUPxDebugText@3@AEBU43@@Z 00000001800088d0 f i CmRenderOutput.obj
 0001:000079b0       ?growAndPushBack@?$Array@UPxDebugTriangle@physx@@V?$ReflectionAllocator@UPxDebugTriangle@physx@@@shdfnd@2@@shdfnd@physx@@IEAAAEAUPxDebugTriangle@3@AEBU43@@Z 00000001800089b0 f i CmRenderOutput.obj
 0001:00007ad0       ?outputCapsule@RenderOutput@Cm@physx@@QEAAAEAV123@MMAEBVPxMat44@3@@Z 0000000180008ad0 f   CmRenderOutput.obj
 0001:00008520       ?outputSegment@RenderOutput@Cm@physx@@QEAAXAEBVPxVec3@3@0@Z 0000000180009520 f i CmRenderOutput.obj
 0001:000085e0       ?recreate@?$Array@DV?$ReflectionAllocator@D@shdfnd@physx@@@shdfnd@physx@@IEAAXI@Z 00000001800095e0 f i CmRenderOutput.obj
 0001:00008680       ?recreate@?$Array@UPxDebugLine@physx@@V?$ReflectionAllocator@UPxDebugLine@physx@@@shdfnd@2@@shdfnd@physx@@IEAAXI@Z 0000000180009680 f i CmRenderOutput.obj
 0001:00008700       ?reserveSegments@RenderOutput@Cm@physx@@QEAAPEAUPxDebugLine@3@I@Z 0000000180009700 f i CmRenderOutput.obj
 0001:00008760       ?transform@PxMat44@physx@@QEBA?BVPxVec4@2@AEBV32@@Z 0000000180009760 f i CmRenderOutput.obj
 0001:00008850       ??DPxQuat@physx@@QEBA?AV01@AEBV01@@Z 0000000180009850 f i CmVisualization.obj
 0001:00008990       ?visualizeAngularLimit@Cm@physx@@YAXAEAVRenderOutput@12@MAEBVPxTransform@2@MM_N@Z 0000000180009990 f   CmVisualization.obj
 0001:00008b50       ?visualizeDoubleCone@Cm@physx@@YAXAEAVRenderOutput@12@MAEBVPxTransform@2@M_N@Z 0000000180009b50 f   CmVisualization.obj
 0001:00008db0       ?visualizeJointFrames@Cm@physx@@YAXAEAVRenderOutput@12@MAEBVPxTransform@2@1@Z 0000000180009db0 f   CmVisualization.obj
 0001:00008e70       ?visualizeLimitCone@Cm@physx@@YAXAEAVRenderOutput@12@MAEBVPxTransform@2@MM_N@Z 0000000180009e70 f   CmVisualization.obj
 0001:00009100       ?visualizeLinearLimit@Cm@physx@@YAXAEAVRenderOutput@12@MAEBVPxTransform@2@1M_N@Z 000000018000a100 f   CmVisualization.obj
 0001:00009350       ??0CmModuleUpdateLoader@Cm@physx@@QEAA@PEBD@Z 000000018000a350 f   CmWindowsModuleUpdateLoader.obj
 0001:00009390       ??1CmModuleUpdateLoader@Cm@physx@@QEAA@XZ 000000018000a390 f   CmWindowsModuleUpdateLoader.obj
 0001:000093c0       ?LoadModule@CmModuleUpdateLoader@Cm@physx@@QEAAPEAUHINSTANCE__@@PEBD0@Z 000000018000a3c0 f   CmWindowsModuleUpdateLoader.obj
 0001:000093e0       ?commonDelayHook@@YAP6A_JXZIPEAUDelayLoadInfo@@@Z 000000018000a3e0 f   CmWindowsDelayLoadHook.obj
 0001:000094c0       PxSetPhysXCommonDelayLoadHook 000000018000a4c0 f   CmWindowsDelayLoadHook.obj
 0001:000094d0       ??0Box@Gu@physx@@QEAA@AEBV012@@Z 000000018000a4d0 f i GuBounds.obj
 0001:000094d0       ??4Box@Gu@physx@@QEAAAEBV012@AEBV012@@Z 000000018000a4d0 f i GuBounds.obj
 0001:00009530       ??0Box@Gu@physx@@QEAA@AEBVPxVec3@2@0AEBVPxMat33@2@@Z 000000018000a530 f i GuBounds.obj
 0001:000095a0       ??0AABBTreeBuildNode@Gu@physx@@QEAA@XZ 000000018000a5a0 f i GuAABBTreeBuild.obj
 0001:000095a0       ??0BigConvexData@physx@@QEAA@W4PxEMPTY@1@@Z 000000018000a5a0 f i GuMetaData.obj
 0001:000095a0       ??0Box@Gu@physx@@QEAA@XZ   000000018000a5a0 f i GuBounds.obj
 0001:000095a0       ??0GeometryUnion@Gu@physx@@QEAA@W4PxEMPTY@2@@Z 000000018000a5a0 f i GuGeometryUnion.obj
 0001:000095a0       ??0HeightFieldData@Gu@physx@@QEAA@W4PxEMPTY@2@@Z 000000018000a5a0 f i GuBounds.obj
 0001:000095a0       ??0MaterialIndicesStruct@physx@@QEAA@W4PxEMPTY@1@@Z 000000018000a5a0 f i GuGeometryUnion.obj
 0001:000095a0       ?getAABB@AABBTreeBuildNode@Gu@physx@@QEBAAEBVPxBounds3@3@XZ 000000018000a5a0 f i GuAABBTreeBuild.obj
 0001:000095a0       ?getGeometry@GeometryUnion@Gu@physx@@QEBAAEBVPxGeometry@3@XZ 000000018000a5a0 f i GuGeometryUnion.obj
 0001:000095a0       ?getPaddedBounds@HeightFieldData@Gu@physx@@QEBAAEBVCenterExtentsPadded@23@XZ 000000018000a5a0 f i GuBounds.obj
 0001:000095b0       ??0HeightFieldData@Gu@physx@@QEAA@$$QEAU012@@Z 000000018000a5b0 f i GuBounds.obj
 0001:000095b0       ??0HeightFieldData@Gu@physx@@QEAA@AEBU012@@Z 000000018000a5b0 f i GuBounds.obj
 0001:000095b0       ??4HeightFieldData@Gu@physx@@QEAAAEAU012@$$QEAU012@@Z 000000018000a5b0 f i GuBounds.obj
 0001:000095b0       ??4HeightFieldData@Gu@physx@@QEAAAEAU012@AEBU012@@Z 000000018000a5b0 f i GuBounds.obj
 0001:00009610       ??0HeightFieldData@Gu@physx@@QEAA@XZ 000000018000a610 f i GuBounds.obj
 0001:00009620       ??0PxQuat@physx@@QEAA@AEBVPxMat33@1@@Z 000000018000a620 f i GuBounds.obj
 0001:00009810       ??0ShapeData@Gu@physx@@QEAA@AEBVPxGeometry@2@AEBVPxTransform@2@M@Z 000000018000a810 f   GuBounds.obj
 0001:00009d80       ??1PxConvexMesh@physx@@MEAA@XZ 000000018000ad80 f i GuBounds.obj
 0001:00009d80       ??1PxHeightField@physx@@MEAA@XZ 000000018000ad80 f i GuBounds.obj
 0001:00009d90       ??_EPxBVHStructure@physx@@MEAAPEAXI@Z 000000018000ad90 f i GuBVHStructure.obj
 0001:00009d90       ??_EPxBase@physx@@MEAAPEAXI@Z 000000018000ad90 f i GuBounds.obj
 0001:00009d90       ??_EPxTriangleMesh@physx@@MEAAPEAXI@Z 000000018000ad90 f i GuTriangleMesh.obj
 0001:00009d90       ??_GPxBVHStructure@physx@@MEAAPEAXI@Z 000000018000ad90 f i GuBVHStructure.obj
 0001:00009d90       ??_GPxBase@physx@@MEAAPEAXI@Z 000000018000ad90 f i GuBounds.obj
 0001:00009d90       ??_GPxTriangleMesh@physx@@MEAAPEAXI@Z 000000018000ad90 f i GuTriangleMesh.obj
 0001:00009dc0       ??_H@YAXPEAX_K1P6APEAX0@Z@Z 000000018000adc0 f i GuBounds.obj
 0001:00009e10       ?computeAABBExtent@Box@Gu@physx@@QEBA?AVPxVec3@3@XZ 000000018000ae10 f i GuBounds.obj
 0001:00009ed0       ?computeBounds@Gu@physx@@YAXAEAVPxBounds3@2@AEBVPxGeometry@2@AEBVPxTransform@2@MPEIBVCenterExtentsPadded@12@M@Z 000000018000aed0 f   GuBounds.obj
 0001:0000a880       ?computeBoundsWithCCDThreshold@Gu@physx@@YAMAEAVVec3p@12@0AEBVPxGeometry@2@AEBVPxTransform@2@PEIBVCenterExtentsPadded@12@@Z 000000018000b880 f   GuBounds.obj
 0001:0000aa50       ?computeBoxPoints@Box@Gu@physx@@QEBAXPEIAVPxVec3@3@@Z 000000018000ba50 f i GuBounds.obj
 0001:0000b990       ?getConcreteTypeName@PxConvexMesh@physx@@UEBAPEBDXZ 000000018000c990 f i GuBounds.obj
 0001:0000b9a0       ?getConcreteTypeName@PxHeightField@physx@@UEBAPEBDXZ 000000018000c9a0 f i GuBounds.obj
 0001:0000b9b0       ?getConvexEdgeThreshold@HeightField@Gu@physx@@UEBAMXZ 000000018000c9b0 f i GuBounds.obj
 0001:0000b9c0       ?getFlags@HeightField@Gu@physx@@UEBA?AV?$PxFlags@W4Enum@PxHeightFieldFlag@physx@@G@3@XZ 000000018000c9c0 f i GuBounds.obj
 0001:0000b9d0       ?getFormat@HeightField@Gu@physx@@UEBA?AW4Enum@PxHeightFieldFormat@3@XZ 000000018000c9d0 f i GuBounds.obj
 0001:0000b9e0       ?getHeight@HeightField@Gu@physx@@UEBAMMM@Z 000000018000c9e0 f i GuBounds.obj
 0001:0000ba20       ?getHeightInternal2@HeightField@Gu@physx@@QEBAMIMM@Z 000000018000ca20 f i GuBounds.obj
 0001:0000bb90       ?getIndexBuffer@ConvexMesh@Gu@physx@@UEBAPEBEXZ 000000018000cb90 f i GuBounds.obj
 0001:0000bbd0       ?getNbPolygons@ConvexMesh@Gu@physx@@UEBAIXZ 000000018000cbd0 f i GuBounds.obj
 0001:0000bbe0       ?getNbRows@HeightField@Gu@physx@@UEBAIXZ 000000018000cbe0 f i GuBounds.obj
 0001:0000bbf0       ?getNbVertices@ConvexMesh@Gu@physx@@UEBAIXZ 000000018000cbf0 f i GuBounds.obj
 0001:0000bc00       ?getSample@HeightField@Gu@physx@@UEBAAEBUPxHeightFieldSample@3@II@Z 000000018000cc00 f i GuBounds.obj
 0001:0000bc10       ?getSampleStride@HeightField@Gu@physx@@UEBAIXZ 000000018000cc10 f i GuBounds.obj
 0001:0000bc20       ?getTimestamp@HeightField@Gu@physx@@UEBAIXZ 000000018000cc20 f i GuBounds.obj
 0001:0000bc30       ?getTransform@Box@Gu@physx@@QEBA?AVPxTransform@3@XZ 000000018000cc30 f i GuBounds.obj
 0001:0000bc90       ?getTriangleMaterialIndex@HeightField@Gu@physx@@UEBAGI@Z 000000018000cc90 f i GuBounds.obj
 0001:0000bcb0       ?getTriangleNormal@HeightField@Gu@physx@@UEBA?AVPxVec3@3@I@Z 000000018000ccb0 f i GuBounds.obj
 0001:0000bdc0       ?getVertices@ConvexMesh@Gu@physx@@UEBAPEBVPxVec3@3@XZ 000000018000cdc0 f i GuBounds.obj
 0001:0000bde0       ?isKindOf@PxBase@physx@@MEBA_NPEBD@Z 000000018000cde0 f i GuBounds.obj
 0001:0000be00       ?isKindOf@PxConvexMesh@physx@@MEBA_NPEBD@Z 000000018000ce00 f i GuBounds.obj
 0001:0000be40       ?isKindOf@PxHeightField@physx@@MEBA_NPEBD@Z 000000018000ce40 f i GuBounds.obj
 0001:0000be80       ?isReleasable@PxBase@physx@@UEBA_NXZ 000000018000ce80 f i GuBounds.obj
 0001:0000be90       ?isValid@Box@Gu@physx@@QEBA_NXZ 000000018000ce90 f i GuBounds.obj
 0001:0000beb0       ?preExportDataReset@ConvexMesh@Gu@physx@@QEAAXXZ 000000018000ceb0 f i GuBounds.obj
 0001:0000beb0       ?preExportDataReset@HeightField@Gu@physx@@QEAAXXZ 000000018000ceb0 f i GuBounds.obj
 0001:0000bec0       ?rotate@Box@Gu@physx@@QEBA?AVPxVec3@3@AEBV43@@Z 000000018000cec0 f i GuBounds.obj
 0001:0000bf50       ?rotateInv@Box@Gu@physx@@QEBA?AVPxVec3@3@AEBV43@@Z 000000018000cf50 f i GuBounds.obj
 0001:0000bfe0       ?setAxes@Box@Gu@physx@@QEAAXAEBVPxVec3@3@00@Z 000000018000cfe0 f i GuBounds.obj
 0001:0000c020       ?setEmpty@Box@Gu@physx@@QEAAXXZ 000000018000d020 f i GuBounds.obj
 0001:0000c060       ?transform@Box@Gu@physx@@QEBA?AVPxVec3@3@AEBV43@@Z 000000018000d060 f i GuBounds.obj
 0001:0000c100       ?computeOBBPoints@Gu@physx@@YAXPEIAVPxVec3@2@AEBV32@1111@Z 000000018000d100 f   GuBox.obj
 0001:0000c390       ?create@Box@Gu@physx@@QEAAXAEBVCapsule@23@@Z 000000018000d390 f   GuBox.obj
 0001:0000c5d0       ?getBoxEdges@Gu@physx@@YAPEBEXZ 000000018000d5d0 f   GuBox.obj
 0001:0000c5e0       ?computeBoxAroundCapsule@Gu@physx@@YAXAEBVCapsule@12@AEAVBox@12@@Z 000000018000d5e0 f   GuCapsule.obj
 0001:0000c8b0       ??0HeightFieldTraceUtil@Gu@physx@@QEAA@AEBVPxHeightFieldGeometry@2@@Z 000000018000d8b0 f i GuCCTSweepTests.obj
 0001:0000c8b0       ??0HeightFieldUtil@Gu@physx@@QEAA@AEBVPxHeightFieldGeometry@2@@Z 000000018000d8b0 f i GuCCTSweepTests.obj
 0001:0000c8f0       ??4HeightFieldTraceUtil@Gu@physx@@QEAAAEAV012@$$QEAV012@@Z 000000018000d8f0 f i GuCCTSweepTests.obj
 0001:0000c8f0       ??4HeightFieldTraceUtil@Gu@physx@@QEAAAEAV012@AEBV012@@Z 000000018000d8f0 f i GuCCTSweepTests.obj
 0001:0000c8f0       ??4HeightFieldUtil@Gu@physx@@QEAAAEAV012@AEBV012@@Z 000000018000d8f0 f i GuCCTSweepTests.obj
 0001:0000c910       ??4HeightFieldUtil@Gu@physx@@QEAAAEAV012@$$QEAV012@@Z 000000018000d910 f i GuCCTSweepTests.obj
 0001:0000c940       ??_E?$EntityReport@I@Gu@physx@@UEAAPEAXI@Z 000000018000d940 f i GuCCTSweepTests.obj
 0001:0000c940       ??_G?$EntityReport@I@Gu@physx@@UEAAPEAXI@Z 000000018000d940 f i GuCCTSweepTests.obj
 0001:0000c9a0       ?ceilUp@HeightFieldTraceUtil@Gu@physx@@SAMM@Z 000000018000d9a0 f i GuCCTSweepTests.obj
 0001:0000c9e0       ?computePointNormal@HeightFieldUtil@Gu@physx@@QEBA?AVPxVec3@3@IAEBV43@AEBVPxTransform@3@MMMMAEAM@Z 000000018000d9e0 f i GuCCTSweepTests.obj
 0001:0000ce00       ?floorDown@HeightFieldTraceUtil@Gu@physx@@SAMM@Z 000000018000de00 f i GuCCTSweepTests.obj
 0001:0000ce40       ?getFeatureIndex@HeightFieldUtil@Gu@physx@@SAII@Z 000000018000de40 f i GuCCTSweepTests.obj
 0001:0000ce50       ?getFeatureType@HeightFieldUtil@Gu@physx@@SA?AW4Feature@123@I@Z 000000018000de50 f i GuCCTSweepTests.obj
 0001:0000ce60       ?getHeightAtShapePoint@HeightFieldUtil@Gu@physx@@QEBAMMM@Z 000000018000de60 f i GuCCTSweepTests.obj
 0001:0000cec0       ?getNormalAtShapePoint@HeightFieldUtil@Gu@physx@@QEBA?AVPxVec3@3@MM@Z 000000018000dec0 f i GuCCTSweepTests.obj
 0001:0000cf80       ?getNormal_2@HeightField@Gu@physx@@QEBA?AVPxVec3@3@IMMMMM@Z 000000018000df80 f i GuCCTSweepTests.obj
 0001:0000d090       ?getOneOverColumnScale@HeightFieldUtil@Gu@physx@@QEBAMXZ 000000018000e090 f i GuCCTSweepTests.obj
 0001:0000d0a0       ?getOneOverHeightScale@HeightFieldUtil@Gu@physx@@QEBAMXZ 000000018000e0a0 f i GuCCTSweepTests.obj
 0001:0000d0b0       ?getOneOverRowScale@HeightFieldUtil@Gu@physx@@QEBAMXZ 000000018000e0b0 f i GuCCTSweepTests.obj
 0001:0000d0c0       ?getVertexNormal@HeightFieldUtil@Gu@physx@@QEBA?AVPxVec3@3@I@Z 000000018000e0c0 f i GuCCTSweepTests.obj
 0001:0000d0f0       ?hf2shapen@HeightFieldUtil@Gu@physx@@QEBA?AVPxVec3@3@AEBV43@@Z 000000018000e0f0 f i GuCCTSweepTests.obj
 0001:0000d0f0       ?shape2hfp@HeightFieldUtil@Gu@physx@@QEBA?AVPxVec3@3@AEBV43@@Z 000000018000e0f0 f i GuCCTSweepTests.obj
 0001:0000d130       ?hf2shapep@HeightFieldUtil@Gu@physx@@QEBA?AVPxVec3@3@AEBV43@@Z 000000018000e130 f i GuCCTSweepTests.obj
 0001:0000d170       ?hf2worldn@HeightFieldUtil@Gu@physx@@QEBA?AVPxVec3@3@AEBVPxTransform@3@AEBV43@@Z 000000018000e170 f i GuCCTSweepTests.obj
 0001:0000d2e0       ?hf2worldp@HeightFieldUtil@Gu@physx@@QEBA?AVPxVec3@3@AEBVPxTransform@3@AEBV43@@Z 000000018000e2e0 f i GuCCTSweepTests.obj
 0001:0000d460       ?isCollisionVertex@HeightFieldUtil@Gu@physx@@QEBA_NIII@Z 000000018000e460 f i GuCCTSweepTests.obj
 0001:0000d480       ?isQueryVertex@HeightFieldUtil@Gu@physx@@QEBA_NIII@Z 000000018000e480 f i GuCCTSweepTests.obj
 0001:0000d540       ?isShapePointOnHeightField@HeightFieldUtil@Gu@physx@@QEBA_NMM@Z 000000018000e540 f i GuCCTSweepTests.obj
 0001:0000d590       ?makeFeatureCode@HeightFieldUtil@Gu@physx@@SAIIW4Feature@123@@Z 000000018000e590 f i GuCCTSweepTests.obj
 0001:0000d750       ?sweepBoxTriangles_Precise@Gu@physx@@YA_NIPEBVPxTriangle@2@_NAEBVPxBoxGeometry@2@AEBVPxTransform@2@AEBVPxVec3@2@MAEAUPxSweepHit@2@PEBIMV?$PxFlags@W4Enum@PxHitFlag@physx@@G@2@@Z 000000018000e750 f   GuCCTSweepTests.obj
 0001:0000e4f0       ?sweepBox_BoxGeom_Precise@@YA_NAEBVPxGeometry@physx@@AEBVPxTransform@2@AEBVPxBoxGeometry@2@1AEBVBox@Gu@2@AEBVPxVec3@2@MAEAUPxSweepHit@2@V?$PxFlags@W4Enum@PxHitFlag@physx@@G@2@M@Z 000000018000f4f0 f   GuCCTSweepTests.obj
 0001:0000e6b0       ?sweepBox_CapsuleGeom_Precise@@YA_NAEBVPxGeometry@physx@@AEBVPxTransform@2@AEBVPxBoxGeometry@2@1AEBVBox@Gu@2@AEBVPxVec3@2@MAEAUPxSweepHit@2@V?$PxFlags@W4Enum@PxHitFlag@physx@@G@2@M@Z 000000018000f6b0 f   GuCCTSweepTests.obj
 0001:0000ea80       ?sweepBox_HeightFieldGeom_Precise@@YA_NAEBVPxGeometry@physx@@AEBVPxTransform@2@AEBVPxBoxGeometry@2@1AEBVBox@Gu@2@AEBVPxVec3@2@MAEAUPxSweepHit@2@V?$PxFlags@W4Enum@PxHitFlag@physx@@G@2@M@Z 000000018000fa80 f   GuCCTSweepTests.obj
 0001:0000ee40       ?sweepBox_SphereGeom_Precise@@YA_NAEBVPxGeometry@physx@@AEBVPxTransform@2@AEBVPxBoxGeometry@2@1AEBVBox@Gu@2@AEBVPxVec3@2@MAEAUPxSweepHit@2@V?$PxFlags@W4Enum@PxHitFlag@physx@@G@2@M@Z 000000018000fe40 f   GuCCTSweepTests.obj
 0001:0000f110       ?sweepCapsule_BoxGeom_Precise@@YA_NAEBVPxGeometry@physx@@AEBVPxTransform@2@AEBVPxCapsuleGeometry@2@1AEBVCapsule@Gu@2@AEBVPxVec3@2@MAEAUPxSweepHit@2@V?$PxFlags@W4Enum@PxHitFlag@physx@@G@2@M@Z 0000000180010110 f   GuCCTSweepTests.obj
 0001:0000f780       ?computePenetration@PxGeometryQuery@physx@@SA_NAEAVPxVec3@2@AEAMAEBVPxGeometry@2@AEBVPxTransform@2@23@Z 0000000180010780 f   GuGeometryQuery.obj
 0001:0000f860       ?getWorldBounds@PxGeometryQuery@physx@@SA?AVPxBounds3@2@AEBVPxGeometry@2@AEBVPxTransform@2@M@Z 0000000180010860 f   GuGeometryQuery.obj
 0001:0000f8c0       ?isFinite@PxQuat@physx@@QEBA_NXZ 00000001800108c0 f i GuGeometryQuery.obj
 0001:0000f930       ?isValid@PxGeometryQuery@physx@@SA_NAEBVPxGeometry@2@@Z 0000000180010930 f   GuGeometryQuery.obj
 0001:0000fb30       ?overlap@PxGeometryQuery@physx@@SA_NAEBVPxGeometry@2@AEBVPxTransform@2@01@Z 0000000180010b30 f   GuGeometryQuery.obj
 0001:0000fbd0       ?pointDistance@PxGeometryQuery@physx@@SAMAEBVPxVec3@2@AEBVPxGeometry@2@AEBVPxTransform@2@PEAV32@@Z 0000000180010bd0 f   GuGeometryQuery.obj
 0001:00010210       ?raycast@PxGeometryQuery@physx@@SAIAEBVPxVec3@2@0AEBVPxGeometry@2@AEBVPxTransform@2@MV?$PxFlags@W4Enum@PxHitFlag@physx@@G@2@IPEIAUPxRaycastHit@2@@Z 0000000180011210 f   GuGeometryQuery.obj
 0001:000102b0       ?sweep@PxGeometryQuery@physx@@SA_NAEBVPxVec3@2@MAEBVPxGeometry@2@AEBVPxTransform@2@12AEAUPxSweepHit@2@V?$PxFlags@W4Enum@PxHitFlag@physx@@G@2@M@Z 00000001800112b0 f   GuGeometryQuery.obj
 0001:00010670       ??0GeometryUnion@Gu@physx@@QEAA@AEBVPxGeometry@2@@Z 0000000180011670 f i GuGeometryUnion.obj
 0001:00010690       ??0GeometryUnion@Gu@physx@@QEAA@XZ 0000000180011690 f i GuGeometryUnion.obj
 0001:000106a0       ??0MaterialIndicesStruct@physx@@QEAA@XZ 00000001800116a0 f i GuGeometryUnion.obj
 0001:000106c0       ??4GeometryUnion@Gu@physx@@QEAAAEAV012@$$QEAV012@@Z 00000001800116c0 f i GuGeometryUnion.obj
 0001:000106c0       ??4GeometryUnion@Gu@physx@@QEAAAEAV012@AEBV012@@Z 00000001800116c0 f i GuGeometryUnion.obj
 0001:000106f0       ?allocate@MaterialIndicesStruct@physx@@QEAAXG@Z 00000001800116f0 f i GuGeometryUnion.obj
 0001:00010770       ?deallocate@MaterialIndicesStruct@physx@@QEAAXXZ 0000000180011770 f i GuGeometryUnion.obj
 0001:000107c0       ?getCount@BuildStats@Gu@physx@@QEBAIXZ 00000001800117c0 f i GuAABBTreeBuild.obj
 0001:000107c0       ?getNumAxes@SeparatingAxes@Gu@physx@@QEBAIXZ 00000001800117c0 f i GuMTD.obj
 0001:000107c0       ?getType@GeometryUnion@Gu@physx@@QEBA?AW4Enum@PxGeometryType@3@XZ 00000001800117c0 f i GuGeometryUnion.obj
 0001:000107d0       ?set@GeometryUnion@Gu@physx@@QEAAXAEBVPxGeometry@3@@Z 00000001800117d0 f   GuGeometryUnion.obj
 0001:000109a0       ?computeBoundsAroundVertices@Gu@physx@@YAXAEAVPxBounds3@2@IPEIBVPxVec3@2@@Z 00000001800119a0 f   GuInternal.obj
 0001:00010a40       ?computeBoxPoints@Gu@physx@@YAXAEBVPxBounds3@2@PEIAVPxVec3@2@@Z 0000000180011a40 f   GuInternal.obj
 0001:00010ae0       ?computeSweptBox@Gu@physx@@YAXAEAVBox@12@AEBVPxVec3@2@1AEBVPxMat33@2@1M@Z 0000000180011ae0 f   GuInternal.obj
 0001:00011020       ?getPlane@Gu@physx@@YA?AVPxPlane@2@AEBVPxTransform@2@@Z 0000000180012020 f   GuInternal.obj
 0001:000110d0       ??$?_UI@@YAPEAX_KV?$ReflectionAllocator@I@shdfnd@physx@@PEBDH@Z 00000001800120d0 f i GuMeshFactory.obj
 0001:00011170       ??0GuMeshFactory@physx@@QEAA@XZ 0000000180012170 f   GuMeshFactory.obj
 0001:00011310       ??1GuMeshFactory@physx@@MEAA@XZ 0000000180012310 f   GuMeshFactory.obj
 0001:00011410       ??1MeshDataBase@Gu@physx@@UEAA@XZ 0000000180012410 f i GuMeshFactory.obj
 0001:00011510       ??1TriangleMeshData@Gu@physx@@UEAA@XZ 0000000180012510 f i GuMeshFactory.obj
 0001:000115e0       ??_EGuMeshFactory@physx@@MEAAPEAXI@Z 00000001800125e0 f i GuMeshFactory.obj
 0001:00011700       ??_EBV4TriangleData@Gu@physx@@UEAAPEAXI@Z 0000000180012700 f i GuMeshFactory.obj
 0001:00011700       ??_GBV4TriangleData@Gu@physx@@UEAAPEAXI@Z 0000000180012700 f i GuMeshFactory.obj
 0001:00011790       ??_EMeshDataBase@Gu@physx@@UEAAPEAXI@Z 0000000180012790 f i GuMeshFactory.obj
 0001:00011790       ??_GMeshDataBase@Gu@physx@@UEAAPEAXI@Z 0000000180012790 f i GuMeshFactory.obj
 0001:00011800       ??_ERTreeTriangleData@Gu@physx@@UEAAPEAXI@Z 0000000180012800 f i GuMeshFactory.obj
 0001:00011800       ??_GRTreeTriangleData@Gu@physx@@UEAAPEAXI@Z 0000000180012800 f i GuMeshFactory.obj
 0001:000118c0       ??_ETriangleMeshData@Gu@physx@@UEAAPEAXI@Z 00000001800128c0 f i GuMeshFactory.obj
 0001:000118c0       ??_GTriangleMeshData@Gu@physx@@UEAAPEAXI@Z 00000001800128c0 f i GuMeshFactory.obj
 0001:00011930       ?__global_array_delete@@YAXPEAX_K@Z 0000000180012930 f i GuMeshFactory.obj
 0001:00011940       ??_V@YAXPEAX_K@Z           0000000180012940 f i LIBCMT:delete_array_size.obj
 0001:00011940       ?__global_delete@@YAXPEAX_K@Z 0000000180012940 f i GuMeshFactory.obj
 0001:00011950       ?addBVHStructure@GuMeshFactory@physx@@QEAAXPEAVBVHStructure@Gu@2@_N@Z 0000000180012950 f   GuMeshFactory.obj
 0001:000119d0       ?addConvexMesh@GuMeshFactory@physx@@QEAAXPEAVConvexMesh@Gu@2@_N@Z 00000001800129d0 f   GuMeshFactory.obj
 0001:00011a50       ?addFactoryListener@GuMeshFactory@physx@@QEAAXAEAVGuMeshFactoryListener@2@@Z 0000000180012a50 f   GuMeshFactory.obj
 0001:00011ac0       ?addHeightField@GuMeshFactory@physx@@QEAAXPEAVHeightField@Gu@2@_N@Z 0000000180012ac0 f   GuMeshFactory.obj
 0001:00011b40       ?addTriangleMesh@GuMeshFactory@physx@@QEAAXPEAVTriangleMesh@Gu@2@_N@Z 0000000180012b40 f   GuMeshFactory.obj
 0001:00011bc0       ?create@?$HashBase@PEAVBVHStructure@Gu@physx@@PEAV123@U?$Hash@PEAVBVHStructure@Gu@physx@@@shdfnd@3@UGetKey@?$HashSetBase@PEAVBVHStructure@Gu@physx@@U?$Hash@PEAVBVHStructure@Gu@physx@@@shdfnd@3@VNonTrackingAllocator@53@$00@internal@53@VNonTrackingAllocator@53@$00@internal@shdfnd@physx@@QEAAPEAPEAVBVHStructure@Gu@4@AEBQEAV564@AEA_N@Z 0000000180012bc0 f i GuMeshFactory.obj
 0001:00011bc0       ?create@?$HashBase@PEAVConvexMesh@Gu@physx@@PEAV123@U?$Hash@PEAVConvexMesh@Gu@physx@@@shdfnd@3@UGetKey@?$HashSetBase@PEAVConvexMesh@Gu@physx@@U?$Hash@PEAVConvexMesh@Gu@physx@@@shdfnd@3@VNonTrackingAllocator@53@$00@internal@53@VNonTrackingAllocator@53@$00@internal@shdfnd@physx@@QEAAPEAPEAVConvexMesh@Gu@4@AEBQEAV564@AEA_N@Z 0000000180012bc0 f i GuMeshFactory.obj
 0001:00011bc0       ?create@?$HashBase@PEAVHeightField@Gu@physx@@PEAV123@U?$Hash@PEAVHeightField@Gu@physx@@@shdfnd@3@UGetKey@?$HashSetBase@PEAVHeightField@Gu@physx@@U?$Hash@PEAVHeightField@Gu@physx@@@shdfnd@3@VNonTrackingAllocator@53@$00@internal@53@VNonTrackingAllocator@53@$00@internal@shdfnd@physx@@QEAAPEAPEAVHeightField@Gu@4@AEBQEAV564@AEA_N@Z 0000000180012bc0 f i GuMeshFactory.obj
 0001:00011bc0       ?create@?$HashBase@PEAVTriangleMesh@Gu@physx@@PEAV123@U?$Hash@PEAVTriangleMesh@Gu@physx@@@shdfnd@3@UGetKey@?$HashSetBase@PEAVTriangleMesh@Gu@physx@@U?$Hash@PEAVTriangleMesh@Gu@physx@@@shdfnd@3@VNonTrackingAllocator@53@$00@internal@53@VNonTrackingAllocator@53@$00@internal@shdfnd@physx@@QEAAPEAPEAVTriangleMesh@Gu@4@AEBQEAV564@AEA_N@Z 0000000180012bc0 f i GuMeshFactory.obj
 0001:00011d50       ?createBVHStructure@GuMeshFactory@physx@@IEAAPEAVPxBVHStructure@2@AEAUBVHStructureData@Gu@2@@Z 0000000180012d50 f   GuMeshFactory.obj
 0001:00011e50       ?createBVHStructure@GuMeshFactory@physx@@QEAAPEAVPxBVHStructure@2@AEAVPxInputStream@2@@Z 0000000180012e50 f   GuMeshFactory.obj
 0001:00011f70       ?createBVHStructure@GuMeshFactory@physx@@QEAAPEAVPxBVHStructure@2@PEAX@Z 0000000180012f70 f   GuMeshFactory.obj
 0001:00011f80       ?createConvexMesh@GuMeshFactory@physx@@IEAAPEAVPxConvexMesh@2@AEAUConvexHullInitData@Gu@2@@Z 0000000180012f80 f   GuMeshFactory.obj
 0001:00012080       ?createConvexMesh@GuMeshFactory@physx@@QEAAPEAVPxConvexMesh@2@AEAVPxInputStream@2@@Z 0000000180013080 f   GuMeshFactory.obj
 0001:000121a0       ?createConvexMesh@GuMeshFactory@physx@@QEAAPEAVPxConvexMesh@2@PEAX@Z 00000001800131a0 f   GuMeshFactory.obj
 0001:000121b0       ?createHeightField@GuMeshFactory@physx@@QEAAPEAVPxHeightField@2@AEAVPxInputStream@2@@Z 00000001800131b0 f   GuMeshFactory.obj
 0001:000122d0       ?createHeightField@GuMeshFactory@physx@@QEAAPEAVPxHeightField@2@PEAX@Z 00000001800132d0 f   GuMeshFactory.obj
 0001:000123d0       ?createTriangleMesh@GuMeshFactory@physx@@IEAAPEAVPxTriangleMesh@2@AEAVTriangleMeshData@Gu@2@@Z 00000001800133d0 f   GuMeshFactory.obj
 0001:00012560       ?createTriangleMesh@GuMeshFactory@physx@@QEAAPEAVPxTriangleMesh@2@AEAVPxInputStream@2@@Z 0000000180013560 f   GuMeshFactory.obj
 0001:000125c0       ?createTriangleMesh@GuMeshFactory@physx@@QEAAPEAVPxTriangleMesh@2@PEAX@Z 00000001800135c0 f   GuMeshFactory.obj
 0001:000125d0       ?erase@?$HashBase@PEAVBVHStructure@Gu@physx@@PEAV123@U?$Hash@PEAVBVHStructure@Gu@physx@@@shdfnd@3@UGetKey@?$HashSetBase@PEAVBVHStructure@Gu@physx@@U?$Hash@PEAVBVHStructure@Gu@physx@@@shdfnd@3@VNonTrackingAllocator@53@$00@internal@53@VNonTrackingAllocator@53@$00@internal@shdfnd@physx@@QEAA_NAEBQEAVBVHStructure@Gu@4@@Z 00000001800135d0 f i GuMeshFactory.obj
 0001:000125d0       ?erase@?$HashBase@PEAVConvexMesh@Gu@physx@@PEAV123@U?$Hash@PEAVConvexMesh@Gu@physx@@@shdfnd@3@UGetKey@?$HashSetBase@PEAVConvexMesh@Gu@physx@@U?$Hash@PEAVConvexMesh@Gu@physx@@@shdfnd@3@VNonTrackingAllocator@53@$00@internal@53@VNonTrackingAllocator@53@$00@internal@shdfnd@physx@@QEAA_NAEBQEAVConvexMesh@Gu@4@@Z 00000001800135d0 f i GuMeshFactory.obj
 0001:000125d0       ?erase@?$HashBase@PEAVHeightField@Gu@physx@@PEAV123@U?$Hash@PEAVHeightField@Gu@physx@@@shdfnd@3@UGetKey@?$HashSetBase@PEAVHeightField@Gu@physx@@U?$Hash@PEAVHeightField@Gu@physx@@@shdfnd@3@VNonTrackingAllocator@53@$00@internal@53@VNonTrackingAllocator@53@$00@internal@shdfnd@physx@@QEAA_NAEBQEAVHeightField@Gu@4@@Z 00000001800135d0 f i GuMeshFactory.obj
 0001:000125d0       ?erase@?$HashBase@PEAVTriangleMesh@Gu@physx@@PEAV123@U?$Hash@PEAVTriangleMesh@Gu@physx@@@shdfnd@3@UGetKey@?$HashSetBase@PEAVTriangleMesh@Gu@physx@@U?$Hash@PEAVTriangleMesh@Gu@physx@@@shdfnd@3@VNonTrackingAllocator@53@$00@internal@53@VNonTrackingAllocator@53@$00@internal@shdfnd@physx@@QEAA_NAEBQEAVTriangleMesh@Gu@4@@Z 00000001800135d0 f i GuMeshFactory.obj
 0001:00012750       ?getBVHStructures@GuMeshFactory@physx@@QEBAIPEAPEAVPxBVHStructure@2@II@Z 0000000180013750 f   GuMeshFactory.obj
 0001:00012820       ?getConvexMeshes@GuMeshFactory@physx@@QEBAIPEAPEAVPxConvexMesh@2@II@Z 0000000180013820 f   GuMeshFactory.obj
 0001:000128f0       ?getHeightFields@GuMeshFactory@physx@@QEBAIPEAPEAVPxHeightField@2@II@Z 00000001800138f0 f   GuMeshFactory.obj
 0001:000129c0       ?getNbBVHStructures@GuMeshFactory@physx@@QEBAIXZ 00000001800139c0 f   GuMeshFactory.obj
 0001:00012a00       ?getNbConvexMeshes@GuMeshFactory@physx@@QEBAIXZ 0000000180013a00 f   GuMeshFactory.obj
 0001:00012a40       ?getNbHeightFields@GuMeshFactory@physx@@QEBAIXZ 0000000180013a40 f   GuMeshFactory.obj
 0001:00012a80       ?getNbTriangleMeshes@GuMeshFactory@physx@@QEBAIXZ 0000000180013a80 f   GuMeshFactory.obj
 0001:00012ac0       ?getTriangleMeshes@GuMeshFactory@physx@@QEBAIPEAPEAVPxTriangleMesh@2@II@Z 0000000180013ac0 f   GuMeshFactory.obj
 0001:00012b90       ?growAndPushBack@?$Array@PEAVGuMeshFactoryListener@physx@@V?$ReflectionAllocator@PEAVGuMeshFactoryListener@physx@@@shdfnd@2@@shdfnd@physx@@IEAAAEAPEAVGuMeshFactoryListener@3@AEBQEAV43@@Z 0000000180013b90 f i GuMeshFactory.obj
 0001:00013ba0       ?notifyFactoryListener@GuMeshFactory@physx@@QEAAXPEBVPxBase@2@G@Z 0000000180014ba0 f   GuMeshFactory.obj
 0001:00013c10       ?release@GuMeshFactory@physx@@QEAAXXZ 0000000180014c10 f   GuMeshFactory.obj
 0001:00013cc0       ?removeBVHStructure@GuMeshFactory@physx@@QEAA_NAEAVPxBVHStructure@2@@Z 0000000180014cc0 f   GuMeshFactory.obj
 0001:00013d10       ?removeConvexMesh@GuMeshFactory@physx@@QEAA_NAEAVPxConvexMesh@2@@Z 0000000180014d10 f   GuMeshFactory.obj
 0001:00013d60       ?removeFactoryListener@GuMeshFactory@physx@@QEAAXAEAVGuMeshFactoryListener@2@@Z 0000000180014d60 f   GuMeshFactory.obj
 0001:00013de0       ?removeHeightField@GuMeshFactory@physx@@QEAA_NAEAVPxHeightField@2@@Z 0000000180014de0 f   GuMeshFactory.obj
 0001:00013e30       ?removeTriangleMesh@GuMeshFactory@physx@@QEAA_NAEAVPxTriangleMesh@2@@Z 0000000180014e30 f   GuMeshFactory.obj
 0001:00013e80       ?reserveInternal@?$HashBase@PEAVBVHStructure@Gu@physx@@PEAV123@U?$Hash@PEAVBVHStructure@Gu@physx@@@shdfnd@3@UGetKey@?$HashSetBase@PEAVBVHStructure@Gu@physx@@U?$Hash@PEAVBVHStructure@Gu@physx@@@shdfnd@3@VNonTrackingAllocator@53@$00@internal@53@VNonTrackingAllocator@53@$00@internal@shdfnd@physx@@AEAAXI@Z 0000000180014e80 f i GuMeshFactory.obj
 0001:00013e80       ?reserveInternal@?$HashBase@PEAVConvexMesh@Gu@physx@@PEAV123@U?$Hash@PEAVConvexMesh@Gu@physx@@@shdfnd@3@UGetKey@?$HashSetBase@PEAVConvexMesh@Gu@physx@@U?$Hash@PEAVConvexMesh@Gu@physx@@@shdfnd@3@VNonTrackingAllocator@53@$00@internal@53@VNonTrackingAllocator@53@$00@internal@shdfnd@physx@@AEAAXI@Z 0000000180014e80 f i GuMeshFactory.obj
 0001:00013e80       ?reserveInternal@?$HashBase@PEAVHeightField@Gu@physx@@PEAV123@U?$Hash@PEAVHeightField@Gu@physx@@@shdfnd@3@UGetKey@?$HashSetBase@PEAVHeightField@Gu@physx@@U?$Hash@PEAVHeightField@Gu@physx@@@shdfnd@3@VNonTrackingAllocator@53@$00@internal@53@VNonTrackingAllocator@53@$00@internal@shdfnd@physx@@AEAAXI@Z 0000000180014e80 f i GuMeshFactory.obj
 0001:00013e80       ?reserveInternal@?$HashBase@PEAVTriangleMesh@Gu@physx@@PEAV123@U?$Hash@PEAVTriangleMesh@Gu@physx@@@shdfnd@3@UGetKey@?$HashSetBase@PEAVTriangleMesh@Gu@physx@@U?$Hash@PEAVTriangleMesh@Gu@physx@@@shdfnd@3@VNonTrackingAllocator@53@$00@internal@53@VNonTrackingAllocator@53@$00@internal@shdfnd@physx@@AEAAXI@Z 0000000180014e80 f i GuMeshFactory.obj
 0001:00014040       ??4BigConvexData@physx@@QEAAAEAV01@AEBV01@@Z 0000000180015040 f i GuMetaData.obj
 0001:00014060       ?GetAdjacentVerts@BigConvexData@physx@@QEBAPEBEXZ 0000000180015060 f i GuMetaData.obj
 0001:00014070       ?GetNbNeighbors@BigConvexData@physx@@QEBAGI@Z 0000000180015070 f i GuMetaData.obj
 0001:00014070       ?GetValency@BigConvexData@physx@@QEBAGI@Z 0000000180015070 f i GuMetaData.obj
 0001:00014080       ?GetNbSamples@BigConvexData@physx@@QEBAIXZ 0000000180015080 f i GuMetaData.obj
 0001:00014090       ?GetNbVerts@BigConvexData@physx@@QEBAIXZ 0000000180015090 f i GuMetaData.obj
 0001:00014090       ?length@pcharNode@@UEBAHXZ 0000000180015090 f i libvcruntime:undname.obj
 0001:00014090       ?raw_length@pcharNode@@UEBAHXZ 0000000180015090 f i libvcruntime:undname.obj
 0001:000140a0       ?GetNeighbors@BigConvexData@physx@@QEBAPEBEI@Z 00000001800150a0 f i GuMetaData.obj
 0001:000140b0       ?GetOffset@BigConvexData@physx@@QEBAGI@Z 00000001800150b0 f i GuMetaData.obj
 0001:000140c0       ?GetSubdiv@BigConvexData@physx@@QEBAIXZ 00000001800150c0 f i GuMetaData.obj
 0001:000140d0       ?getBinaryMetaData@BV4Tree@Gu@physx@@SAXAEAVPxOutputStream@3@@Z 00000001800150d0 f   GuMetaData.obj
 0001:00014480       ?getBinaryMetaData@BV4TriangleMesh@Gu@physx@@SAXAEAVPxOutputStream@3@@Z 0000000180015480 f   GuMetaData.obj
 0001:00014770       ?getBinaryMetaData@BigConvexData@physx@@SAXAEAVPxOutputStream@2@@Z 0000000180015770 f   GuMetaData.obj
 0001:00014a50       ?getBinaryMetaData@ConvexMesh@Gu@physx@@SAXAEAVPxOutputStream@3@@Z 0000000180015a50 f   GuMetaData.obj
 0001:000150f0       ?getBinaryMetaData@GeometryUnion@Gu@physx@@SAXAEAVPxOutputStream@3@@Z 00000001800160f0 f   GuMetaData.obj
 0001:00015770       ?getBinaryMetaData@HeightField@Gu@physx@@SAXAEAVPxOutputStream@3@@Z 0000000180016770 f   GuMetaData.obj
 0001:00015bc0       ?getBinaryMetaData@MaterialIndicesStruct@physx@@SAXAEAVPxOutputStream@2@@Z 0000000180016bc0 f   GuMetaData.obj
 0001:00015d70       ?getBinaryMetaData@RTree@Gu@physx@@SAXAEAVPxOutputStream@3@@Z 0000000180016d70 f   GuMetaData.obj
 0001:000160c0       ?getBinaryMetaData@RTreeTriangleMesh@Gu@physx@@SAXAEAVPxOutputStream@3@@Z 00000001800170c0 f   GuMetaData.obj
 0001:000169b0       ?getBinaryMetaData@TriangleMesh@Gu@physx@@SAXAEAVPxOutputStream@3@@Z 00000001800179b0 f   GuMetaData.obj
 0001:00017ed0       ?doSupport@?$SupportLocalImpl@VConvexHullV@Gu@physx@@@Gu@physx@@UEBA?AT__m128@@AEBT4@@Z 0000000180018ed0 f i GuMTD.obj
 0001:00017fb0       ?doSupport@?$SupportLocalImpl@VConvexHullV@Gu@physx@@@Gu@physx@@UEBAXAEBT__m128@@AEAT4@1@Z 0000000180018fb0 f i GuMTD.obj
 0001:00018310       ?populateVerts@?$SupportLocalImpl@VConvexHullV@Gu@physx@@@Gu@physx@@UEBAXPEBEIPEBVPxVec3@3@PEAT__m128@@@Z 0000000180019310 f i GuMTD.obj
 0001:00018370       ??_E?$SupportLocalImpl@VBoxV@Gu@physx@@@Gu@physx@@UEAAPEAXI@Z 0000000180019370 f i GuMTD.obj
 0001:00018370       ??_E?$SupportLocalImpl@VConvexHullNoScaleV@Gu@physx@@@Gu@physx@@UEAAPEAXI@Z 0000000180019370 f i GuMTD.obj
 0001:00018370       ??_E?$SupportLocalImpl@VConvexHullV@Gu@physx@@@Gu@physx@@UEAAPEAXI@Z 0000000180019370 f i GuMTD.obj
 0001:00018370       ??_E?$SupportLocalImpl@VTriangleV@Gu@physx@@@Gu@physx@@UEAAPEAXI@Z 0000000180019370 f i GuPCMContactConvexCommon.obj
 0001:00018370       ??_G?$SupportLocalImpl@VBoxV@Gu@physx@@@Gu@physx@@UEAAPEAXI@Z 0000000180019370 f i GuMTD.obj
 0001:00018370       ??_G?$SupportLocalImpl@VConvexHullNoScaleV@Gu@physx@@@Gu@physx@@UEAAPEAXI@Z 0000000180019370 f i GuMTD.obj
 0001:00018370       ??_G?$SupportLocalImpl@VConvexHullV@Gu@physx@@@Gu@physx@@UEAAPEAXI@Z 0000000180019370 f i GuMTD.obj
 0001:00018370       ??_G?$SupportLocalImpl@VTriangleV@Gu@physx@@@Gu@physx@@UEAAPEAXI@Z 0000000180019370 f i GuPCMContactConvexCommon.obj
 0001:000183a0       ?doSupport@?$SupportLocalImpl@VConvexHullNoScaleV@Gu@physx@@@Gu@physx@@UEBA?AT__m128@@AEBT4@@Z 00000001800193a0 f i GuMTD.obj
 0001:000183f0       ?doSupport@?$SupportLocalImpl@VConvexHullNoScaleV@Gu@physx@@@Gu@physx@@UEBAXAEBT__m128@@AEAT4@1@Z 00000001800193f0 f i GuMTD.obj
 0001:00018580       ?populateVerts@?$SupportLocalImpl@VBoxV@Gu@physx@@@Gu@physx@@UEBAXPEBEIPEBVPxVec3@3@PEAT__m128@@@Z 0000000180019580 f i GuMTD.obj
 0001:00018580       ?populateVerts@?$SupportLocalImpl@VConvexHullNoScaleV@Gu@physx@@@Gu@physx@@UEBAXPEBEIPEBVPxVec3@3@PEAT__m128@@@Z 0000000180019580 f i GuMTD.obj
 0001:000185c0       ?doSupport@?$SupportLocalImpl@VBoxV@Gu@physx@@@Gu@physx@@UEBA?AT__m128@@AEBT4@@Z 00000001800195c0 f i GuMTD.obj
 0001:000185f0       ?doSupport@?$SupportLocalImpl@VBoxV@Gu@physx@@@Gu@physx@@UEBAXAEBT__m128@@AEAT4@1@Z 00000001800195f0 f i GuMTD.obj
 0001:00018640       ??_ESupportLocal@Gu@physx@@UEAAPEAXI@Z 0000000180019640 f i GuMTD.obj
 0001:00018640       ??_GSupportLocal@Gu@physx@@UEAAPEAXI@Z 0000000180019640 f i GuMTD.obj
 0001:0001a860       ??$gjk@U?$LocalConvex@VCapsuleV@Gu@physx@@@Gu@physx@@U?$LocalConvex@VConvexHullV@Gu@physx@@@23@@Gu@physx@@YA?AW4GjkStatus@01@AEBU?$LocalConvex@VCapsuleV@Gu@physx@@@01@AEBU?$LocalConvex@VConvexHullV@Gu@physx@@@01@AEBT__m128@@2AEAT5@333@Z 000000018001b860 f i GuMTD.obj
 0001:0001b500       ??0MultiplePersistentContactManifold@Gu@physx@@QEAA@XZ 000000018001c500 f i GuMTD.obj
 0001:0001b560       ??0PolygonalBox@Gu@physx@@QEAA@AEBV012@@Z 000000018001c560 f i GuMTD.obj
 0001:0001b7e0       ??0SeparatingAxes@Gu@physx@@QEAA@$$QEAV012@@Z 000000018001c7e0 f i GuMTD.obj
 0001:0001b7e0       ??0SeparatingAxes@Gu@physx@@QEAA@AEBV012@@Z 000000018001c7e0 f i GuMTD.obj
 0001:0001b8f0       ??0SeparatingAxes@Gu@physx@@QEAA@XZ 000000018001c8f0 f i GuMTD.obj
 0001:0001b900       ??4MultiplePersistentContactManifold@Gu@physx@@QEAAAEAV012@$$QEAV012@@Z 000000018001c900 f i GuMTD.obj
 0001:0001bc10       ??4MultiplePersistentContactManifold@Gu@physx@@QEAAAEAV012@AEBV012@@Z 000000018001cc10 f i GuMTD.obj
 0001:0001bc30       ??4SeparatingAxes@Gu@physx@@QEAAAEAV012@$$QEAV012@@Z 000000018001cc30 f i GuMTD.obj
 0001:0001bc30       ??4SeparatingAxes@Gu@physx@@QEAAAEAV012@AEBV012@@Z 000000018001cc30 f i GuMTD.obj
 0001:0001bd40       ??_E?$LocalConvex@VBoxV@Gu@physx@@@Gu@physx@@UEAAPEAXI@Z 000000018001cd40 f i GuSweepTests.obj
 0001:0001bd40       ??_E?$LocalConvex@VCapsuleV@Gu@physx@@@Gu@physx@@UEAAPEAXI@Z 000000018001cd40 f i GuMTD.obj
 0001:0001bd40       ??_E?$LocalConvex@VConvexHullNoScaleV@Gu@physx@@@Gu@physx@@UEAAPEAXI@Z 000000018001cd40 f i GuPCMContactBoxConvex.obj
 0001:0001bd40       ??_E?$LocalConvex@VConvexHullV@Gu@physx@@@Gu@physx@@UEAAPEAXI@Z 000000018001cd40 f i GuMTD.obj
 0001:0001bd40       ??_E?$LocalConvex@VTriangleV@Gu@physx@@@Gu@physx@@UEAAPEAXI@Z 000000018001cd40 f i GuSweepTests.obj
 0001:0001bd40       ??_EGjkConvexBase@Gu@physx@@UEAAPEAXI@Z 000000018001cd40 f i GuMTD.obj
 0001:0001bd40       ??_G?$LocalConvex@VBoxV@Gu@physx@@@Gu@physx@@UEAAPEAXI@Z 000000018001cd40 f i GuSweepTests.obj
 0001:0001bd40       ??_G?$LocalConvex@VCapsuleV@Gu@physx@@@Gu@physx@@UEAAPEAXI@Z 000000018001cd40 f i GuMTD.obj
 0001:0001bd40       ??_G?$LocalConvex@VConvexHullNoScaleV@Gu@physx@@@Gu@physx@@UEAAPEAXI@Z 000000018001cd40 f i GuPCMContactBoxConvex.obj
 0001:0001bd40       ??_G?$LocalConvex@VConvexHullV@Gu@physx@@@Gu@physx@@UEAAPEAXI@Z 000000018001cd40 f i GuMTD.obj
 0001:0001bd40       ??_G?$LocalConvex@VTriangleV@Gu@physx@@@Gu@physx@@UEAAPEAXI@Z 000000018001cd40 f i GuSweepTests.obj
 0001:0001bd40       ??_GGjkConvexBase@Gu@physx@@UEAAPEAXI@Z 000000018001cd40 f i GuMTD.obj
 0001:0001c4b0       ?clearManifold@MultiplePersistentContactManifold@Gu@physx@@QEAAXXZ 000000018001d4b0 f i GuMTD.obj
 0001:0001fa40       ?getAxes@SeparatingAxes@Gu@physx@@QEBAPEBVPxVec3@3@XZ 0000000180020a40 f i GuMTD.obj
 0001:0001fa50       ?getCenter@?$LocalConvex@VBoxV@Gu@physx@@@Gu@physx@@UEBA?AT__m128@@XZ 0000000180020a50 f i GuSweepTests.obj
 0001:0001fa50       ?getCenter@?$LocalConvex@VCapsuleV@Gu@physx@@@Gu@physx@@UEBA?AT__m128@@XZ 0000000180020a50 f i GuMTD.obj
 0001:0001fa50       ?getCenter@?$LocalConvex@VConvexHullNoScaleV@Gu@physx@@@Gu@physx@@UEBA?AT__m128@@XZ 0000000180020a50 f i GuPCMContactBoxConvex.obj
 0001:0001fa50       ?getCenter@?$LocalConvex@VConvexHullV@Gu@physx@@@Gu@physx@@UEBA?AT__m128@@XZ 0000000180020a50 f i GuMTD.obj
 0001:0001fa50       ?getCenter@?$LocalConvex@VTriangleV@Gu@physx@@@Gu@physx@@UEBA?AT__m128@@XZ 0000000180020a50 f i GuSweepTests.obj
 0001:0001fa60       ?getEmptyManifold@MultiplePersistentContactManifold@Gu@physx@@QEAAPEAVSinglePersistentContactManifold@23@XZ 0000000180020a60 f i GuMTD.obj
 0001:0001fa80       ?getManifold@MultiplePersistentContactManifold@Gu@physx@@QEAAPEAVSinglePersistentContactManifold@23@I@Z 0000000180020a80 f i GuMTD.obj
 0001:0001faa0       ?getSweepMargin@?$LocalConvex@VCapsuleV@Gu@physx@@@Gu@physx@@UEBA?AT__m128@@XZ 0000000180020aa0 f i GuMTD.obj
 0001:0001faa0       ?getSweepMargin@?$RelativeConvex@VCapsuleV@Gu@physx@@@Gu@physx@@UEBA?AT__m128@@XZ 0000000180020aa0 f i GuCCDSweepPrimitives.obj
 0001:0001fab0       ?getSweepMargin@?$LocalConvex@VBoxV@Gu@physx@@@Gu@physx@@UEBA?AT__m128@@XZ 0000000180020ab0 f i GuSweepTests.obj
 0001:0001fab0       ?getSweepMargin@?$LocalConvex@VConvexHullNoScaleV@Gu@physx@@@Gu@physx@@UEBA?AT__m128@@XZ 0000000180020ab0 f i GuPCMContactBoxConvex.obj
 0001:0001fab0       ?getSweepMargin@?$LocalConvex@VConvexHullV@Gu@physx@@@Gu@physx@@UEBA?AT__m128@@XZ 0000000180020ab0 f i GuMTD.obj
 0001:0001fab0       ?getSweepMargin@?$RelativeConvex@VBoxV@Gu@physx@@@Gu@physx@@UEBA?AT__m128@@XZ 0000000180020ab0 f i GuOverlapTests.obj
 0001:0001fab0       ?getSweepMargin@?$RelativeConvex@VConvexHullNoScaleV@Gu@physx@@@Gu@physx@@UEBA?AT__m128@@XZ 0000000180020ab0 f i GuPCMContactConvexConvex.obj
 0001:0001fab0       ?getSweepMargin@?$RelativeConvex@VConvexHullV@Gu@physx@@@Gu@physx@@UEBA?AT__m128@@XZ 0000000180020ab0 f i GuOverlapTests.obj
 0001:0001fad0       ?hillClimbing@ConvexHullV@Gu@physx@@QEBAIAEBT__m128@@@Z 0000000180020ad0 f i GuMTD.obj
 0001:0001fd00       ?initialize@MultiplePersistentContactManifold@Gu@physx@@QEAAXXZ 0000000180020d00 f i GuMTD.obj
 0001:0001fd60       ?invalidate@MultiplePersistentContactManifold@Gu@physx@@QEAAIAEBVPsTransformV@aos@shdfnd@3@AEBT__m128@@1@Z 0000000180020d60 f i GuMTD.obj
 0001:0001fde0       ?invalidate@MultiplePersistentContactManifold@Gu@physx@@QEAAIAEBVPsTransformV@aos@shdfnd@3@AEBT__m128@@@Z 0000000180020de0 f i GuMTD.obj
 0001:0001fe60       ?maxTransformPositionDelta@MultiplePersistentContactManifold@Gu@physx@@QEAA?AT__m128@@AEBT4@@Z 0000000180020e60 f i GuMTD.obj
 0001:0001fea0       ?maxTransformQuatDelta@MultiplePersistentContactManifold@Gu@physx@@QEAA?AT__m128@@AEBT4@@Z 0000000180020ea0 f i GuMTD.obj
 0001:0001fee0       ?pointConvexDistance@@YA_NAEAVPxVec3@physx@@0AEAMAEBV12@PEBVConvexMesh@Gu@2@AEBVPxMeshScale@2@AEBVPxTransform@2@@Z 0000000180020ee0 f   GuMTD.obj
 0001:00020cb0       ?reduceManifoldContactsInDifferentPatches@MultiplePersistentContactManifold@Gu@physx@@QEAAIPEAPEAUPCMContactPatch@23@IPEAVMeshPersistentContact@23@IAEBT__m128@@@Z 0000000180021cb0 f i GuMTD.obj
 0001:00020e20       ?refineContactPatchConnective@MultiplePersistentContactManifold@Gu@physx@@QEAAXPEAPEAUPCMContactPatch@23@IPEAVMeshPersistentContact@23@AEBT__m128@@@Z 0000000180021e20 f i GuMTD.obj
 0001:00020f10       ?refreshManifold@MultiplePersistentContactManifold@Gu@physx@@QEAAXAEBVPsMatTransformV@aos@shdfnd@3@AEBT__m128@@1@Z 0000000180021f10 f i GuMTD.obj
 0001:00021010       ?reset@SeparatingAxes@Gu@physx@@QEAAXXZ 0000000180022010 f i GuMTD.obj
 0001:00021020       ?setRelativeTransform@MultiplePersistentContactManifold@Gu@physx@@QEAAXAEBVPsTransformV@aos@shdfnd@3@@Z 0000000180022020 f i GuMTD.obj
 0001:00021030       ?support@?$LocalConvex@VCapsuleV@Gu@physx@@@Gu@physx@@UEBA?AT__m128@@AEBT4@@Z 0000000180022030 f i GuMTD.obj
 0001:00021090       ?support@?$LocalConvex@VCapsuleV@Gu@physx@@@Gu@physx@@UEBA?AT__m128@@AEBT4@AEAH@Z 0000000180022090 f i GuMTD.obj
 0001:00021100       ?support@?$LocalConvex@VConvexHullV@Gu@physx@@@Gu@physx@@UEBA?AT__m128@@AEBT4@@Z 0000000180022100 f i GuMTD.obj
 0001:000211e0       ?support@?$LocalConvex@VConvexHullV@Gu@physx@@@Gu@physx@@UEBA?AT__m128@@AEBT4@AEAH@Z 00000001800221e0 f i GuMTD.obj
 0001:000212b0       ?supportPoint@?$LocalConvex@VCapsuleV@Gu@physx@@@Gu@physx@@UEBA?AT__m128@@H@Z 00000001800222b0 f i GuMTD.obj
 0001:000212e0       ?supportPoint@?$LocalConvex@VConvexHullV@Gu@physx@@@Gu@physx@@UEBA?AT__m128@@H@Z 00000001800222e0 f i GuMTD.obj
 0001:00021330       ?supportVertexIndex@ConvexHullV@Gu@physx@@QEBAIAEBT__m128@@@Z 0000000180022330 f i GuMTD.obj
 0001:00021590       ?toBuffer@MultiplePersistentContactManifold@Gu@physx@@QEAAXPEIAE@Z 0000000180022590 f i GuMTD.obj
 0001:00021670       ?supportPoint@?$RelativeConvex@VBoxV@Gu@physx@@@Gu@physx@@UEBA?AT__m128@@H@Z 0000000180022670 f i GuOverlapTests.obj
 0001:000216e0       ?support@?$RelativeConvex@VBoxV@Gu@physx@@@Gu@physx@@UEBA?AT__m128@@AEBT4@@Z 00000001800226e0 f i GuOverlapTests.obj
 0001:00021760       ?support@?$RelativeConvex@VBoxV@Gu@physx@@@Gu@physx@@UEBA?AT__m128@@AEBT4@AEAH@Z 0000000180022760 f i GuOverlapTests.obj
 0001:000217f0       ?getCenter@?$RelativeConvex@VBoxV@Gu@physx@@@Gu@physx@@UEBA?AT__m128@@XZ 00000001800227f0 f i GuOverlapTests.obj
 0001:000217f0       ?getCenter@?$RelativeConvex@VCapsuleV@Gu@physx@@@Gu@physx@@UEBA?AT__m128@@XZ 00000001800227f0 f i GuCCDSweepPrimitives.obj
 0001:000217f0       ?getCenter@?$RelativeConvex@VConvexHullNoScaleV@Gu@physx@@@Gu@physx@@UEBA?AT__m128@@XZ 00000001800227f0 f i GuPCMContactConvexConvex.obj
 0001:000217f0       ?getCenter@?$RelativeConvex@VConvexHullV@Gu@physx@@@Gu@physx@@UEBA?AT__m128@@XZ 00000001800227f0 f i GuOverlapTests.obj
 0001:000217f0       ?getCenter@?$RelativeConvex@VTriangleV@Gu@physx@@@Gu@physx@@UEBA?AT__m128@@XZ 00000001800227f0 f i GuCCDSweepPrimitives.obj
 0001:00021830       ??_E?$RelativeConvex@VBoxV@Gu@physx@@@Gu@physx@@UEAAPEAXI@Z 0000000180022830 f i GuOverlapTests.obj
 0001:00021830       ??_E?$RelativeConvex@VCapsuleV@Gu@physx@@@Gu@physx@@UEAAPEAXI@Z 0000000180022830 f i GuCCDSweepPrimitives.obj
 0001:00021830       ??_E?$RelativeConvex@VConvexHullNoScaleV@Gu@physx@@@Gu@physx@@UEAAPEAXI@Z 0000000180022830 f i GuPCMContactConvexConvex.obj
 0001:00021830       ??_E?$RelativeConvex@VConvexHullV@Gu@physx@@@Gu@physx@@UEAAPEAXI@Z 0000000180022830 f i GuOverlapTests.obj
 0001:00021830       ??_E?$RelativeConvex@VTriangleV@Gu@physx@@@Gu@physx@@UEAAPEAXI@Z 0000000180022830 f i GuCCDSweepPrimitives.obj
 0001:00021830       ??_G?$RelativeConvex@VBoxV@Gu@physx@@@Gu@physx@@UEAAPEAXI@Z 0000000180022830 f i GuOverlapTests.obj
 0001:00021830       ??_G?$RelativeConvex@VCapsuleV@Gu@physx@@@Gu@physx@@UEAAPEAXI@Z 0000000180022830 f i GuCCDSweepPrimitives.obj
 0001:00021830       ??_G?$RelativeConvex@VConvexHullNoScaleV@Gu@physx@@@Gu@physx@@UEAAPEAXI@Z 0000000180022830 f i GuPCMContactConvexConvex.obj
 0001:00021830       ??_G?$RelativeConvex@VConvexHullV@Gu@physx@@@Gu@physx@@UEAAPEAXI@Z 0000000180022830 f i GuOverlapTests.obj
 0001:00021830       ??_G?$RelativeConvex@VTriangleV@Gu@physx@@@Gu@physx@@UEAAPEAXI@Z 0000000180022830 f i GuCCDSweepPrimitives.obj
 0001:00023a50       ?supportPoint@?$RelativeConvex@VConvexHullV@Gu@physx@@@Gu@physx@@UEBA?AT__m128@@H@Z 0000000180024a50 f i GuOverlapTests.obj
 0001:00023ad0       ?support@?$RelativeConvex@VConvexHullV@Gu@physx@@@Gu@physx@@UEBA?AT__m128@@AEBT4@@Z 0000000180024ad0 f i GuOverlapTests.obj
 0001:00023c00       ?support@?$RelativeConvex@VConvexHullV@Gu@physx@@@Gu@physx@@UEBA?AT__m128@@AEBT4@AEAH@Z 0000000180024c00 f i GuOverlapTests.obj
 0001:00023d60       ??$gjk@U?$RelativeConvex@VBoxV@Gu@physx@@@Gu@physx@@U?$LocalConvex@VConvexHullV@Gu@physx@@@23@@Gu@physx@@YA?AW4GjkStatus@01@AEBU?$RelativeConvex@VBoxV@Gu@physx@@@01@AEBU?$LocalConvex@VConvexHullV@Gu@physx@@@01@AEBT__m128@@2AEAT5@333@Z 0000000180024d60 f i GuOverlapTests.obj
 0001:00024a30       ??$gjk@U?$RelativeConvex@VConvexHullV@Gu@physx@@@Gu@physx@@U?$LocalConvex@VConvexHullV@Gu@physx@@@23@@Gu@physx@@YA?AW4GjkStatus@01@AEBU?$RelativeConvex@VConvexHullV@Gu@physx@@@01@AEBU?$LocalConvex@VConvexHullV@Gu@physx@@@01@AEBT__m128@@2AEAT5@333@Z 0000000180025a30 f i GuOverlapTests.obj
 0001:00025790       ?ComputeCubemapNearestOffset@physx@@YAIAEBVPxVec3@1@I@Z 0000000180026790 f i GuOverlapTests.obj
 0001:000258a0       ?getOverlapFuncTable@Gu@physx@@YAPEAY06Q6A_NAEBVPxGeometry@2@AEBVPxTransform@2@01PEAUTriggerCache@12@@ZXZ 00000001800268a0 f   GuOverlapTests.obj
 0001:00027270       ?registerHeightFields@Gu@physx@@YAXXZ 0000000180028270 f   GuOverlapTests.obj
 0001:000272c0       ?raycast_box@@YAIAEBVPxGeometry@physx@@AEBVPxTransform@2@AEBVPxVec3@2@2MV?$PxFlags@W4Enum@PxHitFlag@physx@@G@2@IPEIAUPxRaycastHit@2@@Z 00000001800282c0 f   GuRaycastTests.obj
 0001:00027910       ?raycast_sphere@@YAIAEBVPxGeometry@physx@@AEBVPxTransform@2@AEBVPxVec3@2@2MV?$PxFlags@W4Enum@PxHitFlag@physx@@G@2@IPEIAUPxRaycastHit@2@@Z 0000000180028910 f   GuRaycastTests.obj
 0001:00027a90       ?raycast_capsule@@YAIAEBVPxGeometry@physx@@AEBVPxTransform@2@AEBVPxVec3@2@2MV?$PxFlags@W4Enum@PxHitFlag@physx@@G@2@IPEIAUPxRaycastHit@2@@Z 0000000180028a90 f   GuRaycastTests.obj
 0001:00027fe0       ?raycast_plane@@YAIAEBVPxGeometry@physx@@AEBVPxTransform@2@AEBVPxVec3@2@2MV?$PxFlags@W4Enum@PxHitFlag@physx@@G@2@IPEIAUPxRaycastHit@2@@Z 0000000180028fe0 f   GuRaycastTests.obj
 0001:00028150       ?raycast_convexMesh@@YAIAEBVPxGeometry@physx@@AEBVPxTransform@2@AEBVPxVec3@2@2MV?$PxFlags@W4Enum@PxHitFlag@physx@@G@2@IPEIAUPxRaycastHit@2@@Z 0000000180029150 f   GuRaycastTests.obj
 0001:00028cd0       ?raycast_triangleMesh@@YAIAEBVPxGeometry@physx@@AEBVPxTransform@2@AEBVPxVec3@2@2MV?$PxFlags@W4Enum@PxHitFlag@physx@@G@2@IPEIAUPxRaycastHit@2@@Z 0000000180029cd0 f   GuRaycastTests.obj
 0001:0002a010       ??Dphysx@@YA?AVMatrix34@Cm@0@AEBVPxMeshScale@0@AEBVPxTransform@0@@Z 000000018002b010 f i GuRaycastTests.obj
 0001:0002ab80       ?getRaycastFuncTable@Gu@physx@@YAAEAY06Q6AIAEBVPxGeometry@2@AEBVPxTransform@2@AEBVPxVec3@2@2MV?$PxFlags@W4Enum@PxHitFlag@physx@@G@2@IPEIAUPxRaycastHit@2@@ZXZ 000000018002bb80 f   GuRaycastTests.obj
 0001:0002ab90       ?raycast_heightField@@YAIAEBVPxGeometry@physx@@AEBVPxTransform@2@AEBVPxVec3@2@2MV?$PxFlags@W4Enum@PxHitFlag@physx@@G@2@IPEIAUPxRaycastHit@2@@Z 000000018002bb90 f   GuRaycastTests.obj
 0001:0002b2b0       ?registerHeightFields_Raycasts@@YAXXZ 000000018002c2b0 f   GuRaycastTests.obj
 0001:0002b2c0       ?ReadHeader@Gu@physx@@YA_NEEEEAEAIAEA_NAEAVPxInputStream@2@@Z 000000018002c2c0 f   GuSerialize.obj
 0001:0002b420       ?ReadIndices@Gu@physx@@YAXGIPEAGAEAVPxInputStream@2@_N@Z 000000018002c420 f   GuSerialize.obj
 0001:0002b5d0       ?StoreIndices@Gu@physx@@YAXGIPEBGAEAVPxOutputStream@2@_N@Z 000000018002c5d0 f   GuSerialize.obj
 0001:0002b6c0       ?StoreIndices@Gu@physx@@YAXIIPEBIAEAVPxOutputStream@2@_N@Z 000000018002c6c0 f   GuSerialize.obj
 0001:0002b850       ?WriteHeader@Gu@physx@@YA_NEEEEI_NAEAVPxOutputStream@2@@Z 000000018002c850 f   GuSerialize.obj
 0001:0002b980       ?computeMaxIndex@physx@@YAGPEBGI@Z 000000018002c980 f   GuSerialize.obj
 0001:0002b9b0       ?computeMaxIndex@physx@@YAIPEBII@Z 000000018002c9b0 f   GuSerialize.obj
 0001:0002b9e0       ?readChunk@physx@@YAXAEAC000AEAVPxInputStream@1@@Z 000000018002c9e0 f   GuSerialize.obj
 0001:0002ba60       ?readDword@physx@@YAI_NAEAVPxInputStream@1@@Z 000000018002ca60 f   GuSerialize.obj
 0001:0002bac0       ?readFloat@physx@@YAM_NAEAVPxInputStream@1@@Z 000000018002cac0 f   GuSerialize.obj
 0001:0002bb20       ?readFloatBuffer@physx@@YA_NPEAMI_NAEAVPxInputStream@1@@Z 000000018002cb20 f   GuSerialize.obj
 0001:0002bba0       ?readHeader@physx@@YA_NCCCCAEAIAEA_NAEAVPxInputStream@1@@Z 000000018002cba0 f   GuSerialize.obj
 0001:0002bcf0       ?readIndices@physx@@YAXIIPEAIAEAVPxInputStream@1@_N@Z 000000018002ccf0 f   GuSerialize.obj
 0001:0002be20       ?readWord@physx@@YAG_NAEAVPxInputStream@1@@Z 000000018002ce20 f   GuSerialize.obj
 0001:0002be60       ?readWordBuffer@physx@@YAXPEAGI_NAEAVPxInputStream@1@@Z 000000018002ce60 f   GuSerialize.obj
 0001:0002bed0       ?storeIndices@physx@@YAXIIPEBIAEAVPxOutputStream@1@_N@Z 000000018002ced0 f   GuSerialize.obj
 0001:0002bff0       ?writeDword@physx@@YAXI_NAEAVPxOutputStream@1@@Z 000000018002cff0 f   GuSerialize.obj
 0001:0002c040       ?writeFloat@physx@@YAXM_NAEAVPxOutputStream@1@@Z 000000018002d040 f   GuSerialize.obj
 0001:0002c090       ?writeFloatBuffer@physx@@YAXPEBMI_NAEAVPxOutputStream@1@@Z 000000018002d090 f   GuSerialize.obj
 0001:0002c130       ?writeHeader@physx@@YA_NCCCCI_NAEAVPxOutputStream@1@@Z 000000018002d130 f   GuSerialize.obj
 0001:0002c260       ?writeWord@physx@@YAXG_NAEAVPxOutputStream@1@@Z 000000018002d260 f   GuSerialize.obj
 0001:0002c2a0       ?writeWordBuffer@physx@@YAXPEBGI_NAEAVPxOutputStream@1@@Z 000000018002d2a0 f   GuSerialize.obj
 0001:0002c320       ??Dphysx@@YA?AVMatrix34@Cm@0@AEBVPxTransform@0@AEBVPxMeshScale@0@@Z 000000018002d320 f i GuSweepMTD.obj
 0001:0002c8c0       ??_E?$MeshHitCallback@UPxRaycastHit@physx@@@Gu@physx@@UEAAPEAXI@Z 000000018002d8c0 f i GuSweepMTD.obj
 0001:0002c8c0       ??_G?$MeshHitCallback@UPxRaycastHit@physx@@@Gu@physx@@UEAAPEAXI@Z 000000018002d8c0 f i GuSweepMTD.obj
 0001:0002c8f0       ??_EMeshMTDGenerationCallback@@UEAAPEAXI@Z 000000018002d8f0 f i GuSweepMTD.obj
 0001:0002c8f0       ??_GMeshMTDGenerationCallback@@UEAAPEAXI@Z 000000018002d8f0 f i GuSweepMTD.obj
 0001:0002c920       ??_EMidPhaseQueryLocalReport@@UEAAPEAXI@Z 000000018002d920 f i GuSweepMTD.obj
 0001:0002c920       ??_GMidPhaseQueryLocalReport@@UEAAPEAXI@Z 000000018002d920 f i GuSweepMTD.obj
 0001:0002c950       ?allocate@?$ReflectionAllocator@I@shdfnd@physx@@QEAAPEAX_KPEBDH@Z 000000018002d950 f i GuSweepMTD.obj
 0001:0002c9f0       ?computeBox_HeightFieldMTD@Gu@physx@@YA_NAEBVPxHeightFieldGeometry@2@AEBVPxTransform@2@AEBVBox@12@1M_NIAEAUPxSweepHit@2@@Z 000000018002d9f0 f   GuSweepMTD.obj
 0001:0002d810       ?computeBox_TriangleMeshMTD@Gu@physx@@YA_NAEBVPxTriangleMeshGeometry@2@AEBVPxTransform@2@AEBVBox@12@1M_NAEAUPxSweepHit@2@@Z 000000018002e810 f   GuSweepMTD.obj
 0001:0002e3d0       ?computeCapsule_CapsuleMTD@Gu@physx@@YA_NAEBVCapsule@12@0AEAUPxSweepHit@2@@Z 000000018002f3d0 f   GuSweepMTD.obj
 0001:0002e600       ?computeCapsule_HeightFieldMTD@Gu@physx@@YA_NAEBVPxHeightFieldGeometry@2@AEBVPxTransform@2@AEAVCapsuleV@12@M_NIAEAUPxSweepHit@2@@Z 000000018002f600 f   GuSweepMTD.obj
 0001:0002ee30       ?computeCapsule_TriangleMeshMTD@Gu@physx@@YA_NAEBVPxTriangleMeshGeometry@2@AEBVPxTransform@2@AEAVCapsuleV@12@M_NAEAUPxSweepHit@2@@Z 000000018002fe30 f   GuSweepMTD.obj
 0001:0002f6c0       ?computeConvex_HeightFieldMTD@Gu@physx@@YA_NAEBVPxHeightFieldGeometry@2@AEBVPxTransform@2@AEBVPxConvexMeshGeometry@2@1M_NIAEAUPxSweepHit@2@@Z 00000001800306c0 f   GuSweepMTD.obj
 0001:00030a20       ?computeConvex_TriangleMeshMTD@Gu@physx@@YA_NAEBVPxTriangleMeshGeometry@2@AEBVPxTransform@2@AEBVPxConvexMeshGeometry@2@1M_NAEAUPxSweepHit@2@@Z 0000000180031a20 f   GuSweepMTD.obj
 0001:00031c50       ?computePlane_BoxMTD@Gu@physx@@YA_NAEBVPxPlane@2@AEBVBox@12@AEAUPxSweepHit@2@@Z 0000000180032c50 f   GuSweepMTD.obj
 0001:00031ee0       ?computePlane_CapsuleMTD@Gu@physx@@YA_NAEBVPxPlane@2@AEBVCapsule@12@AEAUPxSweepHit@2@@Z 0000000180032ee0 f   GuSweepMTD.obj
 0001:00032020       ?computePlane_ConvexMTD@Gu@physx@@YA_NAEBVPxPlane@2@AEBVPxConvexMeshGeometry@2@AEBVPxTransform@2@AEAUPxSweepHit@2@@Z 0000000180033020 f   GuSweepMTD.obj
 0001:00032540       ?computeSphere_CapsuleMTD@Gu@physx@@YA_NAEBVSphere@12@AEBVCapsule@12@AEAUPxSweepHit@2@@Z 0000000180033540 f   GuSweepMTD.obj
 0001:000326f0       ?computeSphere_SphereMTD@Gu@physx@@YA_NAEBVSphere@12@0AEAUPxSweepHit@2@@Z 00000001800336f0 f   GuSweepMTD.obj
 0001:000327e0       ?getInverse@PxMat33@physx@@QEBA?BV12@XZ 00000001800337e0 f i GuSweepMTD.obj
 0001:00032a20       ?growAndPushBack@?$Array@IV?$ReflectionAllocator@I@shdfnd@physx@@@shdfnd@physx@@IEAAAEAIAEBI@Z 0000000180033a20 f i GuSweepMTD.obj
 0001:00032b00       ?init@FastVertex2ShapeScaling@Cm@physx@@QEAAXAEBVPxVec3@3@AEBVPxQuat@3@@Z 0000000180033b00 f i GuSweepMTD.obj
 0001:00032ef0       ?onEvent@MidPhaseQueryLocalReport@@UEAA_NIPEAI@Z 0000000180033ef0 f i GuSweepMTD.obj
 0001:00032f60       ?processHit@MeshMTDGenerationCallback@@UEAA_NAEBUPxRaycastHit@physx@@AEBVPxVec3@3@11AEAMPEBI@Z 0000000180033f60 f i GuSweepMTD.obj
 0001:00032fb0       ?recreate@?$Array@IV?$ReflectionAllocator@I@shdfnd@physx@@@shdfnd@physx@@IEAAXI@Z 0000000180033fb0 f i GuSweepMTD.obj
 0001:00033070       ??$gjkPenetration@U?$LocalConvex@VCapsuleV@Gu@physx@@@Gu@physx@@U?$LocalConvex@VConvexHullV@Gu@physx@@@23@@Gu@physx@@YA?AW4GjkStatus@01@AEBU?$LocalConvex@VCapsuleV@Gu@physx@@@01@AEBU?$LocalConvex@VConvexHullV@Gu@physx@@@01@AEBT__m128@@2_NPEIAE4AEAEAEAUGjkOutput@01@@Z 0000000180034070 f i GuSweepSharedTests.obj
 0001:00034c10       ??$gjkPenetration@U?$RelativeConvex@VBoxV@Gu@physx@@@Gu@physx@@U?$LocalConvex@VConvexHullV@Gu@physx@@@23@@Gu@physx@@YA?AW4GjkStatus@01@AEBU?$RelativeConvex@VBoxV@Gu@physx@@@01@AEBU?$LocalConvex@VConvexHullV@Gu@physx@@@01@AEBT__m128@@2_NPEIAE4AEAEAEAUGjkOutput@01@@Z 0000000180035c10 f i GuSweepSharedTests.obj
 0001:00036810       ??$gjkPenetration@U?$RelativeConvex@VConvexHullV@Gu@physx@@@Gu@physx@@U?$LocalConvex@VConvexHullV@Gu@physx@@@23@@Gu@physx@@YA?AW4GjkStatus@01@AEBU?$RelativeConvex@VConvexHullV@Gu@physx@@@01@AEBU?$LocalConvex@VConvexHullV@Gu@physx@@@01@AEBT__m128@@2_NPEIAE4AEAEAEAUGjkOutput@01@@Z 0000000180037810 f i GuSweepSharedTests.obj
 0001:00038470       ??$gjkRaycast@U?$LocalConvex@VCapsuleV@Gu@physx@@@Gu@physx@@U?$LocalConvex@VConvexHullV@Gu@physx@@@23@@Gu@physx@@YA_NAEBU?$LocalConvex@VCapsuleV@Gu@physx@@@01@AEBU?$LocalConvex@VConvexHullV@Gu@physx@@@01@AEBT__m128@@222AEAT4@33M@Z 0000000180039470 f i GuSweepSharedTests.obj
 0001:000391f0       ??$gjkRaycast@U?$RelativeConvex@VBoxV@Gu@physx@@@Gu@physx@@U?$LocalConvex@VConvexHullV@Gu@physx@@@23@@Gu@physx@@YA_NAEBU?$RelativeConvex@VBoxV@Gu@physx@@@01@AEBU?$LocalConvex@VConvexHullV@Gu@physx@@@01@AEBT__m128@@222AEAT4@33M@Z 000000018003a1f0 f i GuSweepSharedTests.obj
 0001:00039fd0       ??$gjkRaycast@U?$RelativeConvex@VConvexHullV@Gu@physx@@@Gu@physx@@U?$LocalConvex@VConvexHullV@Gu@physx@@@23@@Gu@physx@@YA_NAEBU?$RelativeConvex@VConvexHullV@Gu@physx@@@01@AEBU?$LocalConvex@VConvexHullV@Gu@physx@@@01@AEBT__m128@@222AEAT4@33M@Z 000000018003afd0 f i GuSweepSharedTests.obj
 0001:0003ade0       ??$gjkRaycastPenetration@U?$LocalConvex@VCapsuleV@Gu@physx@@@Gu@physx@@U?$LocalConvex@VConvexHullV@Gu@physx@@@23@@Gu@physx@@YA_NAEBU?$LocalConvex@VCapsuleV@Gu@physx@@@01@AEBU?$LocalConvex@VConvexHullV@Gu@physx@@@01@AEBT__m128@@222AEAT4@33M_N@Z 000000018003bde0 f i GuSweepSharedTests.obj
 0001:0003b010       ??$gjkRaycastPenetration@U?$RelativeConvex@VBoxV@Gu@physx@@@Gu@physx@@U?$LocalConvex@VConvexHullV@Gu@physx@@@23@@Gu@physx@@YA_NAEBU?$RelativeConvex@VBoxV@Gu@physx@@@01@AEBU?$LocalConvex@VConvexHullV@Gu@physx@@@01@AEBT__m128@@222AEAT4@33M_N@Z 000000018003c010 f i GuSweepSharedTests.obj
 0001:0003b2a0       ??$gjkRaycastPenetration@U?$RelativeConvex@VConvexHullV@Gu@physx@@@Gu@physx@@U?$LocalConvex@VConvexHullV@Gu@physx@@@23@@Gu@physx@@YA_NAEBU?$RelativeConvex@VConvexHullV@Gu@physx@@@01@AEBU?$LocalConvex@VConvexHullV@Gu@physx@@@01@AEBT__m128@@222AEAT4@33M_N@Z 000000018003c2a0 f i GuSweepSharedTests.obj
 0001:0003b980       ?sweepBox_ConvexGeom@@YA_NAEBVPxGeometry@physx@@AEBVPxTransform@2@AEBVPxBoxGeometry@2@1AEBVBox@Gu@2@AEBVPxVec3@2@MAEAUPxSweepHit@2@V?$PxFlags@W4Enum@PxHitFlag@physx@@G@2@M@Z 000000018003c980 f   GuSweepSharedTests.obj
 0001:0003c570       ?sweepBox_PlaneGeom@@YA_NAEBVPxGeometry@physx@@AEBVPxTransform@2@AEBVPxBoxGeometry@2@1AEBVBox@Gu@2@AEBVPxVec3@2@MAEAUPxSweepHit@2@V?$PxFlags@W4Enum@PxHitFlag@physx@@G@2@M@Z 000000018003d570 f   GuSweepSharedTests.obj
 0001:0003c930       ?sweepCapsuleTriangles@Gu@physx@@YA_NIPEBVPxTriangle@2@_NAEBVPxCapsuleGeometry@2@AEBVPxTransform@2@AEBVPxVec3@2@MAEAUPxSweepHit@2@PEBIMV?$PxFlags@W4Enum@PxHitFlag@physx@@G@2@@Z 000000018003d930 f   GuSweepSharedTests.obj
 0001:0003cb30       ?sweepCapsule_CapsuleGeom@@YA_NAEBVPxGeometry@physx@@AEBVPxTransform@2@AEBVPxCapsuleGeometry@2@1AEBVCapsule@Gu@2@AEBVPxVec3@2@MAEAUPxSweepHit@2@V?$PxFlags@W4Enum@PxHitFlag@physx@@G@2@M@Z 000000018003db30 f   GuSweepSharedTests.obj
 0001:0003cd20       ?sweepCapsule_ConvexGeom@@YA_NAEBVPxGeometry@physx@@AEBVPxTransform@2@AEBVPxCapsuleGeometry@2@1AEBVCapsule@Gu@2@AEBVPxVec3@2@MAEAUPxSweepHit@2@V?$PxFlags@W4Enum@PxHitFlag@physx@@G@2@M@Z 000000018003dd20 f   GuSweepSharedTests.obj
 0001:0003d8c0       ?sweepCapsule_PlaneGeom@@YA_NAEBVPxGeometry@physx@@AEBVPxTransform@2@AEBVPxCapsuleGeometry@2@1AEBVCapsule@Gu@2@AEBVPxVec3@2@MAEAUPxSweepHit@2@V?$PxFlags@W4Enum@PxHitFlag@physx@@G@2@M@Z 000000018003e8c0 f   GuSweepSharedTests.obj
 0001:0003dba0       ?sweepCapsule_SphereGeom@@YA_NAEBVPxGeometry@physx@@AEBVPxTransform@2@AEBVPxCapsuleGeometry@2@1AEBVCapsule@Gu@2@AEBVPxVec3@2@MAEAUPxSweepHit@2@V?$PxFlags@W4Enum@PxHitFlag@physx@@G@2@M@Z 000000018003eba0 f   GuSweepSharedTests.obj
 0001:0003dd30       ?sweepConvex_BoxGeom@@YA_NAEBVPxGeometry@physx@@AEBVPxTransform@2@AEBVPxConvexMeshGeometry@2@1AEBVPxVec3@2@MAEAUPxSweepHit@2@V?$PxFlags@W4Enum@PxHitFlag@physx@@G@2@M@Z 000000018003ed30 f   GuSweepSharedTests.obj
 0001:0003df40       ?sweepConvex_CapsuleGeom@@YA_NAEBVPxGeometry@physx@@AEBVPxTransform@2@AEBVPxConvexMeshGeometry@2@1AEBVPxVec3@2@MAEAUPxSweepHit@2@V?$PxFlags@W4Enum@PxHitFlag@physx@@G@2@M@Z 000000018003ef40 f   GuSweepSharedTests.obj
 0001:0003e170       ?sweepConvex_ConvexGeom@@YA_NAEBVPxGeometry@physx@@AEBVPxTransform@2@AEBVPxConvexMeshGeometry@2@1AEBVPxVec3@2@MAEAUPxSweepHit@2@V?$PxFlags@W4Enum@PxHitFlag@physx@@G@2@M@Z 000000018003f170 f   GuSweepSharedTests.obj
 0001:0003f130       ?sweepConvex_PlaneGeom@@YA_NAEBVPxGeometry@physx@@AEBVPxTransform@2@AEBVPxConvexMeshGeometry@2@1AEBVPxVec3@2@MAEAUPxSweepHit@2@V?$PxFlags@W4Enum@PxHitFlag@physx@@G@2@M@Z 0000000180040130 f   GuSweepSharedTests.obj
 0001:0003f5c0       ?sweepConvex_SphereGeom@@YA_NAEBVPxGeometry@physx@@AEBVPxTransform@2@AEBVPxConvexMeshGeometry@2@1AEBVPxVec3@2@MAEAUPxSweepHit@2@V?$PxFlags@W4Enum@PxHitFlag@physx@@G@2@M@Z 00000001800405c0 f   GuSweepSharedTests.obj
 0001:0003fff0       ?sweepCapsule_BoxGeom@@YA_NAEBVPxGeometry@physx@@AEBVPxTransform@2@AEBVPxCapsuleGeometry@2@1AEBVCapsule@Gu@2@AEBVPxVec3@2@MAEAUPxSweepHit@2@V?$PxFlags@W4Enum@PxHitFlag@physx@@G@2@M@Z 0000000180040ff0 f   GuSweepTests.obj
 0001:00040880       ?sweepBox_SphereGeom@@YA_NAEBVPxGeometry@physx@@AEBVPxTransform@2@AEBVPxBoxGeometry@2@1AEBVBox@Gu@2@AEBVPxVec3@2@MAEAUPxSweepHit@2@V?$PxFlags@W4Enum@PxHitFlag@physx@@G@2@M@Z 0000000180041880 f   GuSweepTests.obj
 0001:00040eb0       ?sweepBox_CapsuleGeom@@YA_NAEBVPxGeometry@physx@@AEBVPxTransform@2@AEBVPxBoxGeometry@2@1AEBVBox@Gu@2@AEBVPxVec3@2@MAEAUPxSweepHit@2@V?$PxFlags@W4Enum@PxHitFlag@physx@@G@2@M@Z 0000000180041eb0 f   GuSweepTests.obj
 0001:00041740       ?sweepBox_BoxGeom@@YA_NAEBVPxGeometry@physx@@AEBVPxTransform@2@AEBVPxBoxGeometry@2@1AEBVBox@Gu@2@AEBVPxVec3@2@MAEAUPxSweepHit@2@V?$PxFlags@W4Enum@PxHitFlag@physx@@G@2@M@Z 0000000180042740 f   GuSweepTests.obj
 0001:00042060       ??$gjkPenetration@U?$LocalConvex@VCapsuleV@Gu@physx@@@Gu@physx@@U?$LocalConvex@VBoxV@Gu@physx@@@23@@Gu@physx@@YA?AW4GjkStatus@01@AEBU?$LocalConvex@VCapsuleV@Gu@physx@@@01@AEBU?$LocalConvex@VBoxV@Gu@physx@@@01@AEBT__m128@@2_NPEIAE4AEAEAEAUGjkOutput@01@@Z 0000000180043060 f i GuSweepTests.obj
 0001:00043b50       ??$gjkPenetration@U?$RelativeConvex@VBoxV@Gu@physx@@@Gu@physx@@U?$LocalConvex@VBoxV@Gu@physx@@@23@@Gu@physx@@YA?AW4GjkStatus@01@AEBU?$RelativeConvex@VBoxV@Gu@physx@@@01@AEBU?$LocalConvex@VBoxV@Gu@physx@@@01@AEBT__m128@@2_NPEIAE4AEAEAEAUGjkOutput@01@@Z 0000000180044b50 f i GuSweepTests.obj
 0001:00045690       ??$gjkRaycast@U?$LocalConvex@VCapsuleV@Gu@physx@@@Gu@physx@@U?$LocalConvex@VBoxV@Gu@physx@@@23@@Gu@physx@@YA_NAEBU?$LocalConvex@VCapsuleV@Gu@physx@@@01@AEBU?$LocalConvex@VBoxV@Gu@physx@@@01@AEBT__m128@@222AEAT4@33M@Z 0000000180046690 f i GuSweepTests.obj
 0001:00046280       ??$gjkRaycast@U?$LocalConvex@VTriangleV@Gu@physx@@@Gu@physx@@U?$LocalConvex@VBoxV@Gu@physx@@@23@@Gu@physx@@YA_NAEBU?$LocalConvex@VTriangleV@Gu@physx@@@01@AEBU?$LocalConvex@VBoxV@Gu@physx@@@01@AEBT__m128@@222AEAT4@33M@Z 0000000180047280 f i GuSweepTests.obj
 0001:00046f00       ??$gjkRaycast@U?$RelativeConvex@VBoxV@Gu@physx@@@Gu@physx@@U?$LocalConvex@VBoxV@Gu@physx@@@23@@Gu@physx@@YA_NAEBU?$RelativeConvex@VBoxV@Gu@physx@@@01@AEBU?$LocalConvex@VBoxV@Gu@physx@@@01@AEBT__m128@@222AEAT4@33M@Z 0000000180047f00 f i GuSweepTests.obj
 0001:00047b50       ?getSweepFuncTable@Gu@physx@@YAAEBUGeomSweepFuncs@12@XZ 0000000180048b50 f   GuSweepTests.obj
 0001:00047b60       ?getSweepMargin@?$LocalConvex@VTriangleV@Gu@physx@@@Gu@physx@@UEBA?AT__m128@@XZ 0000000180048b60 f i GuSweepTests.obj
 0001:00047b60       ?getSweepMargin@?$RelativeConvex@VTriangleV@Gu@physx@@@Gu@physx@@UEBA?AT__m128@@XZ 0000000180048b60 f i GuCCDSweepPrimitives.obj
 0001:00047b70       ?registerHeightFields_Sweeps@@YAXXZ 0000000180048b70 f   GuSweepTests.obj
 0001:00047bb0       ?support@?$LocalConvex@VBoxV@Gu@physx@@@Gu@physx@@UEBA?AT__m128@@AEBT4@@Z 0000000180048bb0 f i GuSweepTests.obj
 0001:00047be0       ?support@?$LocalConvex@VBoxV@Gu@physx@@@Gu@physx@@UEBA?AT__m128@@AEBT4@AEAH@Z 0000000180048be0 f i GuSweepTests.obj
 0001:00047c20       ?support@?$LocalConvex@VTriangleV@Gu@physx@@@Gu@physx@@UEBA?AT__m128@@AEBT4@@Z 0000000180048c20 f i GuSweepTests.obj
 0001:00047cb0       ?support@?$LocalConvex@VTriangleV@Gu@physx@@@Gu@physx@@UEBA?AT__m128@@AEBT4@AEAH@Z 0000000180048cb0 f i GuSweepTests.obj
 0001:00047d90       ?supportPoint@?$LocalConvex@VBoxV@Gu@physx@@@Gu@physx@@UEBA?AT__m128@@H@Z 0000000180048d90 f i GuSweepTests.obj
 0001:00047dd0       ?supportPoint@?$LocalConvex@VTriangleV@Gu@physx@@@Gu@physx@@UEBA?AT__m128@@H@Z 0000000180048dd0 f i GuSweepTests.obj
 0001:00047df0       ?sweepBoxTriangles@Gu@physx@@YA_NIPEBVPxTriangle@2@_NAEBVPxBoxGeometry@2@AEBVPxTransform@2@AEBVPxVec3@2@MAEAUPxSweepHit@2@PEBIMV?$PxFlags@W4Enum@PxHitFlag@physx@@G@2@@Z 0000000180048df0 f   GuSweepTests.obj
 0001:00048840       ??$?_UV?$ReflectionAllocator@VAABBTreeBuildNode@Gu@physx@@@shdfnd@physx@@@UserAllocated@shdfnd@physx@@SAPEAX_KV?$ReflectionAllocator@VAABBTreeBuildNode@Gu@physx@@@12@PEBDH@Z 0000000180049840 f i GuAABBTreeBuild.obj
 0001:000488e0       ??$copy@V?$ReflectionAllocator@USlab@NodeAllocator@Gu@physx@@@shdfnd@physx@@@?$Array@USlab@NodeAllocator@Gu@physx@@V?$ReflectionAllocator@USlab@NodeAllocator@Gu@physx@@@shdfnd@4@@shdfnd@physx@@IEAAXAEBV012@@Z 00000001800498e0 f i GuAABBTreeBuild.obj
 0001:00048960       ??0AABBTreeBuildNode@Gu@physx@@QEAA@AEBV012@@Z 0000000180049960 f i GuAABBTreeBuild.obj
 0001:00048960       ??4AABBTreeBuildNode@Gu@physx@@QEAAAEAV012@AEBV012@@Z 0000000180049960 f i GuAABBTreeBuild.obj
 0001:000489a0       ??0AABBTreeBuildParams@Gu@physx@@QEAA@IIPEBVPxBounds3@2@@Z 00000001800499a0 f i GuAABBTreeBuild.obj
 0001:000489c0       ??0BuildStats@Gu@physx@@QEAA@XZ 00000001800499c0 f i GuAABBTreeBuild.obj
 0001:000489d0       ??0NodeAllocator@Gu@physx@@QEAA@AEBV012@@Z 00000001800499d0 f i GuAABBTreeBuild.obj
 0001:00048a10       ??0NodeAllocator@Gu@physx@@QEAA@XZ 0000000180049a10 f   GuAABBTreeBuild.obj
 0001:00048a30       ??1AABBTreeBuildParams@Gu@physx@@QEAA@XZ 0000000180049a30 f i GuAABBTreeBuild.obj
 0001:00048a30       ?reset@AABBTreeBuildParams@Gu@physx@@QEAAXXZ 0000000180049a30 f i GuAABBTreeBuild.obj
 0001:00048aa0       ??1NodeAllocator@Gu@physx@@QEAA@XZ 0000000180049aa0 f   GuAABBTreeBuild.obj
 0001:00048af0       ??4AABBTreeBuildParams@Gu@physx@@QEAAAEAV012@AEBV012@@Z 0000000180049af0 f i GuAABBTreeBuild.obj
 0001:00048b10       ??4BuildStats@Gu@physx@@QEAAAEAU012@$$QEAU012@@Z 0000000180049b10 f i GuAABBTreeBuild.obj
 0001:00048b20       ??4BuildStats@Gu@physx@@QEAAAEAU012@AEBU012@@Z 0000000180049b20 f i GuAABBTreeBuild.obj
 0001:00048b30       ??4NodeAllocator@Gu@physx@@QEAAAEAV012@AEBV012@@Z 0000000180049b30 f i GuAABBTreeBuild.obj
 0001:00048be0       ??_FAABBTreeBuildParams@Gu@physx@@QEAAXXZ 0000000180049be0 f i GuAABBTreeBuild.obj
 0001:00048c00       ?_buildHierarchy@AABBTreeBuildNode@Gu@physx@@QEAAXAEAVAABBTreeBuildParams@23@AEAUBuildStats@23@AEAVNodeAllocator@23@QEAI@Z 0000000180049c00 f   GuAABBTreeBuild.obj
 0001:00048c90       ?allocate@?$Array@USlab@NodeAllocator@Gu@physx@@V?$ReflectionAllocator@USlab@NodeAllocator@Gu@physx@@@shdfnd@4@@shdfnd@physx@@IEAAPEAUSlab@NodeAllocator@Gu@3@I@Z 0000000180049c90 f i GuAABBTreeBuild.obj
 0001:00048d30       ?buildAABBTree@Gu@physx@@YA_NAEAVAABBTreeBuildParams@12@AEAVNodeAllocator@12@AEAUBuildStats@12@AEAPEAI@Z 0000000180049d30 f   GuAABBTreeBuild.obj
 0001:00048d90       ?getBiNode@NodeAllocator@Gu@physx@@QEAAPEAVAABBTreeBuildNode@23@XZ 0000000180049d90 f   GuAABBTreeBuild.obj
 0001:00048ed0       ?getNbPrimitives@AABBTreeBuildNode@Gu@physx@@QEBAIXZ 0000000180049ed0 f i GuAABBTreeBuild.obj
 0001:00048ed0       ?getNbRuntimePrimitives@AABBTreeBuildNode@Gu@physx@@QEBAIXZ 0000000180049ed0 f i GuAABBTreeBuild.obj
 0001:00048ed0       ?getNbTriangles@TriangleMesh@Gu@physx@@UEBAIXZ 0000000180049ed0 f i GuTriangleMesh.obj
 0001:00048ee0       ?getNeg@AABBTreeBuildNode@Gu@physx@@QEBAPEBV123@XZ 0000000180049ee0 f i GuAABBTreeBuild.obj
 0001:00048f00       ?getPrimitives@AABBTreeBuildNode@Gu@physx@@QEAAPEAIPEAI@Z 0000000180049f00 f i GuAABBTreeBuild.obj
 0001:00048f00       ?getPrimitives@AABBTreeBuildNode@Gu@physx@@QEBAPEBIPEBI@Z 0000000180049f00 f i GuAABBTreeBuild.obj
 0001:00048f10       ?growAndPushBack@?$Array@USlab@NodeAllocator@Gu@physx@@V?$ReflectionAllocator@USlab@NodeAllocator@Gu@physx@@@shdfnd@4@@shdfnd@physx@@IEAAAEAUSlab@NodeAllocator@Gu@3@AEBU4563@@Z 0000000180049f10 f i GuAABBTreeBuild.obj
 0001:00048fe0       ?increaseCount@BuildStats@Gu@physx@@QEAAXI@Z 0000000180049fe0 f i GuAABBTreeBuild.obj
 0001:00048ff0       ?init@NodeAllocator@Gu@physx@@QEAAXII@Z 0000000180049ff0 f   GuAABBTreeBuild.obj
 0001:00049100       ?initAABBTreeBuild@Gu@physx@@YA_NAEAVAABBTreeBuildParams@12@AEAVNodeAllocator@12@AEAUBuildStats@12@AEAPEAI@Z 000000018004a100 f   GuAABBTreeBuild.obj
 0001:00049310       ?isLeaf@AABBTreeBuildNode@Gu@physx@@QEBA_NXZ 000000018004a310 f i GuAABBTreeBuild.obj
 0001:00049320       ?recreate@?$Array@USlab@NodeAllocator@Gu@physx@@V?$ReflectionAllocator@USlab@NodeAllocator@Gu@physx@@@shdfnd@4@@shdfnd@physx@@IEAAXI@Z 000000018004a320 f i GuAABBTreeBuild.obj
 0001:000493d0       ?release@NodeAllocator@Gu@physx@@QEAAXXZ 000000018004a3d0 f   GuAABBTreeBuild.obj
 0001:00049480       ?reset@BuildStats@Gu@physx@@QEAAXXZ 000000018004a480 f i GuAABBTreeBuild.obj
 0001:00049490       ?resize@?$Array@USlab@NodeAllocator@Gu@physx@@V?$ReflectionAllocator@USlab@NodeAllocator@Gu@physx@@@shdfnd@4@@shdfnd@physx@@QEAAXIAEBUSlab@NodeAllocator@Gu@3@@Z 000000018004a490 f i GuAABBTreeBuild.obj
 0001:00049510       ?setCount@BuildStats@Gu@physx@@QEAAXI@Z 000000018004a510 f i GuAABBTreeBuild.obj
 0001:00049520       ?setNbRunTimePrimitives@AABBTreeBuildNode@Gu@physx@@QEAAXI@Z 000000018004a520 f i GuAABBTreeBuild.obj
 0001:00049690       ?subdivide@AABBTreeBuildNode@Gu@physx@@QEAAXAEBVAABBTreeBuildParams@23@AEAUBuildStats@23@AEAVNodeAllocator@23@QEAI@Z 000000018004a690 f   GuAABBTreeBuild.obj
 0001:00049870       ??0BVHStructure@Gu@physx@@QEAA@PEAVGuMeshFactory@2@@Z 000000018004a870 f   GuBVHStructure.obj
 0001:000498d0       ??0BVHStructure@Gu@physx@@QEAA@PEAVGuMeshFactory@2@AEAUBVHStructureData@12@@Z 000000018004a8d0 f   GuBVHStructure.obj
 0001:00049940       ??R?$AABBTreeOverlap@UAABBAABBTest@Gu@physx@@UBVHTree@23@UBVHNode@23@IUBVHCallback@23@@Gu@physx@@QEAA_NPEBIPEBVPxBounds3@2@AEBUBVHTree@12@AEBUAABBAABBTest@12@AEAUBVHCallback@12@@Z 000000018004a940 f i GuBVHStructure.obj
 0001:00049bd0       ??R?$AABBTreeRaycast@$00UBVHTree@Gu@physx@@UBVHNode@23@IUBVHCallback@23@@Gu@physx@@QEAA_NPEBIPEBVPxBounds3@2@AEBUBVHTree@12@AEBVPxVec3@2@3AEAM3AEAUBVHCallback@12@@Z 000000018004abd0 f i GuBVHStructure.obj
 0001:0004a290       ??R?$AABBTreeRaycast@$0A@UBVHTree@Gu@physx@@UBVHNode@23@IUBVHCallback@23@@Gu@physx@@QEAA_NPEBIPEBVPxBounds3@2@AEBUBVHTree@12@AEBVPxVec3@2@3AEAM3AEAUBVHCallback@12@@Z 000000018004b290 f i GuBVHStructure.obj
 0001:0004a8b4       ??_EBVHStructure@Gu@physx@@WBA@EAAPEAXI@Z 000000018004b8b4 f i GuBVHStructure.obj
 0001:0004a8c0       ??_EBVHStructure@Gu@physx@@UEAAPEAXI@Z 000000018004b8c0 f i GuBVHStructure.obj
 0001:0004a8c0       ??_GBVHStructure@Gu@physx@@UEAAPEAXI@Z 000000018004b8c0 f i GuBVHStructure.obj
 0001:0004a920       ??_ERefCountable@Cm@physx@@UEAAPEAXI@Z 000000018004b920 f i GuBVHStructure.obj
 0001:0004a920       ??_GRefCountable@Cm@physx@@UEAAPEAXI@Z 000000018004b920 f i GuBVHStructure.obj
 0001:0004a950       ?allocate@?$Array@PEBUBVHNode@Gu@physx@@V?$InlineAllocator@$0IAA@V?$ReflectionAllocator@PEBUBVHNode@Gu@physx@@@shdfnd@physx@@@shdfnd@3@@shdfnd@physx@@IEAAPEAPEBUBVHNode@Gu@3@I@Z 000000018004b950 f i GuBVHStructure.obj
 0001:0004aa10       ?createVolumes@BVHStructure@Gu@physx@@AEBAXXZ 000000018004ba10 f   GuBVHStructure.obj
 0001:0004aa90       ?getBounds@BVHStructure@Gu@physx@@UEBAPEBVPxBounds3@3@XZ 000000018004ba90 f i GuBVHStructure.obj
 0001:0004aa90       ?getTriangles@TriangleMesh@Gu@physx@@UEBAPEBXXZ 000000018004ba90 f i GuTriangleMesh.obj
 0001:0004aaa0       ?getConcreteTypeName@PxBVHStructure@physx@@UEBAPEBDXZ 000000018004baa0 f i GuBVHStructure.obj
 0001:0004aab0       ?getNbBounds@BVHStructure@Gu@physx@@UEBAIXZ 000000018004bab0 f i GuBVHStructure.obj
 0001:0004aac0       ?isKindOf@PxBVHStructure@physx@@MEBA_NPEBD@Z 000000018004bac0 f i GuBVHStructure.obj
 0001:0004ab00       ?load@BVHStructure@Gu@physx@@QEAA_NAEAVPxInputStream@3@@Z 000000018004bb00 f   GuBVHStructure.obj
 0001:0004acd0       ?onRefCountZero@BVHStructure@Gu@physx@@UEAAXXZ 000000018004bcd0 f   GuBVHStructure.obj
 0001:0004ae00       ?onRefCountZero@RefCountable@Cm@physx@@UEAAXXZ 000000018004be00 f i GuBVHStructure.obj
 0001:0004ae20       ?overlap@BVHStructure@Gu@physx@@UEBAIAEBVPxBounds3@3@IPEIAI@Z 000000018004be20 f   GuBVHStructure.obj
 0001:0004af50       ?raycast@BVHStructure@Gu@physx@@UEBAIAEBVPxVec3@3@0MIPEIAI@Z 000000018004bf50 f   GuBVHStructure.obj
 0001:0004b020       ?recreate@?$Array@PEBUBVHNode@Gu@physx@@V?$InlineAllocator@$0IAA@V?$ReflectionAllocator@PEBUBVHNode@Gu@physx@@@shdfnd@physx@@@shdfnd@3@@shdfnd@physx@@IEAAXI@Z 000000018004c020 f i GuBVHStructure.obj
 0001:0004b0e0       ?release@BVHStructure@Gu@physx@@UEAAXXZ 000000018004c0e0 f   GuBVHStructure.obj
 0001:0004b0e0       ?release@ConvexMesh@Gu@physx@@UEAAXXZ 000000018004c0e0 f   GuConvexMesh.obj
 0001:0004b0e0       ?release@HeightField@Gu@physx@@UEAAXXZ 000000018004c0e0 f   GuHeightField.obj
 0001:0004b0e0       ?release@TriangleMesh@Gu@physx@@UEAAXXZ 000000018004c0e0 f   GuTriangleMesh.obj
 0001:0004b110       ?resizeUninitialized@?$Array@PEBUBVHNode@Gu@physx@@V?$InlineAllocator@$0IAA@V?$ReflectionAllocator@PEBUBVHNode@Gu@physx@@@shdfnd@physx@@@shdfnd@3@@shdfnd@physx@@QEAAXI@Z 000000018004c110 f i GuBVHStructure.obj
 0001:0004b160       ?sweep@BVHStructure@Gu@physx@@UEBAIAEBVPxBounds3@3@AEBVPxVec3@3@MIPEIAI@Z 000000018004c160 f   GuBVHStructure.obj
 0001:0004b350       ?SweepAnyShapeHeightfield@Gu@physx@@YAMAEBUCCDShape@12@0AEBVPxTransform@2@111MAEAVPxVec3@2@2MAEAIM@Z 000000018004c350 f   GuCCDSweepConvexMesh.obj
 0001:0004c460       ?SweepAnyShapeMesh@Gu@physx@@YAMAEBUCCDShape@12@0AEBVPxTransform@2@111MAEAVPxVec3@2@2MAEAIM@Z 000000018004d460 f   GuCCDSweepConvexMesh.obj
 0001:0004db60       ?SweepEstimateAnyShapeHeightfield@Gu@physx@@YAMAEBUCCDShape@12@0AEBVPxTransform@2@111MM@Z 000000018004eb60 f   GuCCDSweepConvexMesh.obj
 0001:0004e3d0       ?SweepEstimateAnyShapeMesh@Gu@physx@@YAMAEBUCCDShape@12@0AEBVPxTransform@2@111MM@Z 000000018004f3d0 f   GuCCDSweepConvexMesh.obj
 0001:0004f180       ?growAndPushBack@?$Array@IV?$InlineAllocator@$0BAA@V?$ReflectionAllocator@I@shdfnd@physx@@@shdfnd@physx@@@shdfnd@physx@@IEAAAEAIAEBI@Z 0000000180050180 f i GuCCDSweepConvexMesh.obj
 0001:0004f8d0       ?recreate@?$Array@IV?$InlineAllocator@$0BAA@V?$ReflectionAllocator@I@shdfnd@physx@@@shdfnd@physx@@@shdfnd@physx@@IEAAXI@Z 00000001800508d0 f i GuCCDSweepConvexMesh.obj
 0001:0004f9c0       ?resize@?$Array@IV?$InlineAllocator@$0BAA@V?$ReflectionAllocator@I@shdfnd@physx@@@shdfnd@physx@@@shdfnd@physx@@QEAAXIAEBI@Z 00000001800509c0 f i GuCCDSweepConvexMesh.obj
 0001:0004fa90       ?resize@?$Array@IV?$ReflectionAllocator@I@shdfnd@physx@@@shdfnd@physx@@QEAAXIAEBI@Z 0000000180050a90 f i GuCCDSweepConvexMesh.obj
 0001:0004fb50       ?transformBoxOrthonormal@physx@@YA?AVBox@Gu@1@AEBV231@AEBVPxTransform@1@@Z 0000000180050b50 f i GuCCDSweepConvexMesh.obj
 0001:0004ffe0       ?supportPoint@?$RelativeConvex@VTriangleV@Gu@physx@@@Gu@physx@@UEBA?AT__m128@@H@Z 0000000180050fe0 f i GuCCDSweepPrimitives.obj
 0001:00050030       ?support@?$RelativeConvex@VTriangleV@Gu@physx@@@Gu@physx@@UEBA?AT__m128@@AEBT4@@Z 0000000180051030 f i GuCCDSweepPrimitives.obj
 0001:00050110       ?support@?$RelativeConvex@VTriangleV@Gu@physx@@@Gu@physx@@UEBA?AT__m128@@AEBT4@AEAH@Z 0000000180051110 f i GuCCDSweepPrimitives.obj
 0001:00050250       ?UnimplementedSweep@Gu@physx@@YAMAEBUCCDShape@12@0AEBVPxTransform@2@111MAEAVPxVec3@2@2MAEAIM@Z 0000000180051250 f   GuCCDSweepPrimitives.obj
 0001:00050260       ??$SweepGeomGeom@VCapsuleV@Gu@physx@@V123@@Gu@physx@@YAMAEBUCCDShape@01@0AEBVPxTransform@1@111MAEAVPxVec3@1@2MAEAIM@Z 0000000180051260 f i GuCCDSweepPrimitives.obj
 0001:00050390       ??$SweepGeomGeom@VCapsuleV@Gu@physx@@VBoxV@23@@Gu@physx@@YAMAEBUCCDShape@01@0AEBVPxTransform@1@111MAEAVPxVec3@1@2MAEAIM@Z 0000000180051390 f i GuCCDSweepPrimitives.obj
 0001:000504d0       ??$SweepGeomGeom@VCapsuleV@Gu@physx@@VConvexHullV@23@@Gu@physx@@YAMAEBUCCDShape@01@0AEBVPxTransform@1@111MAEAVPxVec3@1@2MAEAIM@Z 00000001800514d0 f i GuCCDSweepPrimitives.obj
 0001:00050a10       ??$SweepGeomGeom@VBoxV@Gu@physx@@V123@@Gu@physx@@YAMAEBUCCDShape@01@0AEBVPxTransform@1@111MAEAVPxVec3@1@2MAEAIM@Z 0000000180051a10 f i GuCCDSweepPrimitives.obj
 0001:00050b70       ??$SweepGeomGeom@VBoxV@Gu@physx@@VConvexHullV@23@@Gu@physx@@YAMAEBUCCDShape@01@0AEBVPxTransform@1@111MAEAVPxVec3@1@2MAEAIM@Z 0000000180051b70 f i GuCCDSweepPrimitives.obj
 0001:000510c0       ??$SweepGeomGeom@VConvexHullV@Gu@physx@@V123@@Gu@physx@@YAMAEBUCCDShape@01@0AEBVPxTransform@1@111MAEAVPxVec3@1@2MAEAIM@Z 00000001800520c0 f i GuCCDSweepPrimitives.obj
 0001:00051920       ?UnimplementedTriangleSweep@Gu@physx@@YAMAEBVGeometryUnion@12@0AEBVPxTransform@2@111MAEAVPxVec3@2@2AEBVFastVertex2ShapeScaling@Cm@2@AEAVTriangleV@12@M@Z 0000000180052920 f   GuCCDSweepPrimitives.obj
 0001:00051930       ??$SweepGeomTriangles@VCapsuleV@Gu@physx@@@Gu@physx@@YAMAEBVGeometryUnion@01@0AEBVPxTransform@1@111MAEAVPxVec3@1@2AEBVFastVertex2ShapeScaling@Cm@1@AEAVTriangleV@01@M@Z 0000000180052930 f i GuCCDSweepPrimitives.obj
 0001:00051a00       ??$SweepGeomTriangles@VBoxV@Gu@physx@@@Gu@physx@@YAMAEBVGeometryUnion@01@0AEBVPxTransform@1@111MAEAVPxVec3@1@2AEBVFastVertex2ShapeScaling@Cm@1@AEAVTriangleV@01@M@Z 0000000180052a00 f i GuCCDSweepPrimitives.obj
 0001:00051af0       ??$SweepGeomTriangles@VConvexHullV@Gu@physx@@@Gu@physx@@YAMAEBVGeometryUnion@01@0AEBVPxTransform@1@111MAEAVPxVec3@1@2AEBVFastVertex2ShapeScaling@Cm@1@AEAVTriangleV@01@M@Z 0000000180052af0 f i GuCCDSweepPrimitives.obj
 0001:00051fe0       ?supportPoint@?$RelativeConvex@VCapsuleV@Gu@physx@@@Gu@physx@@UEBA?AT__m128@@H@Z 0000000180052fe0 f i GuCCDSweepPrimitives.obj
 0001:00052040       ?support@?$RelativeConvex@VCapsuleV@Gu@physx@@@Gu@physx@@UEBA?AT__m128@@AEBT4@@Z 0000000180053040 f i GuCCDSweepPrimitives.obj
 0001:000520f0       ?support@?$RelativeConvex@VCapsuleV@Gu@physx@@@Gu@physx@@UEBA?AT__m128@@AEBT4@AEAH@Z 00000001800530f0 f i GuCCDSweepPrimitives.obj
 0001:00055f00       ??$gjkPenetration@U?$RelativeConvex@VCapsuleV@Gu@physx@@@Gu@physx@@U?$LocalConvex@VBoxV@Gu@physx@@@23@@Gu@physx@@YA?AW4GjkStatus@01@AEBU?$RelativeConvex@VCapsuleV@Gu@physx@@@01@AEBU?$LocalConvex@VBoxV@Gu@physx@@@01@AEBT__m128@@2_NPEIAE4AEAEAEAUGjkOutput@01@@Z 0000000180056f00 f i GuCCDSweepPrimitives.obj
 0001:00057a80       ??$gjkPenetration@U?$RelativeConvex@VCapsuleV@Gu@physx@@@Gu@physx@@U?$LocalConvex@VCapsuleV@Gu@physx@@@23@@Gu@physx@@YA?AW4GjkStatus@01@AEBU?$RelativeConvex@VCapsuleV@Gu@physx@@@01@AEBU?$LocalConvex@VCapsuleV@Gu@physx@@@01@AEBT__m128@@2_NPEIAE4AEAEAEAUGjkOutput@01@@Z 0000000180058a80 f i GuCCDSweepPrimitives.obj
 0001:000595f0       ??$gjkPenetration@U?$RelativeConvex@VCapsuleV@Gu@physx@@@Gu@physx@@U?$LocalConvex@VConvexHullV@Gu@physx@@@23@@Gu@physx@@YA?AW4GjkStatus@01@AEBU?$RelativeConvex@VCapsuleV@Gu@physx@@@01@AEBU?$LocalConvex@VConvexHullV@Gu@physx@@@01@AEBT__m128@@2_NPEIAE4AEAEAEAUGjkOutput@01@@Z 000000018005a5f0 f i GuCCDSweepPrimitives.obj
 0001:0005b220       ??$gjkPenetration@U?$RelativeConvex@VTriangleV@Gu@physx@@@Gu@physx@@U?$LocalConvex@VBoxV@Gu@physx@@@23@@Gu@physx@@YA?AW4GjkStatus@01@AEBU?$RelativeConvex@VTriangleV@Gu@physx@@@01@AEBU?$LocalConvex@VBoxV@Gu@physx@@@01@AEBT__m128@@2_NPEIAE4AEAEAEAUGjkOutput@01@@Z 000000018005c220 f i GuCCDSweepPrimitives.obj
 0001:0005cdd0       ??$gjkPenetration@U?$RelativeConvex@VTriangleV@Gu@physx@@@Gu@physx@@U?$LocalConvex@VCapsuleV@Gu@physx@@@23@@Gu@physx@@YA?AW4GjkStatus@01@AEBU?$RelativeConvex@VTriangleV@Gu@physx@@@01@AEBU?$LocalConvex@VCapsuleV@Gu@physx@@@01@AEBT__m128@@2_NPEIAE4AEAEAEAUGjkOutput@01@@Z 000000018005ddd0 f i GuCCDSweepPrimitives.obj
 0001:0005e990       ??$gjkPenetration@U?$RelativeConvex@VTriangleV@Gu@physx@@@Gu@physx@@U?$LocalConvex@VConvexHullV@Gu@physx@@@23@@Gu@physx@@YA?AW4GjkStatus@01@AEBU?$RelativeConvex@VTriangleV@Gu@physx@@@01@AEBU?$LocalConvex@VConvexHullV@Gu@physx@@@01@AEBT__m128@@2_NPEIAE4AEAEAEAUGjkOutput@01@@Z 000000018005f990 f i GuCCDSweepPrimitives.obj
 0001:00060600       ??$gjkRaycast@U?$RelativeConvex@VCapsuleV@Gu@physx@@@Gu@physx@@U?$LocalConvex@VBoxV@Gu@physx@@@23@@Gu@physx@@YA_NAEBU?$RelativeConvex@VCapsuleV@Gu@physx@@@01@AEBU?$LocalConvex@VBoxV@Gu@physx@@@01@AEBT__m128@@222AEAT4@33M@Z 0000000180061600 f i GuCCDSweepPrimitives.obj
 0001:00061290       ??$gjkRaycast@U?$RelativeConvex@VCapsuleV@Gu@physx@@@Gu@physx@@U?$LocalConvex@VCapsuleV@Gu@physx@@@23@@Gu@physx@@YA_NAEBU?$RelativeConvex@VCapsuleV@Gu@physx@@@01@AEBU?$LocalConvex@VCapsuleV@Gu@physx@@@01@AEBT__m128@@222AEAT4@33M@Z 0000000180062290 f i GuCCDSweepPrimitives.obj
 0001:00061fa0       ??$gjkRaycast@U?$RelativeConvex@VCapsuleV@Gu@physx@@@Gu@physx@@U?$LocalConvex@VConvexHullV@Gu@physx@@@23@@Gu@physx@@YA_NAEBU?$RelativeConvex@VCapsuleV@Gu@physx@@@01@AEBU?$LocalConvex@VConvexHullV@Gu@physx@@@01@AEBT__m128@@222AEAT4@33M@Z 0000000180062fa0 f i GuCCDSweepPrimitives.obj
 0001:00062dd0       ??$gjkRaycast@U?$RelativeConvex@VTriangleV@Gu@physx@@@Gu@physx@@U?$LocalConvex@VBoxV@Gu@physx@@@23@@Gu@physx@@YA_NAEBU?$RelativeConvex@VTriangleV@Gu@physx@@@01@AEBU?$LocalConvex@VBoxV@Gu@physx@@@01@AEBT__m128@@222AEAT4@33M@Z 0000000180063dd0 f i GuCCDSweepPrimitives.obj
 0001:00063b00       ??$gjkRaycast@U?$RelativeConvex@VTriangleV@Gu@physx@@@Gu@physx@@U?$LocalConvex@VCapsuleV@Gu@physx@@@23@@Gu@physx@@YA_NAEBU?$RelativeConvex@VTriangleV@Gu@physx@@@01@AEBU?$LocalConvex@VCapsuleV@Gu@physx@@@01@AEBT__m128@@222AEAT4@33M@Z 0000000180064b00 f i GuCCDSweepPrimitives.obj
 0001:000648c0       ??$gjkRaycast@U?$RelativeConvex@VTriangleV@Gu@physx@@@Gu@physx@@U?$LocalConvex@VConvexHullV@Gu@physx@@@23@@Gu@physx@@YA_NAEBU?$RelativeConvex@VTriangleV@Gu@physx@@@01@AEBU?$LocalConvex@VConvexHullV@Gu@physx@@@01@AEBT__m128@@222AEAT4@33M@Z 00000001800658c0 f i GuCCDSweepPrimitives.obj
 0001:00065780       ?SweepShapeShape@Gu@physx@@YAMAEBUCCDShape@12@0AEBVPxTransform@2@111MAEAVPxVec3@2@2MAEAIM@Z 0000000180066780 f   GuCCDSweepPrimitives.obj
 0001:000657b0       ?SweepShapeTriangle@Gu@physx@@YAMAEBVGeometryUnion@12@0AEBVPxTransform@2@111MAEAVPxVec3@2@2AEBVFastVertex2ShapeScaling@Cm@2@AEAVTriangleV@12@M@Z 00000001800667b0 f   GuCCDSweepPrimitives.obj
 0001:000657d0       ?barycentricCoordinates@Gu@physx@@YAXAEBT__m128@@000AEAT3@1@Z 00000001800667d0 f   GuBarycentricCoordinates.obj
 0001:00065920       ?barycentricCoordinates@Gu@physx@@YAXAEBT__m128@@00AEAT3@@Z 0000000180066920 f   GuBarycentricCoordinates.obj
 0001:00065990       ?addAxis@SeparatingAxes@Gu@physx@@QEAA_NAEBVPxVec3@3@@Z 0000000180066990 f   GuSeparatingAxes.obj
 0001:00065a50       ?contactBoxBox@Gu@physx@@YA_NAEBVGeometryUnion@12@0AEBVPxTransform@2@1AEBUNarrowPhaseParams@12@AEAUCache@12@AEAVContactBuffer@12@PEAVRenderOutput@Cm@2@@Z 0000000180066a50 f   GuContactBoxBox.obj
 0001:000697b0       ?contactCapsuleBox@Gu@physx@@YA_NAEBVGeometryUnion@12@0AEBVPxTransform@2@1AEBUNarrowPhaseParams@12@AEAUCache@12@AEAVContactBuffer@12@PEAVRenderOutput@Cm@2@@Z 000000018006a7b0 f   GuContactCapsuleBox.obj
 0001:00069fa0       ?contactCapsuleCapsule@Gu@physx@@YA_NAEBVGeometryUnion@12@0AEBVPxTransform@2@1AEBUNarrowPhaseParams@12@AEAUCache@12@AEAVContactBuffer@12@PEAVRenderOutput@Cm@2@@Z 000000018006afa0 f   GuContactCapsuleCapsule.obj
 0001:0006cab0       ?contactCapsuleConvex@Gu@physx@@YA_NAEBVGeometryUnion@12@0AEBVPxTransform@2@1AEBUNarrowPhaseParams@12@AEAUCache@12@AEAVContactBuffer@12@PEAVRenderOutput@Cm@2@@Z 000000018006dab0 f   GuContactCapsuleConvex.obj
 0001:0006efc0       ?contactCapsuleHeightfield@Gu@physx@@YA_NAEBVGeometryUnion@12@0AEBVPxTransform@2@1AEBUNarrowPhaseParams@12@AEAUCache@12@AEAVContactBuffer@12@PEAVRenderOutput@Cm@2@@Z 000000018006ffc0 f   GuContactCapsuleMesh.obj
 0001:0006f5e0       ?contactCapsuleMesh@Gu@physx@@YA_NAEBVGeometryUnion@12@0AEBVPxTransform@2@1AEBUNarrowPhaseParams@12@AEAUCache@12@AEAVContactBuffer@12@PEAVRenderOutput@Cm@2@@Z 00000001800705e0 f   GuContactCapsuleMesh.obj
 0001:000706e0       ?transformFast@PxBounds3@physx@@SA?AV12@AEBVPxTransform@2@AEBV12@@Z 00000001800716e0 f i GuContactCapsuleMesh.obj
 0001:00070ac0       ?transformQueryBounds@FastVertex2ShapeScaling@Cm@physx@@QEBAXAEAVPxVec3@3@0AEAVPxMat33@3@@Z 0000000180071ac0 f i GuContactCapsuleMesh.obj
 0001:00074eb0       ?contactBoxConvex@Gu@physx@@YA_NAEBVGeometryUnion@12@0AEBVPxTransform@2@1AEBUNarrowPhaseParams@12@AEAUCache@12@AEAVContactBuffer@12@PEAVRenderOutput@Cm@2@@Z 0000000180075eb0 f   GuContactConvexConvex.obj
 0001:00075040       ?contactConvexConvex@Gu@physx@@YA_NAEBVGeometryUnion@12@0AEBVPxTransform@2@1AEBUNarrowPhaseParams@12@AEAUCache@12@AEAVContactBuffer@12@PEAVRenderOutput@Cm@2@@Z 0000000180076040 f   GuContactConvexConvex.obj
 0001:00075470       ?transformPlaneToShapeSpace@FastVertex2ShapeScaling@Cm@physx@@QEBAXAEBVPxVec3@3@MAEAV43@AEAM@Z 0000000180076470 f i GuContactConvexConvex.obj
 0001:00075570       ??0?$CacheMap@UCachedEdge@Gu@physx@@$0IA@@Gu@physx@@QEAA@XZ 0000000180076570 f i GuContactConvexMesh.obj
 0001:00075630       ??0?$CacheMap@UCachedVertex@Gu@physx@@$0IA@@Gu@physx@@QEAA@XZ 0000000180076630 f i GuContactConvexMesh.obj
 0001:00075c00       ??_EConvexMeshContactGenerationCallback@@UEAAPEAXI@Z 0000000180076c00 f i GuContactConvexMesh.obj
 0001:00075c00       ??_GConvexMeshContactGenerationCallback@@UEAAPEAXI@Z 0000000180076c00 f i GuContactConvexMesh.obj
 0001:00075c60       ?addData@?$CacheMap@UCachedEdge@Gu@physx@@$0IA@@Gu@physx@@QEAA_NAEBUCachedEdge@23@@Z 0000000180076c60 f i GuContactConvexMesh.obj
 0001:00075d40       ?addData@?$CacheMap@UCachedVertex@Gu@physx@@$0IA@@Gu@physx@@QEAA_NAEBUCachedVertex@23@@Z 0000000180076d40 f i GuContactConvexMesh.obj
 0001:00076120       ?contactBoxHeightfield@Gu@physx@@YA_NAEBVGeometryUnion@12@0AEBVPxTransform@2@1AEBUNarrowPhaseParams@12@AEAUCache@12@AEAVContactBuffer@12@PEAVRenderOutput@Cm@2@@Z 0000000180077120 f   GuContactConvexMesh.obj
 0001:00076280       ?contactBoxMesh@Gu@physx@@YA_NAEBVGeometryUnion@12@0AEBVPxTransform@2@1AEBUNarrowPhaseParams@12@AEAUCache@12@AEAVContactBuffer@12@PEAVRenderOutput@Cm@2@@Z 0000000180077280 f   GuContactConvexMesh.obj
 0001:00076430       ?contactConvexHeightfield@Gu@physx@@YA_NAEBVGeometryUnion@12@0AEBVPxTransform@2@1AEBUNarrowPhaseParams@12@AEAUCache@12@AEAVContactBuffer@12@PEAVRenderOutput@Cm@2@@Z 0000000180077430 f   GuContactConvexMesh.obj
 0001:00076560       ?contactConvexMesh@Gu@physx@@YA_NAEBVGeometryUnion@12@0AEBVPxTransform@2@1AEBUNarrowPhaseParams@12@AEAUCache@12@AEAVContactBuffer@12@PEAVRenderOutput@Cm@2@@Z 0000000180077560 f   GuContactConvexMesh.obj
 0001:000775b0       ?contains@?$CacheMap@UCachedEdge@Gu@physx@@$0IA@@Gu@physx@@QEBA_NAEBUCachedEdge@23@@Z 00000001800785b0 f i GuContactConvexMesh.obj
 0001:00079d30       ?processHit@ConvexMeshContactGenerationCallback@@UEAA_NAEBUPxRaycastHit@physx@@AEBVPxVec3@3@11AEAMPEBI@Z 000000018007ad30 f i GuContactConvexMesh.obj
 0001:0007a5d0       ?recreate@?$Array@IV?$InlineAllocator@$0BBAA@V?$ReflectionAllocator@I@shdfnd@physx@@@shdfnd@physx@@@shdfnd@physx@@IEAAXI@Z 000000018007b5d0 f i GuContactConvexMesh.obj
 0001:0007b680       ?contactPlaneBox@Gu@physx@@YA_NAEBVGeometryUnion@12@0AEBVPxTransform@2@1AEBUNarrowPhaseParams@12@AEAUCache@12@AEAVContactBuffer@12@PEAVRenderOutput@Cm@2@@Z 000000018007c680 f   GuContactPlaneBox.obj
 0001:0007c2d0       ?contactPlaneCapsule@Gu@physx@@YA_NAEBVGeometryUnion@12@0AEBVPxTransform@2@1AEBUNarrowPhaseParams@12@AEAUCache@12@AEAVContactBuffer@12@PEAVRenderOutput@Cm@2@@Z 000000018007d2d0 f   GuContactPlaneCapsule.obj
 0001:0007c8c0       ?contactPlaneConvex@Gu@physx@@YA_NAEBVGeometryUnion@12@0AEBVPxTransform@2@1AEBUNarrowPhaseParams@12@AEAUCache@12@AEAVContactBuffer@12@PEAVRenderOutput@Cm@2@@Z 000000018007d8c0 f   GuContactPlaneConvex.obj
 0001:0007e6e0       ?contactPolygonPolygonExt@Gu@physx@@YA_NIPEBVPxVec3@2@PEBEAEBVMatrix34@Cm@2@AEBVPxPlane@2@AEBVPxMat33@2@I01234AEBV32@22IIAEAVContactBuffer@12@_N5M@Z 000000018007f6e0 f   GuContactPolygonPolygon.obj
 0001:0007fe60       ?findRotationMatrixFromZ@Gu@physx@@YA?AVPxMat33@2@AEBVPxVec3@2@@Z 0000000180080e60 f   GuContactPolygonPolygon.obj
 0001:000808a0       ?contactSphereBox@Gu@physx@@YA_NAEBVGeometryUnion@12@0AEBVPxTransform@2@1AEBUNarrowPhaseParams@12@AEAUCache@12@AEAVContactBuffer@12@PEAVRenderOutput@Cm@2@@Z 00000001800818a0 f   GuContactSphereBox.obj
 0001:00080e20       ?contactSphereCapsule@Gu@physx@@YA_NAEBVGeometryUnion@12@0AEBVPxTransform@2@1AEBUNarrowPhaseParams@12@AEAUCache@12@AEAVContactBuffer@12@PEAVRenderOutput@Cm@2@@Z 0000000180081e20 f   GuContactSphereCapsule.obj
 0001:00081c10       ?contactSphereHeightfield@Gu@physx@@YA_NAEBVGeometryUnion@12@0AEBVPxTransform@2@1AEBUNarrowPhaseParams@12@AEAUCache@12@AEAVContactBuffer@12@PEAVRenderOutput@Cm@2@@Z 0000000180082c10 f   GuContactSphereMesh.obj
 0001:00081ec0       ?contactSphereMesh@Gu@physx@@YA_NAEBVGeometryUnion@12@0AEBVPxTransform@2@1AEBUNarrowPhaseParams@12@AEAUCache@12@AEAVContactBuffer@12@PEAVRenderOutput@Cm@2@@Z 0000000180082ec0 f   GuContactSphereMesh.obj
 0001:00083430       ?contactSpherePlane@Gu@physx@@YA_NAEBVGeometryUnion@12@0AEBVPxTransform@2@1AEBUNarrowPhaseParams@12@AEAUCache@12@AEAVContactBuffer@12@PEAVRenderOutput@Cm@2@@Z 0000000180084430 f   GuContactSpherePlane.obj
 0001:00083630       ?contactSphereSphere@Gu@physx@@YA_NAEBVGeometryUnion@12@0AEBVPxTransform@2@1AEBUNarrowPhaseParams@12@AEAUCache@12@AEAVContactBuffer@12@PEAVRenderOutput@Cm@2@@Z 0000000180084630 f   GuContactSphereSphere.obj
 0001:000837f0       ?selectNormal@Gu@physx@@YA_NEMM@Z 00000001800847f0 f   GuFeatureCode.obj
 0001:00083870       ??0BigConvexData@physx@@QEAA@XZ 0000000180084870 f   GuBigConvexData.obj
 0001:00083890       ??1BigConvexData@physx@@QEAA@XZ 0000000180084890 f   GuBigConvexData.obj
 0001:00083920       ?ComputeNearestOffset@BigConvexData@physx@@QEBAIAEBVPxVec3@2@@Z 0000000180084920 f   GuBigConvexData.obj
 0001:00083a30       ?ComputeOffset@BigConvexData@physx@@QEBAIAEBVPxVec3@2@@Z 0000000180084a30 f   GuBigConvexData.obj
 0001:00083b30       ?CreateOffsets@BigConvexData@physx@@IEAAXXZ 0000000180084b30 f   GuBigConvexData.obj
 0001:00083b80       ?Load@BigConvexData@physx@@QEAA_NAEAVPxInputStream@2@@Z 0000000180084b80 f   GuBigConvexData.obj
 0001:00083ca0       ?VLoad@BigConvexData@physx@@IEAA_NAEAVPxInputStream@2@@Z 0000000180084ca0 f   GuBigConvexData.obj
 0001:00083e40       ?exportExtraData@BigConvexData@physx@@QEAAXAEAVPxSerializationContext@2@@Z 0000000180084e40 f   GuBigConvexData.obj
 0001:00083ec0       ?importExtraData@BigConvexData@physx@@QEAAXAEAVPxDeserializationContext@2@@Z 0000000180084ec0 f   GuBigConvexData.obj
 0001:00083f30       ?findUniqueConvexEdges@Gu@physx@@YAIIPEIAUConvexEdge@12@IPEIBUHullPolygonData@12@PEIBE@Z 0000000180084f30 f   GuConvexHelper.obj
 0001:00084070       ?getConvexData@Gu@physx@@YA_NAEBVGeometryUnion@12@AEAVFastVertex2ShapeScaling@Cm@2@AEAVPxBounds3@2@AEAUPolygonalData@12@@Z 0000000180085070 f   GuConvexHelper.obj
 0001:00084290       ?getScaledConvex@Gu@physx@@YAXAEAPEAVPxVec3@2@AEAPEAEPEAV32@PEAE_NPEBV32@PEBEIAEBVFastVertex2ShapeScaling@Cm@2@@Z 0000000180085290 f   GuConvexHelper.obj
 0001:000843c0       ??0ConvexMesh@Gu@physx@@QEAA@AEAVGuMeshFactory@2@AEAUConvexHullInitData@12@@Z 00000001800853c0 f   GuConvexMesh.obj
 0001:000844f0       ??0ConvexMesh@Gu@physx@@QEAA@XZ 00000001800854f0 f   GuConvexMesh.obj
 0001:00084590       ??1ConvexMesh@Gu@physx@@UEAA@XZ 0000000180085590 f   GuConvexMesh.obj
 0001:00084630       ??_EConvexMesh@Gu@physx@@UEAAPEAXI@Z 0000000180085630 f i GuConvexMesh.obj
 0001:00084744       ??_EConvexMesh@Gu@physx@@WBA@EAAPEAXI@Z 0000000180085744 f i GuConvexMesh.obj
 0001:00084750       ??_EPxConvexMesh@physx@@MEAAPEAXI@Z 0000000180085750 f i GuConvexMesh.obj
 0001:00084750       ??_EPxHeightField@physx@@MEAAPEAXI@Z 0000000180085750 f i GuHeightField.obj
 0001:000847e0       ?acquireReference@ConvexMesh@Gu@physx@@UEAAXXZ 00000001800857e0 f   GuConvexMesh.obj
 0001:000847e0       ?acquireReference@HeightField@Gu@physx@@UEAAXXZ 00000001800857e0 f   GuHeightField.obj
 0001:000847e0       ?acquireReference@TriangleMesh@Gu@physx@@UEAAXXZ 00000001800857e0 f   GuTriangleMesh.obj
 0001:00084ca0       ?createObject@ConvexMesh@Gu@physx@@SAPEAV123@AEAPEAEAEAVPxDeserializationContext@3@@Z 0000000180085ca0 f   GuConvexMesh.obj
 0001:00084cf0       ?exportExtraData@ConvexMesh@Gu@physx@@UEAAXAEAVPxSerializationContext@3@@Z 0000000180085cf0 f   GuConvexMesh.obj
 0001:00084db0       ?getLocalBounds@ConvexMesh@Gu@physx@@UEBA?AVPxBounds3@3@XZ 0000000180085db0 f   GuConvexMesh.obj
 0001:00084e30       ?getMassInformation@ConvexMesh@Gu@physx@@UEBAXAEAMAEAVPxMat33@3@AEAVPxVec3@3@@Z 0000000180085e30 f   GuConvexMesh.obj
 0001:00084ea0       ?getPolygonData@ConvexMesh@Gu@physx@@UEBA_NIAEAUPxHullPolygon@3@@Z 0000000180085ea0 f   GuConvexMesh.obj
 0001:00084ef0       ?getReferenceCount@ConvexMesh@Gu@physx@@UEBAIXZ 0000000180085ef0 f   GuConvexMesh.obj
 0001:00084ef0       ?getReferenceCount@HeightField@Gu@physx@@UEBAIXZ 0000000180085ef0 f   GuHeightField.obj
 0001:00084ef0       ?getReferenceCount@TriangleMesh@Gu@physx@@UEBAIXZ 0000000180085ef0 f   GuTriangleMesh.obj
 0001:00084ef0       ?raw_length@pairNode@@UEBAHXZ 0000000180085ef0 f   libvcruntime:undname.obj
 0001:00084f00       ?importExtraData@ConvexMesh@Gu@physx@@QEAAXAEAVPxDeserializationContext@3@@Z 0000000180085f00 f   GuConvexMesh.obj
 0001:00084fb0       ?isGpuCompatible@ConvexMesh@Gu@physx@@UEBA_NXZ 0000000180085fb0 f   GuConvexMesh.obj
 0001:00084fd0       ?load@ConvexMesh@Gu@physx@@QEAA_NAEAVPxInputStream@3@@Z 0000000180085fd0 f   GuConvexMesh.obj
 0001:00085280       ?onRefCountZero@ConvexMesh@Gu@physx@@UEAAXXZ 0000000180086280 f   GuConvexMesh.obj
 0001:00085370       ??Dphysx@@YA?AVMatrix34@Cm@0@AEBVPxMeshScale@0@AEBV120@@Z 0000000180086370 f i GuConvexUtilsInternal.obj
 0001:00085920       ?computeHullOBB@Gu@physx@@YAXAEAVBox@12@AEBVPxBounds3@2@MAEBVMatrix34@Cm@2@2AEBVFastVertex2ShapeScaling@62@_N@Z 0000000180086920 f   GuConvexUtilsInternal.obj
 0001:00085db0       ?computeOBBAroundConvex@Gu@physx@@YAXAEAVBox@12@AEBVPxConvexMeshGeometry@2@PEBVPxConvexMesh@2@AEBVPxTransform@2@@Z 0000000180086db0 f   GuConvexUtilsInternal.obj
 0001:00086620       ?computeVertexSpaceOBB@Gu@physx@@YAXAEAVBox@12@AEBV312@AEBVPxTransform@2@AEBVPxMeshScale@2@@Z 0000000180087620 f   GuConvexUtilsInternal.obj
 0001:000869d0       ?transform@physx@@YA?AVBox@Gu@1@AEBVMatrix34@Cm@1@AEBV231@@Z 00000001800879d0 f i GuConvexUtilsInternal.obj
 0001:00086c20       ?localSearch@physx@@YAXAEAIAEBVPxVec3@1@PEBV21@PEBUBigConvexRawData@Gu@1@@Z 0000000180087c20 f   GuHillClimbing.obj
 0001:00086d40       ??0PCMPolygonalBox@Gu@physx@@QEAA@AEBVPxVec3@2@@Z 0000000180087d40 f   GuPCMShapeConvex.obj
 0001:00086d40       ??0PolygonalBox@Gu@physx@@QEAA@AEBVPxVec3@2@@Z 0000000180087d40 f   GuShapeConvex.obj
 0001:000880a0       ?getPolygonalData@PolygonalBox@Gu@physx@@QEBAXPEIAUPolygonalData@23@@Z 00000001800890a0 f   GuShapeConvex.obj
 0001:00088100       ?getPolygonalData_Convex@Gu@physx@@YAXPEIAUPolygonalData@12@PEIBUConvexHullData@12@AEBVFastVertex2ShapeScaling@Cm@2@@Z 0000000180089100 f   GuShapeConvex.obj
 0001:00088260       ?distancePointBoxSquared@Gu@physx@@YAMAEBVPxVec3@2@00AEBVPxMat33@2@PEAV32@@Z 0000000180089260 f   GuDistancePointBox.obj
 0001:000883b0       ?closestPtPointTriangle@Gu@physx@@YA?AVPxVec3@2@AEBV32@000AEAM1@Z 00000001800893b0 f   GuDistancePointTriangle.obj
 0001:000888e0       ?distancePointTriangleSquared@Gu@physx@@YA?AT__m128@@AEBT3@000AEAT3@11@Z 00000001800898e0 f   GuDistancePointTriangle.obj
 0001:00089650       ?distanceSegmentBoxSquared@Gu@physx@@YAMAEBVPxVec3@2@000AEBVPxMat33@2@PEAMPEAV32@@Z 000000018008a650 f   GuDistanceSegmentBox.obj
 0001:00089ed0       ?distanceSegmentSegmentSquared4@Gu@physx@@YA?AT__m128@@AEBT3@000000000AEAT3@1@Z 000000018008aed0 f   GuDistanceSegmentSegment.obj
 0001:0008a1e0       ?distanceSegmentSegmentSquared@Gu@physx@@YA?AT__m128@@AEBT3@000AEAT3@1@Z 000000018008b1e0 f   GuDistanceSegmentSegment.obj
 0001:0008a3b0       ?distanceSegmentSegmentSquared@Gu@physx@@YAMAEBVPxVec3@2@000PEAM1@Z 000000018008b3b0 f   GuDistanceSegmentSegment.obj
 0001:0008a650       ?distanceSegmentSegmentSquared@Gu@physx@@YAMAEBVPxVec3@2@0M00MPEAM1@Z 000000018008b650 f   GuDistanceSegmentSegment.obj
 0001:0008af30       ?distanceSegmentTriangleSquared@Gu@physx@@YA?AT__m128@@AEBT3@0000AEAT3@1@Z 000000018008bf30 f   GuDistanceSegmentTriangle.obj
 0001:0008b680       ?distanceSegmentTriangleSquared@Gu@physx@@YAMAEBVPxVec3@2@0000PEAM11@Z 000000018008c680 f   GuDistanceSegmentTriangle.obj
 0001:0008ce60       ?PenetrationDepth@EPA@Gu@physx@@QEAA?AW4GjkStatus@23@AEBUGjkConvex@23@0PEIBT__m128@@1E_NT6@AEAUGjkOutput@23@@Z 000000018008de60 f   GuEPA.obj
 0001:0008d920       ?addFacet@EPA@Gu@physx@@QEAAPEAVFacet@23@IIIAEBT__m128@@@Z 000000018008e920 f   GuEPA.obj
 0001:0008dd40       ?epaPenetration@Gu@physx@@YA?AW4GjkStatus@12@AEBUGjkConvex@12@0PEIBE1E_NT__m128@@AEAUGjkOutput@12@@Z 000000018008ed40 f   GuEPA.obj
 0001:0008dea0       ?silhouette@Facet@Gu@physx@@QEAAXAEBT__m128@@PEIBT4@1AEAVEdgeBuffer@23@AEAV?$InlineDeferredIDPool@$0EA@@Cm@3@@Z 000000018008eea0 f   GuEPA.obj
 0001:0008e060       ?closestPtPointTetrahedron@Gu@physx@@YA?AT__m128@@PEIAT3@00AEAI@Z 000000018008f060 f   GuGJKSimplex.obj
 0001:0008e7e0       ?closestPtPointTetrahedron@Gu@physx@@YA?AT__m128@@PEIAT3@00PEIAH1AEAI@Z 000000018008f7e0 f   GuGJKSimplex.obj
 0001:00090290       ??$gjk@UGjkConvex@Gu@physx@@U123@@Gu@physx@@YA?AW4GjkStatus@01@AEBUGjkConvex@01@0AEBT__m128@@1AEAT4@222@Z 0000000180091290 f i GuGJKTest.obj
 0001:00090e80       ??$gjkPenetration@UGjkConvex@Gu@physx@@U123@@Gu@physx@@YA?AW4GjkStatus@01@AEBUGjkConvex@01@0AEBT__m128@@1_NPEIAE3AEAEAEAUGjkOutput@01@@Z 0000000180091e80 f i GuGJKTest.obj
 0001:000929a0       ?testEpaPenetration@Gu@physx@@YA?AW4GjkStatus@12@AEAUGjkConvex@12@0PEBE1EAEAUGjkOutput@12@@Z 00000001800939a0 f   GuGJKTest.obj
 0001:000929f0       ?testGjk@Gu@physx@@YA?AW4GjkStatus@12@AEAUGjkConvex@12@0AEBT__m128@@1AEAT5@222@Z 00000001800939f0 f   GuGJKTest.obj
 0001:00092a00       ?testGjkPenetration@Gu@physx@@YA?AW4GjkStatus@12@AEAUGjkConvex@12@0AEBT__m128@@1PEAE2AEAEAEAUGjkOutput@12@@Z 0000000180093a00 f   GuGJKTest.obj
 0001:00092a50       ??0HeightField@Gu@physx@@QEAA@AEAVGuMeshFactory@2@AEAUHeightFieldData@12@@Z 0000000180093a50 f   GuHeightField.obj
 0001:00092b20       ??0HeightField@Gu@physx@@QEAA@PEAVGuMeshFactory@2@@Z 0000000180093b20 f   GuHeightField.obj
 0001:00092b90       ??1HeightField@Gu@physx@@UEAA@XZ 0000000180093b90 f   GuHeightField.obj
 0001:00092c00       ??_EHeightField@Gu@physx@@UEAAPEAXI@Z 0000000180093c00 f i GuHeightField.obj
 0001:00092d84       ??_EHeightField@Gu@physx@@WBA@EAAPEAXI@Z 0000000180093d84 f i GuHeightField.obj
 0001:00092d90       ?computeCellCoordinates@HeightField@Gu@physx@@QEBAIMMAEAM0@Z 0000000180093d90 f   GuHeightField.obj
 0001:00092e90       ?createObject@HeightField@Gu@physx@@SAPEAV123@AEAPEAEAEAVPxDeserializationContext@3@@Z 0000000180093e90 f   GuHeightField.obj
 0001:00092ef0       ?exportExtraData@HeightField@Gu@physx@@UEAAXAEAVPxSerializationContext@3@@Z 0000000180093ef0 f   GuHeightField.obj
 0001:00092f40       ?getEdgeTriangleIndices@physx@@YAIAEBVHeightField@Gu@1@AEBUEdgeData@1@PEIAI@Z 0000000180093f40 f   GuHeightField.obj
 0001:00093070       ?getVertexEdgeIndices@physx@@YAIAEBVHeightField@Gu@1@IIIQEAUEdgeData@1@@Z 0000000180094070 f   GuHeightField.obj
 0001:00093240       ?importExtraData@HeightField@Gu@physx@@QEAAXAEAVPxDeserializationContext@3@@Z 0000000180094240 f   GuHeightField.obj
 0001:00093260       ?isCollisionVertexPreca@HeightField@Gu@physx@@QEBA_NIIIG@Z 0000000180094260 f   GuHeightField.obj
 0001:00093410       ?isConvexVertex@HeightField@Gu@physx@@QEBA_NIII@Z 0000000180094410 f i GuHeightField.obj
 0001:000934e0       ?isSolidVertex@HeightField@Gu@physx@@QEBA_NIIIGAEA_N@Z 00000001800944e0 f   GuHeightField.obj
 0001:00093660       ?load@HeightField@Gu@physx@@QEAA_NAEAVPxInputStream@3@@Z 0000000180094660 f   GuHeightField.obj
 0001:000939e0       ?loadFromDesc@HeightField@Gu@physx@@QEAA_NAEBVPxHeightFieldDesc@3@@Z 00000001800949e0 f   GuHeightField.obj
 0001:00093c20       ?modifySamples@HeightField@Gu@physx@@UEAA_NHHAEBVPxHeightFieldDesc@3@_N@Z 0000000180094c20 f   GuHeightField.obj
 0001:00093f40       ?onRefCountZero@HeightField@Gu@physx@@UEAAXXZ 0000000180094f40 f   GuHeightField.obj
 0001:00093fd0       ?parseTrianglesForCollisionVertices@HeightField@Gu@physx@@QEAAXG@Z 0000000180094fd0 f   GuHeightField.obj
 0001:000943f0       ?releaseMemory@HeightField@Gu@physx@@QEAAXXZ 00000001800953f0 f   GuHeightField.obj
 0001:00094440       ?resizeAndClear@?$BitMapBase@VNonTrackingAllocator@shdfnd@physx@@@Cm@physx@@QEAAXI@Z 0000000180095440 f i GuHeightField.obj
 0001:000944f0       ?saveCells@HeightField@Gu@physx@@UEBAIPEAXI@Z 00000001800954f0 f   GuHeightField.obj
 0001:00094530       ?computeLocalBounds@HeightFieldUtil@Gu@physx@@QEBAXAEAVPxBounds3@3@@Z 0000000180095530 f   GuHeightFieldUtil.obj
 0001:00094600       ?findClosestPointOnEdge@HeightFieldUtil@Gu@physx@@QEBAMIIIIAEBVPxVec3@3@AEAV43@@Z 0000000180095600 f   GuHeightFieldUtil.obj
 0001:000948d0       ?findClosestPointsOnCell@HeightFieldUtil@Gu@physx@@QEBAIIIVPxVec3@3@PEIAV43@PEIAI_N33@Z 00000001800958d0 f   GuHeightFieldUtil.obj
 0001:00095080       ?findProjectionOnTriangle@HeightFieldUtil@Gu@physx@@QEBA_NIIIAEBVPxVec3@3@AEAV43@@Z 0000000180096080 f   GuHeightFieldUtil.obj
 0001:00095320       ?getEdge@HeightFieldUtil@Gu@physx@@QEBAXIIIIAEAVPxVec3@3@0@Z 0000000180096320 f   GuHeightFieldUtil.obj
 0001:00095560       ?getEdgeFaceIndex@HeightFieldUtil@Gu@physx@@QEBAII@Z 0000000180096560 f   GuHeightFieldUtil.obj
 0001:000956c0       ?getEdgeFaceIndex@HeightFieldUtil@Gu@physx@@QEBAIIIII@Z 00000001800966c0 f   GuHeightFieldUtil.obj
 0001:00095800       ?getEdgeFaceIndex@HeightFieldUtil@Gu@physx@@QEBAIIIPEIBI@Z 0000000180096800 f   GuHeightFieldUtil.obj
 0001:00095870       ?getFaceIndexAtShapePoint@HeightFieldUtil@Gu@physx@@QEBAIMM@Z 0000000180096870 f   GuHeightFieldUtil.obj
 0001:00095970       ?getTriangle@HeightFieldUtil@Gu@physx@@QEBAIAEBVPxTransform@3@AEAVPxTriangle@3@PEAI2I_N3@Z 0000000180096970 f   GuHeightFieldUtil.obj
 0001:00096460       ?getTriangleAdjacencyIndices@HeightField@Gu@physx@@QEBAXIIIIAEAI00@Z 0000000180097460 f i GuHeightFieldUtil.obj
 0001:00096620       ?getTriangleVertexIndices@HeightField@Gu@physx@@QEBAXIAEAI00@Z 0000000180097620 f i GuHeightFieldUtil.obj
 0001:000966d0       ?getVertexFaceIndex@HeightFieldUtil@Gu@physx@@QEBAIIII@Z 00000001800976d0 f   GuHeightFieldUtil.obj
 0001:000968f0       ?getVertexNormal@HeightFieldUtil@Gu@physx@@QEBA?AVPxVec3@3@III@Z 00000001800978f0 f   GuHeightFieldUtil.obj
 0001:00096c30       ?overlapAABBTriangles@HeightFieldUtil@Gu@physx@@QEBA_NAEBVPxTransform@3@AEBVPxBounds3@3@IPEAV?$EntityReport@I@23@@Z 0000000180097c30 f   GuHeightFieldUtil.obj
 0001:00097260       ??$traceSegment@UTriggerTraceSegmentCallback@Gu@physx@@$0A@$0A@@HeightFieldTraceUtil@Gu@physx@@QEBAXAEBVPxVec3@2@0MPEAUTriggerTraceSegmentCallback@12@AEBVPxBounds3@2@_NPEBV32@@Z 0000000180098260 f i GuOverlapTestsHF.obj
 0001:00098290       ?GeomOverlapCallback_BoxHeightfield@@YA_NAEBVPxGeometry@physx@@AEBVPxTransform@2@01PEAUTriggerCache@Gu@2@@Z 0000000180099290 f   GuOverlapTestsHF.obj
 0001:000985b0       ?GeomOverlapCallback_CapsuleHeightfield@@YA_NAEBVPxGeometry@physx@@AEBVPxTransform@2@01PEAUTriggerCache@Gu@2@@Z 00000001800995b0 f   GuOverlapTestsHF.obj
 0001:000987f0       ?GeomOverlapCallback_ConvexHeightfield@@YA_NAEBVPxGeometry@physx@@AEBVPxTransform@2@01PEAUTriggerCache@Gu@2@@Z 00000001800997f0 f   GuOverlapTestsHF.obj
 0001:00098860       ?GeomOverlapCallback_SphereHeightfield@@YA_NAEBVPxGeometry@physx@@AEBVPxTransform@2@01PEAUTriggerCache@Gu@2@@Z 0000000180099860 f   GuOverlapTestsHF.obj
 0001:00098a30       ?checkOverlapAABB_heightFieldGeom@Gu@physx@@YA_NAEBVPxGeometry@2@AEBVPxTransform@2@AEBVPxBounds3@2@@Z 0000000180099a30 f   GuOverlapTestsHF.obj
 0001:0009bcc0       ??$gjkRaycast@U?$LocalConvex@VTriangleV@Gu@physx@@@Gu@physx@@U?$LocalConvex@VConvexHullV@Gu@physx@@@23@@Gu@physx@@YA_NAEBU?$LocalConvex@VTriangleV@Gu@physx@@@01@AEBU?$LocalConvex@VConvexHullV@Gu@physx@@@01@AEBT__m128@@222AEAT4@33M@Z 000000018009ccc0 f i GuSweepsHF.obj
 0001:0009cad0       ??$traceSegment@VBoxTraceSegmentReport@@$0A@$00@HeightFieldTraceUtil@Gu@physx@@QEBAXAEBVPxVec3@2@0MPEAVBoxTraceSegmentReport@@AEBVPxBounds3@2@_NPEBV32@@Z 000000018009dad0 f i GuSweepsHF.obj
 0001:0009cad0       ??$traceSegment@VCapsuleTraceSegmentReport@@$0A@$00@HeightFieldTraceUtil@Gu@physx@@QEBAXAEBVPxVec3@2@0MPEAVCapsuleTraceSegmentReport@@AEBVPxBounds3@2@_NPEBV32@@Z 000000018009dad0 f i GuSweepsHF.obj
 0001:0009cad0       ??$traceSegment@VConvexTraceSegmentReport@@$0A@$00@HeightFieldTraceUtil@Gu@physx@@QEBAXAEBVPxVec3@2@0MPEAVConvexTraceSegmentReport@@AEBVPxBounds3@2@_NPEBV32@@Z 000000018009dad0 f i GuSweepsHF.obj
 0001:0009d300       ??0ConvexTraceSegmentReport@@QEAA@AEBVHeightFieldUtil@Gu@physx@@AEBUConvexHullData@23@AEBVPxMeshScale@3@AEBVPxTransform@3@3AEBVPxVec3@3@MV?$PxFlags@W4Enum@PxHitFlag@physx@@G@3@M@Z 000000018009e300 f i GuSweepsHF.obj
 0001:0009dca0       ??_EBoxTraceSegmentReport@@UEAAPEAXI@Z 000000018009eca0 f i GuSweepsHF.obj
 0001:0009dca0       ??_GBoxTraceSegmentReport@@UEAAPEAXI@Z 000000018009eca0 f i GuSweepsHF.obj
 0001:0009dcd0       ??_ECapsuleTraceSegmentReport@@UEAAPEAXI@Z 000000018009ecd0 f i GuSweepsHF.obj
 0001:0009dcd0       ??_GCapsuleTraceSegmentReport@@UEAAPEAXI@Z 000000018009ecd0 f i GuSweepsHF.obj
 0001:0009dd00       ??_EConvexTraceSegmentReport@@UEAAPEAXI@Z 000000018009ed00 f i GuSweepsHF.obj
 0001:0009dd00       ??_GConvexTraceSegmentReport@@UEAAPEAXI@Z 000000018009ed00 f i GuSweepsHF.obj
 0001:0009dd30       ??_EHeightFieldTraceSegmentReport@@UEAAPEAXI@Z 000000018009ed30 f i GuSweepsHF.obj
 0001:0009dd30       ??_GHeightFieldTraceSegmentReport@@UEAAPEAXI@Z 000000018009ed30 f i GuSweepsHF.obj
 0001:0009dd60       ?finalizeHit@ConvexTraceSegmentReport@@QEAA_NAEAUPxSweepHit@physx@@AEBVPxHeightFieldGeometry@3@AEBVPxTransform@3@AEBVPxConvexMeshGeometry@3@2AEBVPxVec3@3@M@Z 000000018009ed60 f i GuSweepsHF.obj
 0001:0009dfa0       ?onEvent@BoxTraceSegmentReport@@UEAA_NIPEAI@Z 000000018009efa0 f i GuSweepsHF.obj
 0001:0009e400       ?onEvent@CapsuleTraceSegmentReport@@UEAA_NIPEAI@Z 000000018009f400 f i GuSweepsHF.obj
 0001:0009e640       ?onEvent@ConvexTraceSegmentReport@@UEAA_NIPEAI@Z 000000018009f640 f i GuSweepsHF.obj
 0001:0009ec00       ?prepare@?$OverlapTraceSegment@VBoxTraceSegmentReport@@@HeightFieldTraceUtil@Gu@physx@@QEAAXAEBVPxVec3@4@00AEAM1@Z 000000018009fc00 f i GuSweepsHF.obj
 0001:0009ec00       ?prepare@?$OverlapTraceSegment@VCapsuleTraceSegmentReport@@@HeightFieldTraceUtil@Gu@physx@@QEAAXAEBVPxVec3@4@00AEAM1@Z 000000018009fc00 f i GuSweepsHF.obj
 0001:0009ec00       ?prepare@?$OverlapTraceSegment@VConvexTraceSegmentReport@@@HeightFieldTraceUtil@Gu@physx@@QEAAXAEBVPxVec3@4@00AEAM1@Z 000000018009fc00 f i GuSweepsHF.obj
 0001:0009eea0       ?sweepBox_HeightFieldGeom@@YA_NAEBVPxGeometry@physx@@AEBVPxTransform@2@AEBVPxBoxGeometry@2@1AEBVBox@Gu@2@AEBVPxVec3@2@MAEAUPxSweepHit@2@V?$PxFlags@W4Enum@PxHitFlag@physx@@G@2@M@Z 000000018009fea0 f   GuSweepsHF.obj
 0001:0009fcd0       ?sweepCapsule_HeightFieldGeom@@YA_NAEBVPxGeometry@physx@@AEBVPxTransform@2@AEBVPxCapsuleGeometry@2@1AEBVCapsule@Gu@2@AEBVPxVec3@2@MAEAUPxSweepHit@2@V?$PxFlags@W4Enum@PxHitFlag@physx@@G@2@M@Z 00000001800a0cd0 f   GuSweepsHF.obj
 0001:000a0620       ?sweepConvex_HeightFieldGeom@@YA_NAEBVPxGeometry@physx@@AEBVPxTransform@2@AEBVPxConvexMeshGeometry@2@1AEBVPxVec3@2@MAEAUPxSweepHit@2@V?$PxFlags@W4Enum@PxHitFlag@physx@@G@2@M@Z 00000001800a1620 f   GuSweepsHF.obj
 0001:000a1030       ?testVertexIndex@?$OverlapTraceSegment@VBoxTraceSegmentReport@@@HeightFieldTraceUtil@Gu@physx@@QEAA_NI@Z 00000001800a2030 f i GuSweepsHF.obj
 0001:000a1030       ?testVertexIndex@?$OverlapTraceSegment@VCapsuleTraceSegmentReport@@@HeightFieldTraceUtil@Gu@physx@@QEAA_NI@Z 00000001800a2030 f i GuSweepsHF.obj
 0001:000a1030       ?testVertexIndex@?$OverlapTraceSegment@VConvexTraceSegmentReport@@@HeightFieldTraceUtil@Gu@physx@@QEAA_NI@Z 00000001800a2030 f i GuSweepsHF.obj
 0001:000a1190       ?visitCells@?$OverlapTraceSegment@VBoxTraceSegmentReport@@@HeightFieldTraceUtil@Gu@physx@@QEAA_NAEBUOverlapRectangle@1234@@Z 00000001800a2190 f i GuSweepsHF.obj
 0001:000a1190       ?visitCells@?$OverlapTraceSegment@VCapsuleTraceSegmentReport@@@HeightFieldTraceUtil@Gu@physx@@QEAA_NAEBUOverlapRectangle@1234@@Z 00000001800a2190 f i GuSweepsHF.obj
 0001:000a1190       ?visitCells@?$OverlapTraceSegment@VConvexTraceSegmentReport@@@HeightFieldTraceUtil@Gu@physx@@QEAA_NAEBUOverlapRectangle@1234@@Z 00000001800a2190 f i GuSweepsHF.obj
 0001:000a1370       ?intersectOBBOBB@Gu@physx@@YA_NAEBVPxVec3@2@0AEBVPxMat33@2@001_N@Z 00000001800a2370 f   GuIntersectionBoxBox.obj
 0001:000a1a10       ?intersectCapsuleTriangle@Gu@physx@@YA_NAEBVPxVec3@2@000AEBVCapsule@12@AEBUCapsuleTriangleOverlapData@12@@Z 00000001800a2a10 f   GuIntersectionCapsuleTriangle.obj
 0001:000a2550       ?intersectEdgeEdge@Gu@physx@@YA_NAEBVPxVec3@2@0000AEAMAEAV32@@Z 00000001800a3550 f   GuIntersectionEdgeEdge.obj
 0001:000a2880       ?intersectRayAABB2@Gu@physx@@YA_NAEBT__m128@@0000AEAT3@1@Z 00000001800a3880 f   GuIntersectionRayBox.obj
 0001:000a2940       ?intersectRayAABB2@Gu@physx@@YA_NAEBVPxVec3@2@000MAEAM1@Z 00000001800a3940 f   GuIntersectionRayBox.obj
 0001:000a2af0       ?intersectRayAABB@Gu@physx@@YAHAEBVPxVec3@2@000AEAM1@Z 00000001800a3af0 f   GuIntersectionRayBox.obj
 0001:000a2c10       ?rayAABBIntersect2@Gu@physx@@YAIAEBVPxVec3@2@000AEAV32@AEAM@Z 00000001800a3c10 f   GuIntersectionRayBox.obj
 0001:000a2e50       ?intersectRayCapsuleInternal@Gu@physx@@YAIAEBVPxVec3@2@000MQEAM@Z 00000001800a3e50 f   GuIntersectionRayCapsule.obj
 0001:000a36f0       ?intersectRaySphere@Gu@physx@@YA_NAEBVPxVec3@2@0M0MAEAMPEAV32@@Z 00000001800a46f0 f   GuIntersectionRaySphere.obj
 0001:000a37f0       ?intersectRaySphereBasic@Gu@physx@@YA_NAEBVPxVec3@2@0M0MAEAMPEAV32@@Z 00000001800a47f0 f   GuIntersectionRaySphere.obj
 0001:000a3950       ?intersectSphereBox@Gu@physx@@YA_NAEBVSphere@12@AEBVBox@12@@Z 00000001800a4950 f   GuIntersectionSphereBox.obj
 0001:000a3b80       ?intersectTriangleBox@Gu@physx@@YAHAEBVBoxPadded@12@AEBVPxVec3@2@11@Z 00000001800a4b80 f   GuIntersectionTriangleBox.obj
 0001:000a4160       ?intersectTriangleBoxBV4@@YAHAEBVPxVec3@physx@@00AEBVPxMat33@2@00@Z 00000001800a5160 f   GuIntersectionTriangleBox.obj
 0001:000a45a0       ?intersectTriangleBox_ReferenceCode@Gu@physx@@YAHAEBVPxVec3@2@0000@Z 00000001800a55a0 f   GuIntersectionTriangleBox.obj
 0001:000a4de0       ?intersectTriangleBox_Unsafe@Gu@physx@@YAHAEBVPxVec3@2@0000@Z 00000001800a5de0 f   GuIntersectionTriangleBox.obj
 0001:000a51b0       ??0BV4Tree@Gu@physx@@QEAA@PEAVSourceMesh@12@AEBVPxBounds3@2@@Z 00000001800a61b0 f   GuBV4.obj
 0001:000a5270       ??0BV4Tree@Gu@physx@@QEAA@W4PxEMPTY@2@@Z 00000001800a6270 f   GuBV4.obj
 0001:000a5280       ??0BV4Tree@Gu@physx@@QEAA@XZ 00000001800a6280 f   GuBV4.obj
 0001:000a52b0       ??0SourceMesh@Gu@physx@@QEAA@XZ 00000001800a62b0 f   GuBV4.obj
 0001:000a52d0       ??0SourceMeshBase@Gu@physx@@QEAA@XZ 00000001800a62d0 f   GuBV4.obj
 0001:000a52e0       ??1BV4Tree@Gu@physx@@QEAA@XZ 00000001800a62e0 f   GuBV4.obj
 0001:000a5340       ??1SourceMesh@Gu@physx@@QEAA@XZ 00000001800a6340 f   GuBV4.obj
 0001:000a5340       ??1SourceMeshBase@Gu@physx@@QEAA@XZ 00000001800a6340 f   GuBV4.obj
 0001:000a5390       ??4BV4Tree@Gu@physx@@QEAAXAEAV012@@Z 00000001800a6390 f   GuBV4.obj
 0001:000a5420       ??4SourceMesh@Gu@physx@@QEAAXAEAV012@@Z 00000001800a6420 f   GuBV4.obj
 0001:000a5470       ?exportExtraData@BV4Tree@Gu@physx@@QEAAXAEAVPxSerializationContext@3@@Z 00000001800a6470 f   GuBV4.obj
 0001:000a54c0       ?importExtraData@BV4Tree@Gu@physx@@QEAAXAEAVPxDeserializationContext@3@@Z 00000001800a64c0 f   GuBV4.obj
 0001:000a54f0       ?init@BV32Tree@Gu@physx@@QEAA_NPEAVSourceMesh@23@AEBVPxBounds3@3@@Z 00000001800a64f0 f   GuBV32.obj
 0001:000a54f0       ?init@BV4Tree@Gu@physx@@QEAA_NPEAVSourceMesh@23@AEBVPxBounds3@3@@Z 00000001800a64f0 f   GuBV4.obj
 0001:000a5590       ?load@BV4Tree@Gu@physx@@QEAA_NAEAVPxInputStream@3@_N@Z 00000001800a6590 f   GuBV4.obj
 0001:000a57b0       ?remapTopology@SourceMesh@Gu@physx@@QEAAXPEBI@Z 00000001800a67b0 f   GuBV4.obj
 0001:000a5a90       ??0AABBTree@Gu@physx@@QEAA@XZ 00000001800a6a90 f   GuBV4Build.obj
 0001:000a5aa0       ??0BVData@@QEAA@XZ         00000001800a6aa0 f   GuBV4Build.obj
 0001:000a5ad0       ??1AABBTree@Gu@physx@@QEAA@XZ 00000001800a6ad0 f   GuBV4Build.obj
 0001:000a5ae0       ?BuildBV4Ex@Gu@physx@@YA_NAEAVBV4Tree@12@AEAVSourceMesh@12@MI@Z 00000001800a6ae0 f   GuBV4Build.obj
 0001:000a7140       ?allocateNode@BV4BuildParams@@QEAAPEAUBV4Node@@XZ 00000001800a8140 f   GuBV4Build.obj
 0001:000a7250       ?buildFromMesh@AABBTree@Gu@physx@@QEAA_NAEAVSourceMesh@23@I@Z 00000001800a8250 f   GuBV4Build.obj
 0001:000a7df0       ?release@AABBTree@Gu@physx@@QEAAXXZ 00000001800a8df0 f   GuBV4Build.obj
 0001:000a7ea0       ?releaseNodes@BV4BuildParams@@QEAAXXZ 00000001800a8ea0 f   GuBV4Build.obj
 0001:000a8190       ?walk@AABBTree@Gu@physx@@QEBAIP6A_NPEBVAABBTreeNode@23@IPEAX@Z1@Z 00000001800a9190 f   GuBV4Build.obj
 0001:000aa300       ?GenericSweep_AABB_CB@@YAXAEBVBox@Gu@physx@@AEBVPxVec3@3@MAEBVBV4Tree@23@P6A_NPEAX111IAEAM@Z3I@Z 00000001800ab300 f   GuBV4_AABBSweep.obj
 0001:000aa410       ?Sweep_AABB_BV4@@YAHAEBVBox@Gu@physx@@AEBVPxVec3@3@MAEBVBV4Tree@23@PEIAVSweepHit@23@I@Z 00000001800ab410 f   GuBV4_AABBSweep.obj
 0001:000ae680       ?BV4_OverlapBoxAll@@YAIAEBVBox@Gu@physx@@AEBVBV4Tree@23@PEIBVPxMat44@3@PEAIIAEA_N@Z 00000001800af680 f   GuBV4_BoxOverlap.obj
 0001:000aee80       ?BV4_OverlapBoxAny@@YAHAEBVBox@Gu@physx@@AEBVBV4Tree@23@PEIBVPxMat44@3@@Z 00000001800afe80 f   GuBV4_BoxOverlap.obj
 0001:000af630       ?BV4_OverlapBoxCB@@YAXAEBVBox@Gu@physx@@AEBVBV4Tree@23@P6A_NPEAXAEBVPxVec3@3@33IPEBI@Z2@Z 00000001800b0630 f   GuBV4_BoxOverlap.obj
 0001:000afae0       ?BV4_OverlapCapsuleAll@@YAIAEBVCapsule@Gu@physx@@AEBVBV4Tree@23@PEIBVPxMat44@3@PEAIIAEA_N@Z 00000001800b0ae0 f   GuBV4_BoxOverlap.obj
 0001:000b01f0       ?BV4_OverlapCapsuleAny@@YAHAEBVCapsule@Gu@physx@@AEBVBV4Tree@23@PEIBVPxMat44@3@@Z 00000001800b11f0 f   GuBV4_BoxOverlap.obj
 0001:000b2290       ?BV4_CapsuleSweepSingle@@YAHAEBVCapsule@Gu@physx@@AEBVPxVec3@3@MAEBVBV4Tree@23@PEIAVSweepHit@23@I@Z 00000001800b3290 f   GuBV4_CapsuleSweep.obj
 0001:000b57b0       ?BV4_CapsuleSweepSingleAA@@YAHAEBVCapsule@Gu@physx@@AEBVPxVec3@3@MAEBVBV4Tree@23@PEIAVSweepHit@23@I@Z 00000001800b67b0 f   GuBV4_CapsuleSweepAA.obj
 0001:000b9f30       ?BV4_BoxSweepSingle@@YAHAEBVBox@Gu@physx@@AEBVPxVec3@3@MAEBVBV4Tree@23@PEIBVPxMat44@3@PEIAVSweepHit@23@I@Z 00000001800baf30 f   GuBV4_OBBSweep.obj
 0001:000ba630       ?BV4_GenericSweepCB@@YAXAEBVBox@Gu@physx@@AEBVPxVec3@3@MAEBVBV4Tree@23@P6A_NPEAX111IAEAM@Z3_N@Z 00000001800bb630 f   GuBV4_OBBSweep.obj
 0001:000ba800       ?Sweep_OBB_BV4@@YAHAEBVBox@Gu@physx@@AEBVPxVec3@3@MAEBVBV4Tree@23@PEIAVSweepHit@23@I@Z 00000001800bb800 f   GuBV4_OBBSweep.obj
 0001:000bc7f0       ?BV4_RaycastCB@@YAXAEBVPxVec3@physx@@0AEBVBV4Tree@Gu@2@PEIBVPxMat44@2@MMIP6A?AW4HitCode@42@PEAX000IMMM@Z3@Z 00000001800bd7f0 f   GuBV4_Raycast.obj
 0001:000bcc10       ?BV4_RaycastSingle@@YAHAEBVPxVec3@physx@@0AEBVBV4Tree@Gu@2@PEIBVPxMat44@2@PEIAUPxRaycastHit@2@MMIV?$PxFlags@W4Enum@PxHitFlag@physx@@G@2@@Z 00000001800bdc10 f   GuBV4_Raycast.obj
 0001:000be9c0       ?BV4_OverlapSphereAll@@YAIAEBVSphere@Gu@physx@@AEBVBV4Tree@23@PEIBVPxMat44@3@PEAIIAEA_N@Z 00000001800bf9c0 f   GuBV4_SphereOverlap.obj
 0001:000becd0       ?BV4_OverlapSphereAny@@YAHAEBVSphere@Gu@physx@@AEBVBV4Tree@23@PEIBVPxMat44@3@@Z 00000001800bfcd0 f   GuBV4_SphereOverlap.obj
 0001:000c0a60       ?BV4_GenericSweepCB_Old@@YAXAEBVPxVec3@physx@@00MAEBVBV4Tree@Gu@2@PEIBVPxMat44@2@P6A_NPEAX000IAEAM@Z3@Z 00000001800c1a60 f   GuBV4_SphereSweep.obj
 0001:000c0e70       ?BV4_SphereSweepSingle@@YAHAEBVSphere@Gu@physx@@AEBVPxVec3@3@MAEBVBV4Tree@23@PEIBVPxMat44@3@PEIAVSweepHit@23@I@Z 00000001800c1e70 f   GuBV4_SphereSweep.obj
 0001:000c2020       ?computeSweepData@physx@@YAMAEBVPxTriangleMeshGeometry@1@AEAVPxVec3@1@11M@Z 00000001800c3020 f i GuMidphaseBV4.obj
 0001:000c3440       ?intersectBoxVsMesh_BV4@Gu@physx@@YA_NAEBVBox@12@AEBVTriangleMesh@12@AEBVPxTransform@2@AEBVPxMeshScale@2@PEAULimitedResults@12@@Z 00000001800c4440 f   GuMidphaseBV4.obj
 0001:000c3ed0       ?intersectCapsuleVsMesh_BV4@Gu@physx@@YA_NAEBVCapsule@12@AEBVTriangleMesh@12@AEBVPxTransform@2@AEBVPxMeshScale@2@PEAULimitedResults@12@@Z 00000001800c4ed0 f   GuMidphaseBV4.obj
 0001:000c4760       ?intersectOBB_BV4@Gu@physx@@YAXPEBVTriangleMesh@12@AEBVBox@12@AEAU?$MeshHitCallback@UPxRaycastHit@physx@@@12@_N3@Z 00000001800c5760 f   GuMidphaseBV4.obj
 0001:000c4780       ?intersectSphereVsMesh_BV4@Gu@physx@@YA_NAEBVSphere@12@AEBVTriangleMesh@12@AEBVPxTransform@2@AEBVPxMeshScale@2@PEAULimitedResults@12@@Z 00000001800c5780 f   GuMidphaseBV4.obj
 0001:000c4f10       ?raycast_triangleMesh_BV4@Gu@physx@@YAIPEBVTriangleMesh@12@AEBVPxTriangleMeshGeometry@2@AEBVPxTransform@2@AEBVPxVec3@2@3MV?$PxFlags@W4Enum@PxHitFlag@physx@@G@2@IPEIAUPxRaycastHit@2@@Z 00000001800c5f10 f   GuMidphaseBV4.obj
 0001:000c5d20       ?sweepBox_MeshGeom_BV4@Gu@physx@@YA_NPEBVTriangleMesh@12@AEBVPxTriangleMeshGeometry@2@AEBVPxTransform@2@AEBVBox@12@AEBVPxVec3@2@MAEAUPxSweepHit@2@V?$PxFlags@W4Enum@PxHitFlag@physx@@G@2@M@Z 00000001800c6d20 f   GuMidphaseBV4.obj
 0001:000c7390       ?sweepCapsule_MeshGeom_BV4@Gu@physx@@YA_NPEBVTriangleMesh@12@AEBVPxTriangleMeshGeometry@2@AEBVPxTransform@2@AEBVCapsule@12@AEBVPxVec3@2@MAEAUPxSweepHit@2@V?$PxFlags@W4Enum@PxHitFlag@physx@@G@2@M@Z 00000001800c8390 f   GuMidphaseBV4.obj
 0001:000c7e60       ?sweepConvex_MeshGeom_BV4@Gu@physx@@YAXPEBVTriangleMesh@12@AEBVBox@12@AEBVPxVec3@2@MAEAUSweepConvexMeshHitCallback@12@_N@Z 00000001800c8e60 f   GuMidphaseBV4.obj
 0001:000c7ea0       ?transform@PxMeshScale@physx@@QEBA?AVPxVec3@2@AEBV32@@Z 00000001800c8ea0 f i GuMidphaseBV4.obj
 0001:000c8100       ?findOverlapHeightField@PxMeshQuery@physx@@SAIAEBVPxGeometry@2@AEBVPxTransform@2@AEBVPxHeightFieldGeometry@2@1PEAIIIAEA_N@Z 00000001800c9100 f   GuMeshQuery.obj
 0001:000c87c0       ?findOverlapTriangleMesh@PxMeshQuery@physx@@SAIAEBVPxGeometry@2@AEBVPxTransform@2@AEBVPxTriangleMeshGeometry@2@1PEAIIIAEA_N@Z 00000001800c97c0 f   GuMeshQuery.obj
 0001:000c8a90       ?getTriangle@PxMeshQuery@physx@@SAXAEBVPxHeightFieldGeometry@2@AEBVPxTransform@2@IAEAVPxTriangle@2@PEAI3@Z 00000001800c9a90 f   GuMeshQuery.obj
 0001:000c8b10       ?getTriangle@PxMeshQuery@physx@@SAXAEBVPxTriangleMeshGeometry@2@AEBVPxTransform@2@IAEAVPxTriangle@2@PEAI3@Z 00000001800c9b10 f   GuMeshQuery.obj
 0001:000c8fb0       ?sweep@PxMeshQuery@physx@@SA_NAEBVPxVec3@2@MAEBVPxGeometry@2@AEBVPxTransform@2@IPEBVPxTriangle@2@AEAUPxSweepHit@2@V?$PxFlags@W4Enum@PxHitFlag@physx@@G@2@PEBIM_N@Z 00000001800c9fb0 f   GuMeshQuery.obj
 0001:000c9140       ??$collide@$00$00@MeshRayCollider@@SAXAEBVPxVec3@physx@@0M_NPEBVRTreeTriangleMesh@Gu@2@AEAU?$MeshHitCallback@UPxRaycastHit@physx@@@42@PEBV12@@Z 00000001800ca140 f i GuMidphaseRTree.obj
 0001:000c94c0       ??$collide@$00$0A@@MeshRayCollider@@SAXAEBVPxVec3@physx@@0M_NPEBVRTreeTriangleMesh@Gu@2@AEAU?$MeshHitCallback@UPxRaycastHit@physx@@@42@PEBV12@@Z 00000001800ca4c0 f i GuMidphaseRTree.obj
 0001:000c9700       ??$collide@$0A@$00@MeshRayCollider@@SAXAEBVPxVec3@physx@@0M_NPEBVRTreeTriangleMesh@Gu@2@AEAU?$MeshHitCallback@UPxRaycastHit@physx@@@42@PEBV12@@Z 00000001800ca700 f i GuMidphaseRTree.obj
 0001:000cb7e0       ??0?$RayRTreeCallback@$00$0A@@@QEAA@MAEAU?$MeshHitCallback@UPxRaycastHit@physx@@@Gu@physx@@HPEBXPEBVPxVec3@3@AEBV43@3M_N2@Z 00000001800cc7e0 f i GuMidphaseRTree.obj
 0001:000cb910       ??1?$RayRTreeCallback@$00$00@@UEAA@XZ 00000001800cc910 f i GuMidphaseRTree.obj
 0001:000cb9a0       ??1?$RayRTreeCallback@$00$0A@@@UEAA@XZ 00000001800cc9a0 f i GuMidphaseRTree.obj
 0001:000cb9a0       ??1?$RayRTreeCallback@$0A@$0A@@@UEAA@XZ 00000001800cc9a0 f i GuMidphaseRTree.obj
 0001:000cba30       ??1?$RayRTreeCallback@$0A@$00@@UEAA@XZ 00000001800cca30 f i GuMidphaseRTree.obj
 0001:000cbab8       ??_E?$RayRTreeCallback@$00$00@@W7EAAPEAXI@Z 00000001800ccab8 f i GuMidphaseRTree.obj
 0001:000cbac4       ??_E?$RayRTreeCallback@$00$0A@@@W7EAAPEAXI@Z 00000001800ccac4 f i GuMidphaseRTree.obj
 0001:000cbac4       ??_E?$RayRTreeCallback@$0A@$0A@@@W7EAAPEAXI@Z 00000001800ccac4 f i GuMidphaseRTree.obj
 0001:000cbad0       ??_E?$RayRTreeCallback@$0A@$00@@W7EAAPEAXI@Z 00000001800ccad0 f i GuMidphaseRTree.obj
 0001:000cbb40       ??_E?$RayRTreeCallback@$00$00@@UEAAPEAXI@Z 00000001800ccb40 f i GuMidphaseRTree.obj
 0001:000cbb40       ??_G?$RayRTreeCallback@$00$00@@UEAAPEAXI@Z 00000001800ccb40 f i GuMidphaseRTree.obj
 0001:000cbb80       ??_E?$RayRTreeCallback@$00$0A@@@UEAAPEAXI@Z 00000001800ccb80 f i GuMidphaseRTree.obj
 0001:000cbb80       ??_E?$RayRTreeCallback@$0A@$0A@@@UEAAPEAXI@Z 00000001800ccb80 f i GuMidphaseRTree.obj
 0001:000cbb80       ??_G?$RayRTreeCallback@$00$0A@@@UEAAPEAXI@Z 00000001800ccb80 f i GuMidphaseRTree.obj
 0001:000cbb80       ??_G?$RayRTreeCallback@$0A@$0A@@@UEAAPEAXI@Z 00000001800ccb80 f i GuMidphaseRTree.obj
 0001:000cbbc0       ??_E?$RayRTreeCallback@$0A@$00@@UEAAPEAXI@Z 00000001800ccbc0 f i GuMidphaseRTree.obj
 0001:000cbbc0       ??_G?$RayRTreeCallback@$0A@$00@@UEAAPEAXI@Z 00000001800ccbc0 f i GuMidphaseRTree.obj
 0001:000cbc00       ??_ECallback@RTree@Gu@physx@@UEAAPEAXI@Z 00000001800ccc00 f i GuMidphaseRTree.obj
 0001:000cbc00       ??_GCallback@RTree@Gu@physx@@UEAAPEAXI@Z 00000001800ccc00 f i GuMidphaseRTree.obj
 0001:000cbc30       ??_ECallbackRaycast@RTree@Gu@physx@@UEAAPEAXI@Z 00000001800ccc30 f i GuMidphaseRTree.obj
 0001:000cbc30       ??_ECallbackRefit@RTree@Gu@physx@@UEAAPEAXI@Z 00000001800ccc30 f i GuTriangleMeshRTree.obj
 0001:000cbc30       ??_GCallbackRaycast@RTree@Gu@physx@@UEAAPEAXI@Z 00000001800ccc30 f i GuMidphaseRTree.obj
 0001:000cbc30       ??_GCallbackRefit@RTree@Gu@physx@@UEAAPEAXI@Z 00000001800ccc30 f i GuTriangleMeshRTree.obj
 0001:000cbc60       ??_ERayMeshColliderCallback@@UEAAPEAXI@Z 00000001800ccc60 f i GuMidphaseRTree.obj
 0001:000cbc60       ??_GRayMeshColliderCallback@@UEAAPEAXI@Z 00000001800ccc60 f i GuMidphaseRTree.obj
 0001:000cbc90       ?collideOBB@MeshRayCollider@@SAXAEBVBox@Gu@physx@@_NPEBVRTreeTriangleMesh@34@AEAU?$MeshHitCallback@UPxRaycastHit@physx@@@34@1@Z 00000001800ccc90 f   GuMidphaseRTree.obj
 0001:000cc160       ?intersectBoxVsMesh_RTREE@Gu@physx@@YA_NAEBVBox@12@AEBVTriangleMesh@12@AEBVPxTransform@2@AEBVPxMeshScale@2@PEAULimitedResults@12@@Z 00000001800cd160 f   GuMidphaseRTree.obj
 0001:000cc1d0       ?intersectCapsuleVsMesh_RTREE@Gu@physx@@YA_NAEBVCapsule@12@AEBVTriangleMesh@12@AEBVPxTransform@2@AEBVPxMeshScale@2@PEAULimitedResults@12@@Z 00000001800cd1d0 f   GuMidphaseRTree.obj
 0001:000cc250       ?intersectOBB_RTREE@Gu@physx@@YAXPEBVTriangleMesh@12@AEBVBox@12@AEAU?$MeshHitCallback@UPxRaycastHit@physx@@@12@_N3@Z 00000001800cd250 f   GuMidphaseRTree.obj
 0001:000cc280       ?intersectSphereVsMesh_RTREE@Gu@physx@@YA_NAEBVSphere@12@AEBVTriangleMesh@12@AEBVPxTransform@2@AEBVPxMeshScale@2@PEAULimitedResults@12@@Z 00000001800cd280 f   GuMidphaseRTree.obj
 0001:000cd1e0       ?processHit@RayMeshColliderCallback@@UEAA_NAEBUPxRaycastHit@physx@@AEBVPxVec3@3@11AEAMPEBI@Z 00000001800ce1e0 f i GuMidphaseRTree.obj
 0001:000cd980       ?processResults@?$RayRTreeCallback@$00$00@@UEAA_NIPEAI@Z 00000001800ce980 f i GuMidphaseRTree.obj
 0001:000cdd40       ?processResults@?$RayRTreeCallback@$00$00@@UEAA_NIPEAIAEAM@Z 00000001800ced40 f i GuMidphaseRTree.obj
 0001:000ce0d0       ?processResults@?$RayRTreeCallback@$00$0A@@@UEAA_NIPEAI@Z 00000001800cf0d0 f i GuMidphaseRTree.obj
 0001:000ce0d0       ?processResults@?$RayRTreeCallback@$0A@$0A@@@UEAA_NIPEAI@Z 00000001800cf0d0 f i GuMidphaseRTree.obj
 0001:000ce360       ?processResults@?$RayRTreeCallback@$00$0A@@@UEAA_NIPEAIAEAM@Z 00000001800cf360 f i GuMidphaseRTree.obj
 0001:000ce360       ?processResults@?$RayRTreeCallback@$0A@$0A@@@UEAA_NIPEAIAEAM@Z 00000001800cf360 f i GuMidphaseRTree.obj
 0001:000ce600       ?processResults@?$RayRTreeCallback@$0A@$00@@UEAA_NIPEAI@Z 00000001800cf600 f i GuMidphaseRTree.obj
 0001:000cec90       ?processResults@?$RayRTreeCallback@$0A@$00@@UEAA_NIPEAIAEAM@Z 00000001800cfc90 f i GuMidphaseRTree.obj
 0001:000cf330       ?raycast_triangleMesh_RTREE@Gu@physx@@YAIPEBVTriangleMesh@12@AEBVPxTriangleMeshGeometry@2@AEBVPxTransform@2@AEBVPxVec3@2@3MV?$PxFlags@W4Enum@PxHitFlag@physx@@G@2@IPEIAUPxRaycastHit@2@@Z 00000001800d0330 f   GuMidphaseRTree.obj
 0001:000cfaa0       ?sweepBox_MeshGeom_RTREE@Gu@physx@@YA_NPEBVTriangleMesh@12@AEBVPxTriangleMeshGeometry@2@AEBVPxTransform@2@AEBVBox@12@AEBVPxVec3@2@MAEAUPxSweepHit@2@V?$PxFlags@W4Enum@PxHitFlag@physx@@G@2@M@Z 00000001800d0aa0 f   GuMidphaseRTree.obj
 0001:000d0f20       ?sweepCapsule_MeshGeom_RTREE@Gu@physx@@YA_NPEBVTriangleMesh@12@AEBVPxTriangleMeshGeometry@2@AEBVPxTransform@2@AEBVCapsule@12@AEBVPxVec3@2@MAEAUPxSweepHit@2@V?$PxFlags@W4Enum@PxHitFlag@physx@@G@2@M@Z 00000001800d1f20 f   GuMidphaseRTree.obj
 0001:000d16c0       ?sweepConvex_MeshGeom_RTREE@Gu@physx@@YAXPEBVTriangleMesh@12@AEBVBox@12@AEBVPxVec3@2@MAEAUSweepConvexMeshHitCallback@12@_N@Z 00000001800d26c0 f   GuMidphaseRTree.obj
 0001:000d1710       ??$gjk@U?$RelativeConvex@VTriangleV@Gu@physx@@@Gu@physx@@U?$LocalConvex@VConvexHullV@Gu@physx@@@23@@Gu@physx@@YA?AW4GjkStatus@01@AEBU?$RelativeConvex@VTriangleV@Gu@physx@@@01@AEBU?$LocalConvex@VConvexHullV@Gu@physx@@@01@AEBT__m128@@2AEAT5@333@Z 00000001800d2710 f i GuOverlapTestsMesh.obj
 0001:000d2460       ??0ConvexVsMeshOverlapCallback@@QEAA@AEBVConvexMesh@Gu@physx@@AEBVPxMeshScale@3@AEBVFastVertex2ShapeScaling@Cm@3@AEBVPxTransform@3@3_NAEBVBox@23@@Z 00000001800d3460 f i GuOverlapTestsMesh.obj
 0001:000d2cf0       ??_EConvexVsMeshOverlapCallback@@UEAAPEAXI@Z 00000001800d3cf0 f i GuOverlapTestsMesh.obj
 0001:000d2cf0       ??_GConvexVsMeshOverlapCallback@@UEAAPEAXI@Z 00000001800d3cf0 f i GuOverlapTestsMesh.obj
 0001:000d2d20       ?GeomOverlapCallback_BoxMesh@@YA_NAEBVPxGeometry@physx@@AEBVPxTransform@2@01PEAUTriggerCache@Gu@2@@Z 00000001800d3d20 f   GuOverlapTestsMesh.obj
 0001:000d2e30       ?GeomOverlapCallback_CapsuleMesh@@YA_NAEBVPxGeometry@physx@@AEBVPxTransform@2@01PEAUTriggerCache@Gu@2@@Z 00000001800d3e30 f   GuOverlapTestsMesh.obj
 0001:000d2f60       ?GeomOverlapCallback_ConvexMesh@@YA_NAEBVPxGeometry@physx@@AEBVPxTransform@2@01PEAUTriggerCache@Gu@2@@Z 00000001800d3f60 f   GuOverlapTestsMesh.obj
 0001:000d3540       ?GeomOverlapCallback_SphereMesh@@YA_NAEBVPxGeometry@physx@@AEBVPxTransform@2@01PEAUTriggerCache@Gu@2@@Z 00000001800d4540 f   GuOverlapTestsMesh.obj
 0001:000d35b0       ?checkOverlapAABB_triangleGeom@Gu@physx@@YA_NAEBVPxGeometry@2@AEBVPxTransform@2@AEBVPxBounds3@2@@Z 00000001800d45b0 f   GuOverlapTestsMesh.obj
 0001:000d36a0       ?processHit@ConvexVsMeshOverlapCallback@@UEAA_NAEBUPxRaycastHit@physx@@AEBVPxVec3@3@11AEAMPEBI@Z 00000001800d46a0 f i GuOverlapTestsMesh.obj
 0001:000d3a10       ??0RTree@Gu@physx@@QEAA@W4PxEMPTY@2@@Z 00000001800d4a10 f   GuRTree.obj
 0001:000d3a20       ?exportExtraData@RTree@Gu@physx@@QEAAXAEAVPxSerializationContext@3@@Z 00000001800d4a20 f   GuRTree.obj
 0001:000d3a60       ?importExtraData@RTree@Gu@physx@@QEAAXAEAVPxDeserializationContext@3@@Z 00000001800d4a60 f   GuRTree.obj
 0001:000d3a90       ?load@RTree@Gu@physx@@QEAA_NAEAVPxInputStream@3@I_N@Z 00000001800d4a90 f   GuRTree.obj
 0001:000d3da0       ?refitAllStaticTree@RTree@Gu@physx@@QEAAXAEAUCallbackRefit@123@PEAVPxBounds3@3@@Z 00000001800d4da0 f   GuRTree.obj
 0001:000d4350       ?validate@RTree@Gu@physx@@QEAAXPEAUCallbackRefit@123@@Z 00000001800d5350 f   GuRTree.obj
 0001:000d4590       ?validateRecursive@RTree@Gu@physx@@IEAAXIURTreeNodeQ@23@PEAURTreePage@23@PEAUCallbackRefit@123@@Z 00000001800d5590 f   GuRTree.obj
 0001:000d4750       ??$traverseRay@$00@RTree@Gu@physx@@QEBAXAEBVPxVec3@2@0IPEAIPEAUCallbackRaycast@012@PEBV32@M@Z 00000001800d5750 f i GuRTreeQueries.obj
 0001:000d4ad0       ??$traverseRay@$0A@@RTree@Gu@physx@@QEBAXAEBVPxVec3@2@0IPEAIPEAUCallbackRaycast@012@PEBV32@M@Z 00000001800d5ad0 f i GuRTreeQueries.obj
 0001:000d4e00       ?traverseAABB@RTree@Gu@physx@@QEBAXAEBVPxVec3@3@0IPEAIPEAUCallback@123@@Z 00000001800d5e00 f   GuRTreeQueries.obj
 0001:000d4fe0       ?traverseOBB@RTree@Gu@physx@@QEBAXAEBVBox@23@IPEAIPEAUCallback@123@@Z 00000001800d5fe0 f   GuRTreeQueries.obj
 0001:000d58b0       ??0SweepBoxMeshHitCallback@Gu@physx@@QEAA@W4Enum@CallbackMode@12@AEBVMatrix34Padded@12@M_NAEBVBox@12@AEBVPxVec3@2@44AEBV?$PxFlags@W4Enum@PxHitFlag@physx@@G@2@M2M@Z 00000001800d68b0 f   GuSweepsMesh.obj
 0001:000d59c0       ??0SweepCapsuleMeshHitCallback@Gu@physx@@QEAA@AEAUPxSweepHit@2@AEBVMatrix34@Cm@2@M_NAEBVCapsule@12@AEBVPxVec3@2@AEBV?$PxFlags@W4Enum@PxHitFlag@physx@@G@2@2M@Z 00000001800d69c0 f   GuSweepsMesh.obj
 0001:000d5a90       ??0SweepConvexMeshHitCallback@Gu@physx@@QEAA@AEBUConvexHullData@12@AEBVPxMeshScale@2@AEBVFastVertex2ShapeScaling@Cm@2@AEBVPxTransform@2@3AEBVPxVec3@2@MV?$PxFlags@W4Enum@PxHitFlag@physx@@G@2@_NM6M@Z 00000001800d6a90 f   GuSweepsMesh.obj
 0001:000d6420       ??_ESweepBoxMeshHitCallback@Gu@physx@@UEAAPEAXI@Z 00000001800d7420 f i GuSweepsMesh.obj
 0001:000d6420       ??_GSweepBoxMeshHitCallback@Gu@physx@@UEAAPEAXI@Z 00000001800d7420 f i GuSweepsMesh.obj
 0001:000d6450       ??_ESweepCapsuleMeshHitCallback@Gu@physx@@UEAAPEAXI@Z 00000001800d7450 f i GuSweepsMesh.obj
 0001:000d6450       ??_GSweepCapsuleMeshHitCallback@Gu@physx@@UEAAPEAXI@Z 00000001800d7450 f i GuSweepsMesh.obj
 0001:000d6480       ??_ESweepConvexMeshHitCallback@Gu@physx@@UEAAPEAXI@Z 00000001800d7480 f i GuSweepsMesh.obj
 0001:000d6480       ??_GSweepConvexMeshHitCallback@Gu@physx@@UEAAPEAXI@Z 00000001800d7480 f i GuSweepsMesh.obj
 0001:000d64b0       ??_ESweepShapeMeshHitCallback@Gu@physx@@UEAAPEAXI@Z 00000001800d74b0 f i GuSweepsMesh.obj
 0001:000d64b0       ??_GSweepShapeMeshHitCallback@Gu@physx@@UEAAPEAXI@Z 00000001800d74b0 f i GuSweepsMesh.obj
 0001:000d64e0       ?finalizeHit@SweepBoxMeshHitCallback@Gu@physx@@QEBA_NAEAUPxSweepHit@3@AEBVPxTriangleMeshGeometry@3@AEBVPxTransform@3@2AEBVPxVec3@3@_N4@Z 00000001800d74e0 f   GuSweepsMesh.obj
 0001:000d6b90       ?finalizeHit@SweepCapsuleMeshHitCallback@Gu@physx@@QEBA_NAEAUPxSweepHit@3@AEBVCapsule@23@AEBVPxTriangleMeshGeometry@3@AEBVPxTransform@3@_N@Z 00000001800d7b90 f   GuSweepsMesh.obj
 0001:000d6d20       ?finalizeHit@SweepConvexMeshHitCallback@Gu@physx@@QEAA_NAEAUPxSweepHit@3@AEBVPxTriangleMeshGeometry@3@AEBVPxTransform@3@AEBVPxConvexMeshGeometry@3@2AEBVPxVec3@3@M_N555@Z 00000001800d7d20 f   GuSweepsMesh.obj
 0001:000d7200       ?processHit@SweepBoxMeshHitCallback@Gu@physx@@UEAA_NAEBUPxRaycastHit@3@AEBVPxVec3@3@11AEAMPEBI@Z 00000001800d8200 f   GuSweepsMesh.obj
 0001:000d79d0       ?processHit@SweepCapsuleMeshHitCallback@Gu@physx@@UEAA_NAEBUPxRaycastHit@3@AEBVPxVec3@3@11AEAMPEBI@Z 00000001800d89d0 f   GuSweepsMesh.obj
 0001:000d7ef0       ?processHit@SweepConvexMeshHitCallback@Gu@physx@@UEAA_NAEBUPxRaycastHit@3@AEBVPxVec3@3@11AEAMPEBI@Z 00000001800d8ef0 f   GuSweepsMesh.obj
 0001:000d8670       ?sweepBox_MeshGeom@@YA_NAEBVPxGeometry@physx@@AEBVPxTransform@2@AEBVPxBoxGeometry@2@1AEBVBox@Gu@2@AEBVPxVec3@2@MAEAUPxSweepHit@2@V?$PxFlags@W4Enum@PxHitFlag@physx@@G@2@M@Z 00000001800d9670 f   GuSweepsMesh.obj
 0001:000d8700       ?sweepCapsule_MeshGeom@@YA_NAEBVPxGeometry@physx@@AEBVPxTransform@2@AEBVPxCapsuleGeometry@2@1AEBVCapsule@Gu@2@AEBVPxVec3@2@MAEAUPxSweepHit@2@V?$PxFlags@W4Enum@PxHitFlag@physx@@G@2@M@Z 00000001800d9700 f   GuSweepsMesh.obj
 0001:000d8790       ?sweepConvex_MeshGeom@@YA_NAEBVPxGeometry@physx@@AEBVPxTransform@2@AEBVPxConvexMeshGeometry@2@1AEBVPxVec3@2@MAEAUPxSweepHit@2@V?$PxFlags@W4Enum@PxHitFlag@physx@@G@2@M@Z 00000001800d9790 f   GuSweepsMesh.obj
 0001:000d9400       ??0TriangleMesh@Gu@physx@@QEAA@AEAVGuMeshFactory@2@AEAVTriangleMeshData@12@@Z 00000001800da400 f   GuTriangleMesh.obj
 0001:000d9590       ??1TriangleMesh@Gu@physx@@UEAA@XZ 00000001800da590 f   GuTriangleMesh.obj
 0001:000d9760       ??_ETriangleMesh@Gu@physx@@WBA@EAAPEAXI@Z 00000001800da760 f i GuTriangleMesh.obj
 0001:000d9770       ??_ETriangleMesh@Gu@physx@@UEAAPEAXI@Z 00000001800da770 f i GuTriangleMesh.obj
 0001:000d9770       ??_GTriangleMesh@Gu@physx@@UEAAPEAXI@Z 00000001800da770 f i GuTriangleMesh.obj
 0001:000d97e0       ?exportExtraData@TriangleMesh@Gu@physx@@UEAAXAEAVPxSerializationContext@3@@Z 00000001800da7e0 f   GuTriangleMesh.obj
 0001:000d9940       ?getLocalBounds@TriangleMesh@Gu@physx@@UEBA?AVPxBounds3@3@XZ 00000001800da940 f i GuTriangleMesh.obj
 0001:000d99c0       ?getNbVertices@TriangleMesh@Gu@physx@@UEBAIXZ 00000001800da9c0 f i GuTriangleMesh.obj
 0001:000d99d0       ?getTriangleMaterialIndex@TriangleMesh@Gu@physx@@UEBAGI@Z 00000001800da9d0 f i GuTriangleMesh.obj
 0001:000d99f0       ?getTriangleMeshFlags@TriangleMesh@Gu@physx@@UEBA?AV?$PxFlags@W4Enum@PxTriangleMeshFlag@physx@@E@3@XZ 00000001800da9f0 f i GuTriangleMesh.obj
 0001:000d9a00       ?getTrianglesRemap@TriangleMesh@Gu@physx@@UEBAPEBIXZ 00000001800daa00 f i GuTriangleMesh.obj
 0001:000d9a10       ?getVertices@TriangleMesh@Gu@physx@@UEBAPEBVPxVec3@3@XZ 00000001800daa10 f i GuTriangleMesh.obj
 0001:000d9a20       ?getVerticesForModification@TriangleMesh@Gu@physx@@UEAAPEAVPxVec3@3@XZ 00000001800daa20 f   GuTriangleMesh.obj
 0001:000d9a60       ?importExtraData@TriangleMesh@Gu@physx@@QEAAXAEAVPxDeserializationContext@3@@Z 00000001800daa60 f   GuTriangleMesh.obj
 0001:000d9b70       ?isKindOf@PxTriangleMesh@physx@@MEBA_NPEBD@Z 00000001800dab70 f i GuTriangleMesh.obj
 0001:000d9bb0       ?onRefCountZero@TriangleMesh@Gu@physx@@UEAAXXZ 00000001800dabb0 f   GuTriangleMesh.obj
 0001:000d9c50       ?refitBVH@TriangleMesh@Gu@physx@@UEAA?AVPxBounds3@3@XZ 00000001800dac50 f   GuTriangleMesh.obj
 0001:000d9d10       ??0BV4TriangleMesh@Gu@physx@@QEAA@AEAVGuMeshFactory@2@AEAVTriangleMeshData@12@@Z 00000001800dad10 f   GuTriangleMeshBV4.obj
 0001:000d9da4       ??_EBV4TriangleMesh@Gu@physx@@WBA@EAAPEAXI@Z 00000001800dada4 f i GuTriangleMeshBV4.obj
 0001:000d9db0       ??_EBV4TriangleMesh@Gu@physx@@UEAAPEAXI@Z 00000001800dadb0 f i GuTriangleMeshBV4.obj
 0001:000d9db0       ??_GBV4TriangleMesh@Gu@physx@@UEAAPEAXI@Z 00000001800dadb0 f i GuTriangleMeshBV4.obj
 0001:000d9e40       ?createObject@BV4TriangleMesh@Gu@physx@@SAPEAVTriangleMesh@23@AEAPEAEAEAVPxDeserializationContext@3@@Z 00000001800dae40 f   GuTriangleMeshBV4.obj
 0001:000d9f20       ?exportExtraData@BV4TriangleMesh@Gu@physx@@UEAAXAEAVPxSerializationContext@3@@Z 00000001800daf20 f   GuTriangleMeshBV4.obj
 0001:000d9f60       ?getConcreteTypeName@BV4TriangleMesh@Gu@physx@@UEBAPEBDXZ 00000001800daf60 f i GuTriangleMeshBV4.obj
 0001:000d9f70       ?getMidphaseID@BV4TriangleMesh@Gu@physx@@UEBA?AW4Enum@PxMeshMidPhase@3@XZ 00000001800daf70 f i GuTriangleMeshBV4.obj
 0001:000d9f70       ?length@charNode@@UEBAHXZ  00000001800daf70 f i libvcruntime:undname.obj
 0001:000d9f70       ?raw_length@charNode@@UEBAHXZ 00000001800daf70 f i libvcruntime:undname.obj
 0001:000d9f70       DllMain                    00000001800daf70 f i LIBCMT:dll_dllmain_stub.obj
 0001:000d9f70       _get_startup_argv_mode     00000001800daf70 f i LIBCMT:argv_mode.obj
 0001:000d9f80       ??0RTreeTriangleMesh@Gu@physx@@QEAA@AEAVGuMeshFactory@2@AEAVTriangleMeshData@12@@Z 00000001800daf80 f   GuTriangleMeshRTree.obj
 0001:000da0f8       ??_ERTreeTriangleMesh@Gu@physx@@WBA@EAAPEAXI@Z 00000001800db0f8 f i GuTriangleMeshRTree.obj
 0001:000da110       ??_E?$RefitCallback@G@physx@@UEAAPEAXI@Z 00000001800db110 f i GuTriangleMeshRTree.obj
 0001:000da110       ??_E?$RefitCallback@I@physx@@UEAAPEAXI@Z 00000001800db110 f i GuTriangleMeshRTree.obj
 0001:000da110       ??_G?$RefitCallback@G@physx@@UEAAPEAXI@Z 00000001800db110 f i GuTriangleMeshRTree.obj
 0001:000da110       ??_G?$RefitCallback@I@physx@@UEAAPEAXI@Z 00000001800db110 f i GuTriangleMeshRTree.obj
 0001:000da140       ??_ERTreeTriangleMesh@Gu@physx@@UEAAPEAXI@Z 00000001800db140 f i GuTriangleMeshRTree.obj
 0001:000da140       ??_GRTreeTriangleMesh@Gu@physx@@UEAAPEAXI@Z 00000001800db140 f i GuTriangleMeshRTree.obj
 0001:000da200       ?createObject@RTreeTriangleMesh@Gu@physx@@SAPEAVTriangleMesh@23@AEAPEAEAEAVPxDeserializationContext@3@@Z 00000001800db200 f   GuTriangleMeshRTree.obj
 0001:000da280       ?exportExtraData@RTreeTriangleMesh@Gu@physx@@UEAAXAEAVPxSerializationContext@3@@Z 00000001800db280 f   GuTriangleMeshRTree.obj
 0001:000da2c0       ?getConcreteTypeName@RTreeTriangleMesh@Gu@physx@@UEBAPEBDXZ 00000001800db2c0 f i GuTriangleMeshRTree.obj
 0001:000da2d0       ?getMidphaseID@RTreeTriangleMesh@Gu@physx@@UEBA?AW4Enum@PxMeshMidPhase@3@XZ 00000001800db2d0 f i GuTriangleMeshRTree.obj
 0001:000da2e0       ?getVerticesForModification@RTreeTriangleMesh@Gu@physx@@UEAAPEAVPxVec3@3@XZ 00000001800db2e0 f   GuTriangleMeshRTree.obj
 0001:000da2f0       ?recomputeBounds@?$RefitCallback@G@physx@@UEAAXIAEAT__m128@@0@Z 00000001800db2f0 f i GuTriangleMeshRTree.obj
 0001:000da610       ?recomputeBounds@?$RefitCallback@I@physx@@UEAAXIAEAT__m128@@0@Z 00000001800db610 f i GuTriangleMeshRTree.obj
 0001:000da930       ?refitBVH@RTreeTriangleMesh@Gu@physx@@UEAA?AVPxBounds3@3@XZ 00000001800db930 f   GuTriangleMeshRTree.obj
 0001:000dab40       ??0BV32Tree@Gu@physx@@QEAA@PEAVSourceMesh@12@AEBVPxBounds3@2@@Z 00000001800dbb40 f   GuBV32.obj
 0001:000dac00       ??0BV32Tree@Gu@physx@@QEAA@XZ 00000001800dbc00 f   GuBV32.obj
 0001:000dac30       ??1BV32Tree@Gu@physx@@QEAA@XZ 00000001800dbc30 f   GuBV32.obj
 0001:000dac40       ?calculateLeafNode@BV32Tree@Gu@physx@@QEAAXAEAUBV32Data@23@@Z 00000001800dbc40 f   GuBV32.obj
 0001:000dae50       ?createSOAformatNode@BV32Tree@Gu@physx@@QEAAXAEAUBV32DataPacked@23@AEBUBV32Data@23@IAEAI2@Z 00000001800dbe50 f   GuBV32.obj
 0001:000db270       ?load@BV32Tree@Gu@physx@@QEAA_NAEAVPxInputStream@3@_N@Z 00000001800dc270 f   GuBV32.obj
 0001:000db4a0       ?release@BV32Tree@Gu@physx@@QEAAXXZ 00000001800dc4a0 f   GuBV32.obj
 0001:000db530       ??0BV32Node@@QEAA@XZ       00000001800dc530 f i GuBV32Build.obj
 0001:000db850       ?BuildBV32Ex@Gu@physx@@YA_NAEAVBV32Tree@12@AEAVSourceMesh@12@MI@Z 00000001800dc850 f   GuBV32Build.obj
 0001:000deef0       ?pcmContactBoxBox@Gu@physx@@YA_NAEBVGeometryUnion@12@0AEBVPxTransform@2@1AEBUNarrowPhaseParams@12@AEAUCache@12@AEAVContactBuffer@12@PEAVRenderOutput@Cm@2@@Z 00000001800dfef0 f   GuPCMContactBoxBox.obj
 0001:000dfc70       ??$gjkPenetration@U?$RelativeConvex@VBoxV@Gu@physx@@@Gu@physx@@U?$LocalConvex@VConvexHullNoScaleV@Gu@physx@@@23@@Gu@physx@@YA?AW4GjkStatus@01@AEBU?$RelativeConvex@VBoxV@Gu@physx@@@01@AEBU?$LocalConvex@VConvexHullNoScaleV@Gu@physx@@@01@AEBT__m128@@2_NPEIAE4AEAEAEAUGjkOutput@01@@Z 00000001800e0c70 f i GuPCMContactBoxConvex.obj
 0001:000e1e30       ?pcmContactBoxConvex@Gu@physx@@YA_NAEBVGeometryUnion@12@0AEBVPxTransform@2@1AEBUNarrowPhaseParams@12@AEAUCache@12@AEAVContactBuffer@12@PEAVRenderOutput@Cm@2@@Z 00000001800e2e30 f   GuPCMContactBoxConvex.obj
 0001:000e2c70       ?support@?$LocalConvex@VConvexHullNoScaleV@Gu@physx@@@Gu@physx@@UEBA?AT__m128@@AEBT4@@Z 00000001800e3c70 f i GuPCMContactBoxConvex.obj
 0001:000e2cc0       ?support@?$LocalConvex@VConvexHullNoScaleV@Gu@physx@@@Gu@physx@@UEBA?AT__m128@@AEBT4@AEAH@Z 00000001800e3cc0 f i GuPCMContactBoxConvex.obj
 0001:000e2d20       ?supportPoint@?$LocalConvex@VConvexHullNoScaleV@Gu@physx@@@Gu@physx@@UEBA?AT__m128@@H@Z 00000001800e3d20 f i GuPCMContactBoxConvex.obj
 0001:000e2d50       ?pcmContactCapsuleBox@Gu@physx@@YA_NAEBVGeometryUnion@12@0AEBVPxTransform@2@1AEBUNarrowPhaseParams@12@AEAUCache@12@AEAVContactBuffer@12@PEAVRenderOutput@Cm@2@@Z 00000001800e3d50 f   GuPCMContactCapsuleBox.obj
 0001:000e3b80       ?pcmContactCapsuleCapsule@Gu@physx@@YA_NAEBVGeometryUnion@12@0AEBVPxTransform@2@1AEBUNarrowPhaseParams@12@AEAUCache@12@AEAVContactBuffer@12@PEAVRenderOutput@Cm@2@@Z 00000001800e4b80 f   GuPCMContactCapsuleCapsule.obj
 0001:000e4420       ??$gjkPenetration@U?$LocalConvex@VCapsuleV@Gu@physx@@@Gu@physx@@U?$LocalConvex@VConvexHullNoScaleV@Gu@physx@@@23@@Gu@physx@@YA?AW4GjkStatus@01@AEBU?$LocalConvex@VCapsuleV@Gu@physx@@@01@AEBU?$LocalConvex@VConvexHullNoScaleV@Gu@physx@@@01@AEBT__m128@@2_NPEIAE4AEAEAEAUGjkOutput@01@@Z 00000001800e5420 f i GuPCMContactCapsuleConvex.obj
 0001:000e6160       ?pcmContactCapsuleConvex@Gu@physx@@YA_NAEBVGeometryUnion@12@0AEBVPxTransform@2@1AEBUNarrowPhaseParams@12@AEAUCache@12@AEAVContactBuffer@12@PEAVRenderOutput@Cm@2@@Z 00000001800e7160 f   GuPCMContactCapsuleConvex.obj
 0001:000e7360       ??0PCMMeshContactGeneration@Gu@physx@@QEAA@AEBT__m128@@0AEBVPsTransformV@aos@shdfnd@2@1AEAVMultiplePersistentContactManifold@12@AEAVContactBuffer@12@PEAV?$InlineArray@I$0EEA@V?$ReflectionAllocator@I@shdfnd@physx@@@62@PEAVRenderOutput@Cm@2@@Z 00000001800e8360 f i GuPCMContactCapsuleHeightField.obj
 0001:000e7c60       ??_EPCMCapsuleVsHeightfieldContactGenerationCallback@physx@@UEAAPEAXI@Z 00000001800e8c60 f i GuPCMContactCapsuleHeightField.obj
 0001:000e7c60       ??_GPCMCapsuleVsHeightfieldContactGenerationCallback@physx@@UEAAPEAXI@Z 00000001800e8c60 f i GuPCMContactCapsuleHeightField.obj
 0001:000e7c90       ?onEvent@?$PCMHeightfieldContactGenerationCallback@UPCMCapsuleVsHeightfieldContactGenerationCallback@physx@@@Gu@physx@@UEAA_NIPEAI@Z 00000001800e8c90 f i GuPCMContactCapsuleHeightField.obj
 0001:000e8220       ?pcmContactCapsuleHeightField@Gu@physx@@YA_NAEBVGeometryUnion@12@0AEBVPxTransform@2@1AEBUNarrowPhaseParams@12@AEAUCache@12@AEAVContactBuffer@12@PEAVRenderOutput@Cm@2@@Z 00000001800e9220 f   GuPCMContactCapsuleHeightField.obj
 0001:000e8f80       ??$processTriangleCache@$0BA@@PCMCapsuleVsMeshContactGenerationCallback@physx@@QEAAXAEAU?$TriangleCache@$0BA@@Gu@1@@Z 00000001800e9f80 f i GuPCMContactCapsuleMesh.obj
 0001:000e9010       ??_EPCMCapsuleVsMeshContactGenerationCallback@physx@@UEAAPEAXI@Z 00000001800ea010 f i GuPCMContactCapsuleMesh.obj
 0001:000e9010       ??_GPCMCapsuleVsMeshContactGenerationCallback@physx@@UEAAPEAXI@Z 00000001800ea010 f i GuPCMContactCapsuleMesh.obj
 0001:000e9040       ?pcmContactCapsuleMesh@Gu@physx@@YA_NAEBVGeometryUnion@12@0AEBVPxTransform@2@1AEBUNarrowPhaseParams@12@AEAUCache@12@AEAVContactBuffer@12@PEAVRenderOutput@Cm@2@@Z 00000001800ea040 f   GuPCMContactCapsuleMesh.obj
 0001:000e9f80       ?processHit@?$PCMMeshContactGenerationCallback@UPCMCapsuleVsMeshContactGenerationCallback@physx@@@Gu@physx@@UEAA_NAEBUPxRaycastHit@3@AEBVPxVec3@3@11AEAMPEBI@Z 00000001800eaf80 f i GuPCMContactCapsuleMesh.obj
 0001:000ea330       ??$sort@USortedTriangle@Gu@physx@@U?$Less@USortedTriangle@Gu@physx@@@shdfnd@3@V?$ReflectionAllocator@USortedTriangle@Gu@physx@@@53@@shdfnd@physx@@YAXPEAUSortedTriangle@Gu@1@IAEBU?$Less@USortedTriangle@Gu@physx@@@01@AEBV?$ReflectionAllocator@USortedTriangle@Gu@physx@@@01@I@Z 00000001800eb330 f i GuPCMContactConvexCommon.obj
 0001:000ea800       ?addContactsToPatch@PCMConvexVsMeshContactGeneration@Gu@physx@@QEAAXAEBT__m128@@I@Z 00000001800eb800 f   GuPCMContactConvexCommon.obj
 0001:000eb120       ?addToPatch@PCMSphereVsMeshContactGeneration@Gu@physx@@QEAAXAEBT__m128@@0T4@I@Z 00000001800ec120 f   GuPCMContactConvexCommon.obj
 0001:000eb7e0       ?allocate@?$ReflectionAllocator@USortedTriangle@Gu@physx@@@shdfnd@physx@@QEAAPEAX_KPEBDH@Z 00000001800ec7e0 f i GuPCMContactConvexCommon.obj
 0001:000eb880       ?doSupport@?$SupportLocalImpl@VTriangleV@Gu@physx@@@Gu@physx@@UEBA?AT__m128@@AEBT4@@Z 00000001800ec880 f i GuPCMContactConvexCommon.obj
 0001:000eb910       ?doSupport@?$SupportLocalImpl@VTriangleV@Gu@physx@@@Gu@physx@@UEBAXAEBT__m128@@AEAT4@1@Z 00000001800ec910 f i GuPCMContactConvexCommon.obj
 0001:000eb980       ?generateContacts@PCMCapsuleVsMeshContactGeneration@Gu@physx@@SA_NAEBT__m128@@0000I000PEAVMeshPersistentContact@23@AEAI@Z 00000001800ec980 f   GuPCMContactConvexCommon.obj
 0001:000ebdc0       ?generateEE@PCMCapsuleVsMeshContactGeneration@Gu@physx@@QEAAXAEBT__m128@@000I00PEAVMeshPersistentContact@23@AEAI@Z 00000001800ecdc0 f   GuPCMContactConvexCommon.obj
 0001:000ec040       ?generateEEMTD@PCMCapsuleVsMeshContactGeneration@Gu@physx@@SAXAEBT__m128@@000I00PEAVMeshPersistentContact@23@AEAI@Z 00000001800ed040 f   GuPCMContactConvexCommon.obj
 0001:000ec290       ?generateLastContacts@PCMConvexVsMeshContactGeneration@Gu@physx@@QEAAXXZ 00000001800ed290 f   GuPCMContactConvexCommon.obj
 0001:000ec740       ?generateLastContacts@PCMSphereVsMeshContactGeneration@Gu@physx@@QEAAXXZ 00000001800ed740 f   GuPCMContactConvexCommon.obj
 0001:000ecb40       ?get@?$CacheMap@UCachedEdge@Gu@physx@@$0IA@@Gu@physx@@QEBAPEBUCachedEdge@23@AEBU423@@Z 00000001800edb40 f i GuPCMContactConvexCommon.obj
 0001:000ecbc0       ?growAndPushBack@?$Array@USortedTriangle@Gu@physx@@V?$InlineAllocator@$0IAA@V?$ReflectionAllocator@USortedTriangle@Gu@physx@@@shdfnd@physx@@@shdfnd@3@@shdfnd@physx@@IEAAAEAUSortedTriangle@Gu@3@AEBU453@@Z 00000001800edbc0 f i GuPCMContactConvexCommon.obj
 0001:000ed220       ?pcmDistanceSegmentTriangleSquared@Gu@physx@@YA?AT__m128@@AEBT3@0000AEAT3@11@Z 00000001800ee220 f   GuPCMContactConvexCommon.obj
 0001:000edb70       ?populateVerts@?$SupportLocalImpl@VTriangleV@Gu@physx@@@Gu@physx@@UEBAXPEBEIPEBVPxVec3@3@PEAT__m128@@@Z 00000001800eeb70 f i GuPCMContactConvexCommon.obj
 0001:000edcb0       ?processTriangle@PCMCapsuleVsMeshContactGeneration@Gu@physx@@QEAA_NPEBVPxVec3@3@IEPEBI@Z 00000001800eecb0 f   GuPCMContactConvexCommon.obj
 0001:000ee860       ?processTriangle@PCMCapsuleVsMeshContactGeneration@Gu@physx@@SA_NAEBVTriangleV@23@IAEBVCapsuleV@23@AEBT__m128@@EPEAVMeshPersistentContact@23@AEAI@Z 00000001800ef860 f   GuPCMContactConvexCommon.obj
 0001:000eeb80       ?processTriangle@PCMConvexVsMeshContactGeneration@Gu@physx@@QEAA_NPEBVPxVec3@3@IEPEBI@Z 00000001800efb80 f   GuPCMContactConvexCommon.obj
 0001:000eefb0       ?processTriangle@PCMConvexVsMeshContactGeneration@Gu@physx@@SA_NAEBUPolygonalData@23@PEAVSupportLocal@23@PEBVPxVec3@3@IEAEBT__m128@@_NAEBVPsTransformV@aos@shdfnd@3@AEBVPsMatTransformV@9shdfnd@3@PEAVMeshPersistentContact@23@AEAI@Z 00000001800effb0 f   GuPCMContactConvexCommon.obj
 0001:000ef250       ?processTriangle@PCMSphereVsMeshContactGeneration@Gu@physx@@QEAA_NPEBVPxVec3@3@IEPEBI@Z 00000001800f0250 f   GuPCMContactConvexCommon.obj
 0001:000ef650       ??$gjkPenetration@U?$RelativeConvex@VConvexHullNoScaleV@Gu@physx@@@Gu@physx@@U?$LocalConvex@VConvexHullNoScaleV@Gu@physx@@@23@@Gu@physx@@YA?AW4GjkStatus@01@AEBU?$RelativeConvex@VConvexHullNoScaleV@Gu@physx@@@01@AEBU?$LocalConvex@VConvexHullNoScaleV@Gu@physx@@@01@AEBT__m128@@2_NPEIAE4AEAEAEAUGjkOutput@01@@Z 00000001800f0650 f i GuPCMContactConvexConvex.obj
 0001:000f1190       ??$gjkPenetration@U?$RelativeConvex@VConvexHullNoScaleV@Gu@physx@@@Gu@physx@@U?$LocalConvex@VConvexHullV@Gu@physx@@@23@@Gu@physx@@YA?AW4GjkStatus@01@AEBU?$RelativeConvex@VConvexHullNoScaleV@Gu@physx@@@01@AEBU?$LocalConvex@VConvexHullV@Gu@physx@@@01@AEBT__m128@@2_NPEIAE4AEAEAEAUGjkOutput@01@@Z 00000001800f2190 f i GuPCMContactConvexConvex.obj
 0001:000f2d70       ??$gjkPenetration@U?$RelativeConvex@VConvexHullV@Gu@physx@@@Gu@physx@@U?$LocalConvex@VConvexHullNoScaleV@Gu@physx@@@23@@Gu@physx@@YA?AW4GjkStatus@01@AEBU?$RelativeConvex@VConvexHullV@Gu@physx@@@01@AEBU?$LocalConvex@VConvexHullNoScaleV@Gu@physx@@@01@AEBT__m128@@2_NPEIAE4AEAEAEAUGjkOutput@01@@Z 00000001800f3d70 f i GuPCMContactConvexConvex.obj
 0001:000f5320       ?pcmContactConvexConvex@Gu@physx@@YA_NAEBVGeometryUnion@12@0AEBVPxTransform@2@1AEBUNarrowPhaseParams@12@AEAUCache@12@AEAVContactBuffer@12@PEAVRenderOutput@Cm@2@@Z 00000001800f6320 f   GuPCMContactConvexConvex.obj
 0001:000f64e0       ?support@?$RelativeConvex@VConvexHullNoScaleV@Gu@physx@@@Gu@physx@@UEBA?AT__m128@@AEBT4@@Z 00000001800f74e0 f i GuPCMContactConvexConvex.obj
 0001:000f6590       ?support@?$RelativeConvex@VConvexHullNoScaleV@Gu@physx@@@Gu@physx@@UEBA?AT__m128@@AEBT4@AEAH@Z 00000001800f7590 f i GuPCMContactConvexConvex.obj
 0001:000f6650       ?supportPoint@?$RelativeConvex@VConvexHullNoScaleV@Gu@physx@@@Gu@physx@@UEBA?AT__m128@@H@Z 00000001800f7650 f i GuPCMContactConvexConvex.obj
 0001:000f66b0       ??_EPCMConvexVsHeightfieldContactGenerationCallback@physx@@UEAAPEAXI@Z 00000001800f76b0 f i GuPCMContactConvexHeightField.obj
 0001:000f66b0       ??_GPCMConvexVsHeightfieldContactGenerationCallback@physx@@UEAAPEAXI@Z 00000001800f76b0 f i GuPCMContactConvexHeightField.obj
 0001:000f66e0       ?PCMContactConvexHeightfield@Gu@physx@@YA_NAEBUPolygonalData@12@PEAVSupportLocal@12@AEBT__m128@@AEBVPxBounds3@2@AEBVPxHeightFieldGeometry@2@AEBVPxTransform@2@5MAEAVContactBuffer@12@AEBVFastVertex2ShapeScaling@Cm@2@_NAEAVMultiplePersistentContactManifold@12@PEAVRenderOutput@Cm@2@@Z 00000001800f76e0 f   GuPCMContactConvexHeightField.obj
 0001:000f71c0       ?onEvent@?$PCMHeightfieldContactGenerationCallback@UPCMConvexVsHeightfieldContactGenerationCallback@physx@@@Gu@physx@@UEAA_NIPEAI@Z 00000001800f81c0 f i GuPCMContactConvexHeightField.obj
 0001:000f7750       ?pcmContactBoxHeightField@Gu@physx@@YA_NAEBVGeometryUnion@12@0AEBVPxTransform@2@1AEBUNarrowPhaseParams@12@AEAUCache@12@AEAVContactBuffer@12@PEAVRenderOutput@Cm@2@@Z 00000001800f8750 f   GuPCMContactConvexHeightField.obj
 0001:000f79d0       ?pcmContactConvexHeightField@Gu@physx@@YA_NAEBVGeometryUnion@12@0AEBVPxTransform@2@1AEBUNarrowPhaseParams@12@AEAUCache@12@AEAVContactBuffer@12@PEAVRenderOutput@Cm@2@@Z 00000001800f89d0 f   GuPCMContactConvexHeightField.obj
 0001:000f8040       ??$processTriangleCache@$0BA@@PCMConvexVsMeshContactGenerationCallback@physx@@QEAAXAEAU?$TriangleCache@$0BA@@Gu@1@@Z 00000001800f9040 f i GuPCMContactConvexMesh.obj
 0001:000f80d0       ??_EPCMConvexVsMeshContactGenerationCallback@physx@@UEAAPEAXI@Z 00000001800f90d0 f i GuPCMContactConvexMesh.obj
 0001:000f80d0       ??_GPCMConvexVsMeshContactGenerationCallback@physx@@UEAAPEAXI@Z 00000001800f90d0 f i GuPCMContactConvexMesh.obj
 0001:000f8100       ?PCMContactConvexMesh@Gu@physx@@YA_NAEBUPolygonalData@12@PEAVSupportLocal@12@AEBT__m128@@AEBVPxBounds3@2@AEBUPxTriangleMeshGeometryLL@2@AEBVPxTransform@2@5MAEAVContactBuffer@12@AEBVFastVertex2ShapeScaling@Cm@2@7_N8AEAVMultiplePersistentContactManifold@12@PEAVRenderOutput@Cm@2@@Z 00000001800f9100 f   GuPCMContactConvexMesh.obj
 0001:000f8cd0       ?pcmContactBoxMesh@Gu@physx@@YA_NAEBVGeometryUnion@12@0AEBVPxTransform@2@1AEBUNarrowPhaseParams@12@AEAUCache@12@AEAVContactBuffer@12@PEAVRenderOutput@Cm@2@@Z 00000001800f9cd0 f   GuPCMContactConvexMesh.obj
 0001:000f8fe0       ?pcmContactConvexMesh@Gu@physx@@YA_NAEBVGeometryUnion@12@0AEBVPxTransform@2@1AEBUNarrowPhaseParams@12@AEAUCache@12@AEAVContactBuffer@12@PEAVRenderOutput@Cm@2@@Z 00000001800f9fe0 f   GuPCMContactConvexMesh.obj
 0001:000f96d0       ?processHit@?$PCMMeshContactGenerationCallback@UPCMConvexVsMeshContactGenerationCallback@physx@@@Gu@physx@@UEAA_NAEBUPxRaycastHit@3@AEBVPxVec3@3@11AEAMPEBI@Z 00000001800fa6d0 f i GuPCMContactConvexMesh.obj
 0001:000f9af0       ?addGJKEPAContacts@Gu@physx@@YA_NPEBUGjkConvex@12@0AEBVPsMatTransformV@aos@shdfnd@2@W4GjkStatus@12@PEAVPersistentContact@12@T__m128@@4AEAUGjkOutput@12@AEAVPersistentContactManifold@12@@Z 00000001800faaf0 f   GuPCMContactGenBoxConvex.obj
 0001:000f9cf0       ?buildPartialHull@Gu@physx@@YAXAEBUPolygonalData@12@PEAVSupportLocal@12@AEAVSeparatingAxes@12@AEBT__m128@@3@Z 00000001800facf0 f   GuPCMContactGenBoxConvex.obj
 0001:000f9fb0       ?computeMTD@Gu@physx@@YA_NAEAUPolygonalData@12@0PEAVSupportLocal@12@1AEAT__m128@@2@Z 00000001800fafb0 f   GuPCMContactGenBoxConvex.obj
 0001:000fa600       ?generateFullContactManifold@Gu@physx@@YA_NAEAUPolygonalData@12@0PEAVSupportLocal@12@1PEAVPersistentContact@12@AEAIAEBT__m128@@444MM_NPEAVRenderOutput@Cm@2@M@Z 00000001800fb600 f   GuPCMContactGenBoxConvex.obj
 0001:000fbdd0       ?generatedContacts@Gu@physx@@YAXAEAUPolygonalData@12@0AEBUHullPolygonData@12@1PEAVSupportLocal@12@2AEBVPsMatTransformV@aos@shdfnd@2@PEAVPersistentContact@12@AEAIAEBT__m128@@PEAVRenderOutput@Cm@2@@Z 00000001800fcdd0 f   GuPCMContactGenBoxConvex.obj
 0001:000fd500       ?computeMTD@Gu@physx@@YA_NAEBVCapsuleV@12@AEAUPolygonalData@12@PEAVSupportLocal@12@AEAT__m128@@3@Z 00000001800fe500 f   GuPCMContactGenSphereCapsule.obj
 0001:000fd5f0       ?generateCapsuleBoxFullContactManifold@Gu@physx@@YA_NAEBVCapsuleV@12@AEAUPolygonalData@12@PEAVSupportLocal@12@AEBVPsMatTransformV@aos@shdfnd@2@PEAVPersistentContact@12@AEAIAEBT__m128@@AEAT__m128@@6M_NMPEAVRenderOutput@Cm@2@@Z 00000001800fe5f0 f   GuPCMContactGenSphereCapsule.obj
 0001:000fde70       ?generateFullContactManifold@Gu@physx@@YA_NAEBVCapsuleV@12@AEAUPolygonalData@12@PEAVSupportLocal@12@AEBVPsMatTransformV@aos@shdfnd@2@PEAVPersistentContact@12@AEAIAEBT__m128@@AEAT__m128@@6M_NM@Z 00000001800fee70 f   GuPCMContactGenSphereCapsule.obj
 0001:000fe770       ?generateSphereFullContactManifold@Gu@physx@@YA_NAEBVCapsuleV@12@AEAUPolygonalData@12@PEAVSupportLocal@12@PEAVPersistentContact@12@AEAIAEBT__m128@@AEAT7@_N@Z 00000001800ff770 f   GuPCMContactGenSphereCapsule.obj
 0001:000feba0       ?generatedCapsuleBoxFaceContacts@Gu@physx@@YAXAEBVCapsuleV@12@AEAUPolygonalData@12@AEBUHullPolygonData@12@PEAVSupportLocal@12@AEBVPsMatTransformV@aos@shdfnd@2@PEAVPersistentContact@12@AEAIAEBT__m128@@7@Z 00000001800ffba0 f   GuPCMContactGenSphereCapsule.obj
 0001:000ff350       ?generatedContactsEEContacts@Gu@physx@@YAXAEBVCapsuleV@12@AEAUPolygonalData@12@AEBUHullPolygonData@12@PEAVSupportLocal@12@AEBVPsMatTransformV@aos@shdfnd@2@PEAVPersistentContact@12@AEAIAEBT__m128@@7@Z 0000000180100350 f   GuPCMContactGenSphereCapsule.obj
 0001:00100010       ?pcmContactPlaneBox@Gu@physx@@YA_NAEBVGeometryUnion@12@0AEBVPxTransform@2@1AEBUNarrowPhaseParams@12@AEAUCache@12@AEAVContactBuffer@12@PEAVRenderOutput@Cm@2@@Z 0000000180101010 f   GuPCMContactPlaneBox.obj
 0001:00100b80       ?pcmContactPlaneCapsule@Gu@physx@@YA_NAEBVGeometryUnion@12@0AEBVPxTransform@2@1AEBUNarrowPhaseParams@12@AEAUCache@12@AEAVContactBuffer@12@PEAVRenderOutput@Cm@2@@Z 0000000180101b80 f   GuPCMContactPlaneCapsule.obj
 0001:00101320       ?pcmContactPlaneConvex@Gu@physx@@YA_NAEBVGeometryUnion@12@0AEBVPxTransform@2@1AEBUNarrowPhaseParams@12@AEAUCache@12@AEAVContactBuffer@12@PEAVRenderOutput@Cm@2@@Z 0000000180102320 f   GuPCMContactPlaneConvex.obj
 0001:00101cb0       ?pcmContactSphereBox@Gu@physx@@YA_NAEBVGeometryUnion@12@0AEBVPxTransform@2@1AEBUNarrowPhaseParams@12@AEAUCache@12@AEAVContactBuffer@12@PEAVRenderOutput@Cm@2@@Z 0000000180102cb0 f   GuPCMContactSphereBox.obj
 0001:00102120       ?pcmContactSphereCapsule@Gu@physx@@YA_NAEBVGeometryUnion@12@0AEBVPxTransform@2@1AEBUNarrowPhaseParams@12@AEAUCache@12@AEAVContactBuffer@12@PEAVRenderOutput@Cm@2@@Z 0000000180103120 f   GuPCMContactSphereCapsule.obj
 0001:00102580       ?pcmContactSphereConvex@Gu@physx@@YA_NAEBVGeometryUnion@12@0AEBVPxTransform@2@1AEBUNarrowPhaseParams@12@AEAUCache@12@AEAVContactBuffer@12@PEAVRenderOutput@Cm@2@@Z 0000000180103580 f   GuPCMContactSphereConvex.obj
 0001:001032b0       ??1?$Array@USortedTriangle@Gu@physx@@V?$InlineAllocator@$0IAA@V?$ReflectionAllocator@USortedTriangle@Gu@physx@@@shdfnd@physx@@@shdfnd@3@@shdfnd@physx@@QEAA@XZ 00000001801042b0 f i GuPCMContactSphereHeightField.obj
 0001:00103320       ??_EPCMSphereVsHeightfieldContactGenerationCallback@physx@@UEAAPEAXI@Z 0000000180104320 f i GuPCMContactSphereHeightField.obj
 0001:00103320       ??_GPCMSphereVsHeightfieldContactGenerationCallback@physx@@UEAAPEAXI@Z 0000000180104320 f i GuPCMContactSphereHeightField.obj
 0001:00103370       ?onEvent@?$PCMHeightfieldContactGenerationCallback@UPCMSphereVsHeightfieldContactGenerationCallback@physx@@@Gu@physx@@UEAA_NIPEAI@Z 0000000180104370 f i GuPCMContactSphereHeightField.obj
 0001:00103900       ?pcmContactSphereHeightField@Gu@physx@@YA_NAEBVGeometryUnion@12@0AEBVPxTransform@2@1AEBUNarrowPhaseParams@12@AEAUCache@12@AEAVContactBuffer@12@PEAVRenderOutput@Cm@2@@Z 0000000180104900 f   GuPCMContactSphereHeightField.obj
 0001:001043d0       ??$processTriangleCache@$0BA@@PCMSphereVsMeshContactGenerationCallback@physx@@QEAAXAEAU?$TriangleCache@$0BA@@Gu@1@@Z 00000001801053d0 f i GuPCMContactSphereMesh.obj
 0001:00104460       ??_EPCMSphereVsMeshContactGenerationCallback@physx@@UEAAPEAXI@Z 0000000180105460 f i GuPCMContactSphereMesh.obj
 0001:00104460       ??_GPCMSphereVsMeshContactGenerationCallback@physx@@UEAAPEAXI@Z 0000000180105460 f i GuPCMContactSphereMesh.obj
 0001:001044b0       ?pcmContactSphereMesh@Gu@physx@@YA_NAEBVGeometryUnion@12@0AEBVPxTransform@2@1AEBUNarrowPhaseParams@12@AEAUCache@12@AEAVContactBuffer@12@PEAVRenderOutput@Cm@2@@Z 00000001801054b0 f   GuPCMContactSphereMesh.obj
 0001:001050c0       ?processHit@?$PCMMeshContactGenerationCallback@UPCMSphereVsMeshContactGenerationCallback@physx@@@Gu@physx@@UEAA_NAEBUPxRaycastHit@3@AEBVPxVec3@3@11AEAMPEBI@Z 00000001801060c0 f i GuPCMContactSphereMesh.obj
 0001:00105470       ?pcmContactSpherePlane@Gu@physx@@YA_NAEBVGeometryUnion@12@0AEBVPxTransform@2@1AEBUNarrowPhaseParams@12@AEAUCache@12@AEAVContactBuffer@12@PEAVRenderOutput@Cm@2@@Z 0000000180106470 f   GuPCMContactSpherePlane.obj
 0001:00105600       ?pcmContactSphereSphere@Gu@physx@@YA_NAEBVGeometryUnion@12@0AEBVPxTransform@2@1AEBUNarrowPhaseParams@12@AEAUCache@12@AEAVContactBuffer@12@PEAVRenderOutput@Cm@2@@Z 0000000180106600 f   GuPCMContactSphereSphere.obj
 0001:001056f0       ?getPCMConvexData@Gu@physx@@YAXAEBVConvexHullV@12@_NAEAUPolygonalData@12@@Z 00000001801066f0 f   GuPCMShapeConvex.obj
 0001:00105850       ?getPCMConvexData@Gu@physx@@YA_NAEBVGeometryUnion@12@AEAVFastVertex2ShapeScaling@Cm@2@AEAVPxBounds3@2@AEAUPolygonalData@12@@Z 0000000180106850 f   GuPCMShapeConvex.obj
 0001:00105bd0       ?getPolygonalData@PCMPolygonalBox@Gu@physx@@QEBAXPEIAUPolygonalData@23@@Z 0000000180106bd0 f   GuPCMShapeConvex.obj
 0001:00105c20       ?generatePolyDataContactManifold@PCMConvexVsMeshContactGeneration@Gu@physx@@QEAA_NAEAVTriangleV@23@IIEPEAVMeshPersistentContact@23@AEAIAEBT__m128@@AEAT6@@Z 0000000180106c20 f   GuPCMTriangleContactGen.obj
 0001:00105d30       ?generateTriangleFullContactManifold@PCMConvexVsMeshContactGeneration@Gu@physx@@QEAA_NAEAVTriangleV@23@IPEBIEAEBUPolygonalData@23@PEAV?$SupportLocalImpl@VTriangleV@Gu@physx@@@23@PEAVSupportLocal@23@PEAVMeshPersistentContact@23@AEAIAEBT__m128@@AEAT9@@Z 0000000180106d30 f   GuPCMTriangleContactGen.obj
 0001:00106630       ?generateTriangleFullContactManifold@PCMConvexVsMeshContactGeneration@Gu@physx@@SA_NAEAVTriangleV@23@IEAEBUPolygonalData@23@PEAV?$SupportLocalImpl@VTriangleV@Gu@physx@@@23@PEAVSupportLocal@23@PEAVMeshPersistentContact@23@AEAIAEBT__m128@@AEAT9@PEAVRenderOutput@Cm@3@@Z 0000000180107630 f   GuPCMTriangleContactGen.obj
 0001:00108d90       ?addBatchManifoldContacts2@PersistentContactManifold@Gu@physx@@QEAAXPEBVPersistentContact@23@I@Z 0000000180109d90 f   GuPersistentContactManifold.obj
 0001:00108e00       ?addBatchManifoldContacts@PersistentContactManifold@Gu@physx@@QEAAXPEBVPersistentContact@23@IM@Z 0000000180109e00 f   GuPersistentContactManifold.obj
 0001:00108e80       ?addBatchManifoldContactsCluster@PersistentContactManifold@Gu@physx@@QEAAXPEBVPersistentContact@23@I@Z 0000000180109e80 f   GuPersistentContactManifold.obj
 0001:00109100       ?addManifoldContactPoints@MultiplePersistentContactManifold@Gu@physx@@QEAAXPEAVMeshPersistentContact@23@IPEAPEAUPCMContactPatch@23@IAEBT__m128@@2E@Z 000000018010a100 f   GuPersistentContactManifold.obj
 0001:001094e0       ?addManifoldContactsToContactBuffer@MultiplePersistentContactManifold@Gu@physx@@QEAA_NAEAVContactBuffer@23@AEBVPsTransformV@aos@shdfnd@3@1AEBT__m128@@@Z 000000018010a4e0 f   GuPersistentContactManifold.obj
 0001:00109780       ?addManifoldContactsToContactBuffer@MultiplePersistentContactManifold@Gu@physx@@QEAA_NAEAVContactBuffer@23@AEBVPsTransformV@aos@shdfnd@3@@Z 000000018010a780 f   GuPersistentContactManifold.obj
 0001:001099f0       ?addManifoldContactsToContactBuffer@PersistentContactManifold@Gu@physx@@QEAAXAEAVContactBuffer@23@AEBT__m128@@1AEBVPsTransformV@aos@shdfnd@3@11@Z 000000018010a9f0 f   GuPersistentContactManifold.obj
 0001:00109ba0       ?addManifoldContactsToContactBuffer@PersistentContactManifold@Gu@physx@@QEAAXAEAVContactBuffer@23@AEBT__m128@@AEBVPsMatTransformV@aos@shdfnd@3@@Z 000000018010aba0 f   GuPersistentContactManifold.obj
 0001:00109c60       ?addManifoldContactsToContactBuffer@PersistentContactManifold@Gu@physx@@QEAAXAEAVContactBuffer@23@AEBT__m128@@AEBVPsTransformV@aos@shdfnd@3@1@Z 000000018010ac60 f   GuPersistentContactManifold.obj
 0001:00109dc0       ?addManifoldPoint2@PersistentContactManifold@Gu@physx@@QEAAIAEBT__m128@@000@Z 000000018010adc0 f   GuPersistentContactManifold.obj
 0001:00109ef0       ?addManifoldPoint@Gu@physx@@YAXPEAVPersistentContact@12@AEAVPersistentContactManifold@12@AEAUGjkOutput@12@AEBVPsMatTransformV@aos@shdfnd@2@T__m128@@@Z 000000018010aef0 f   GuPersistentContactManifold.obj
 0001:0010a0b0       ?addManifoldPoint@PersistentContactManifold@Gu@physx@@QEAAIAEBT__m128@@000@Z 000000018010b0b0 f   GuPersistentContactManifold.obj
 0001:0010a500       ?drawLine@MultiplePersistentContactManifold@Gu@physx@@SAXAEAVRenderOutput@Cm@3@AEBT__m128@@1I@Z 000000018010b500 f   GuPersistentContactManifold.obj
 0001:0010a5c0       ?drawLine@MultiplePersistentContactManifold@Gu@physx@@SAXAEAVRenderOutput@Cm@3@VPxVec3@3@1I@Z 000000018010b5c0 f   GuPersistentContactManifold.obj
 0001:0010a680       ?drawManifold@MultiplePersistentContactManifold@Gu@physx@@QEAAXAEAVRenderOutput@Cm@3@AEBVPsTransformV@aos@shdfnd@3@1@Z 000000018010b680 f   GuPersistentContactManifold.obj
 0001:0010ae30       ?drawPoint@MultiplePersistentContactManifold@Gu@physx@@SAXAEAVRenderOutput@Cm@3@AEBT__m128@@MI@Z 000000018010be30 f   GuPersistentContactManifold.obj
 0001:0010b010       ?drawPolygon@MultiplePersistentContactManifold@Gu@physx@@SAXAEAVRenderOutput@Cm@3@AEBVPsTransformV@aos@shdfnd@3@PEAT__m128@@II@Z 000000018010c010 f   GuPersistentContactManifold.obj
 0001:0010b2e0       ?findRotationMatrixFromZAxis@Gu@physx@@YA?AUMat33V@aos@shdfnd@2@AEBT__m128@@@Z 000000018010c2e0 f   GuPersistentContactManifold.obj
 0001:0010b570       ?fromBuffer@MultiplePersistentContactManifold@Gu@physx@@QEAAXPEIAE@Z 000000018010c570 f   GuPersistentContactManifold.obj
 0001:0010b6d0       ?reduceBatchContacts2@PersistentContactManifold@Gu@physx@@QEAAXPEBVPersistentContact@23@I@Z 000000018010c6d0 f   GuPersistentContactManifold.obj
 0001:0010b8d0       ?reduceBatchContacts@PersistentContactManifold@Gu@physx@@QEAAXPEBVPersistentContact@23@IM@Z 000000018010c8d0 f   GuPersistentContactManifold.obj
 0001:0010bda0       ?reduceBatchContactsCapsule@SinglePersistentContactManifold@Gu@physx@@QEAA?AT__m128@@PEBVMeshPersistentContact@23@IAEAUPCMContactPatch@23@@Z 000000018010cda0 f   GuPersistentContactManifold.obj
 0001:0010c030       ?reduceBatchContactsCluster@PersistentContactManifold@Gu@physx@@QEAAXPEBVPersistentContact@23@I@Z 000000018010d030 f   GuPersistentContactManifold.obj
 0001:0010c4e0       ?reduceBatchContactsConvex@SinglePersistentContactManifold@Gu@physx@@QEAA?AT__m128@@PEBVMeshPersistentContact@23@IAEAUPCMContactPatch@23@@Z 000000018010d4e0 f   GuPersistentContactManifold.obj
 0001:0010cae0       ?reduceContacts@SinglePersistentContactManifold@Gu@physx@@SAIPEAVMeshPersistentContact@23@I@Z 000000018010dae0 f   GuPersistentContactManifold.obj
 0001:0010cfe0       ?reduceContactsForPCM@PersistentContactManifold@Gu@physx@@QEAAIAEBT__m128@@00@Z 000000018010dfe0 f   GuPersistentContactManifold.obj
 0001:0010d570       ?refreshContactPoints@SinglePersistentContactManifold@Gu@physx@@QEAA?AT__m128@@AEBVPsMatTransformV@aos@shdfnd@3@AEBT4@1@Z 000000018010e570 f   GuPersistentContactManifold.obj
 0001:0010d6d0       ?replaceManifoldPoint@PersistentContactManifold@Gu@physx@@QEAA_NAEBT__m128@@000@Z 000000018010e6d0 f   GuPersistentContactManifold.obj
 0001:0010d790       ?sweepBoxBox@Gu@physx@@YA_NAEBVBox@12@0AEBVPxVec3@2@MV?$PxFlags@W4Enum@PxHitFlag@physx@@G@2@AEAUPxSweepHit@2@@Z 000000018010e790 f   GuSweepBoxBox.obj
 0001:0010ede0       ?sweepBoxSphere@Gu@physx@@YA_NAEBVBox@12@MAEBVPxVec3@2@1MAEAMAEAV42@V?$PxFlags@W4Enum@PxHitFlag@physx@@G@2@@Z 000000018010fde0 f   GuSweepBoxSphere.obj
 0001:0010f8c0       ?sweepBoxTriangle@Gu@physx@@YA_NAEBVPxTriangle@2@AEBVPxBounds3@2@AEBVPxVec3@2@2AEAV52@3AEAM_N@Z 00000001801108c0 f   GuSweepBoxTriangle_FeatureBased.obj
 0001:00110da0       ?triBoxSweepTestBoxSpace@Gu@physx@@YAHAEBVPxTriangle@2@AEBVPxVec3@2@11MAEAM_N@Z 0000000180111da0 f   GuSweepBoxTriangle_SAT.obj
 0001:00112690       ?sweepCapsuleBox@Gu@physx@@YA_NAEBVCapsule@12@AEBVPxTransform@2@AEBVPxVec3@2@2MAEAV52@AEAM3V?$PxFlags@W4Enum@PxHitFlag@physx@@G@2@@Z 0000000180113690 f   GuSweepCapsuleBox.obj
 0001:00112a10       ?distancePointSegmentSquared@Gu@physx@@YAMAEBVSegment@12@AEBVPxVec3@2@PEAM@Z 0000000180113a10 f i GuSweepCapsuleCapsule.obj
 0001:00112de0       ?sweepCapsuleCapsule@Gu@physx@@YA_NAEBVCapsule@12@0AEBVPxVec3@2@MAEAMAEAV42@3IAEAG@Z 0000000180113de0 f   GuSweepCapsuleCapsule.obj
 0001:00113c00       ?sweepCapsuleTriangles_Precise@Gu@physx@@YA_NIPEIBVPxTriangle@2@AEBVCapsule@12@AEBVPxVec3@2@MPEIBIAEAUPxSweepHit@2@AEAV52@V?$PxFlags@W4Enum@PxHitFlag@physx@@G@2@_NPEBVBoxPadded@12@@Z 0000000180114c00 f   GuSweepCapsuleTriangle.obj
 0001:00115c00       ?sweepSphereCapsule@Gu@physx@@YA_NAEBVSphere@12@AEBVCapsule@12@AEBVPxVec3@2@MAEAMAEAV52@4V?$PxFlags@W4Enum@PxHitFlag@physx@@G@2@@Z 0000000180116c00 f   GuSweepSphereCapsule.obj
 0001:001162b0       ?sweepSphereSphere@Gu@physx@@YA_NAEBVPxVec3@2@M0M0AEAMAEAV32@@Z 00000001801172b0 f   GuSweepSphereSphere.obj
 0001:00116530       ?sweepSphereTriangles@Gu@physx@@YA_NIPEIBVPxTriangle@2@AEBVPxVec3@2@M1MPEIBIAEAUPxSweepHit@2@AEAV42@_N555@Z 0000000180117530 f   GuSweepSphereTriangle.obj
 0001:00116dd0       ?sweepSphereVSQuad@Gu@physx@@YA_NPEIBVPxVec3@2@AEBV32@1M1AEAM@Z 0000000180117dd0 f   GuSweepSphereTriangle.obj
 0001:00118310       ?sweepSphereVSTri@Gu@physx@@YA_NPEIBVPxVec3@2@AEBV32@1M1AEAMAEA_N_N@Z 0000000180119310 f   GuSweepSphereTriangle.obj
 0001:001191a0       ??$gjk@U?$LocalConvex@VTriangleV@Gu@physx@@@Gu@physx@@U?$LocalConvex@VBoxV@Gu@physx@@@23@@Gu@physx@@YA?AW4GjkStatus@01@AEBU?$LocalConvex@VTriangleV@Gu@physx@@@01@AEBU?$LocalConvex@VBoxV@Gu@physx@@@01@AEBT__m128@@2AEAT5@333@Z 000000018011a1a0 f i GuSweepTriangleUtils.obj
 0001:00119e10       ?computeBoxTriImpactData@Gu@physx@@YAXAEAVPxVec3@2@0AEBV32@1AEBVPxTriangle@2@M@Z 000000018011ae10 f   GuSweepTriangleUtils.obj
 0001:0011a090       ?computeEdgeEdgeNormal@Gu@physx@@YAXAEAVPxVec3@2@AEBV32@1111M@Z 000000018011b090 f   GuSweepTriangleUtils.obj
 0001:0011a360       ?computeSphereTriImpactData@Gu@physx@@YAXAEAVPxVec3@2@0AEBV32@1MAEBVPxTriangle@2@@Z 000000018011b360 f   GuSweepTriangleUtils.obj
 0001:0011a838       __tailMerge_physxfoundation_64_dll 000000018011b838     PhysXFoundation_64:PhysXFoundation_64.dll
 0001:0011a8b1       __imp_load_PxGetFoundation 000000018011b8b1 f   PhysXFoundation_64:PhysXFoundation_64.dll
 0001:0011a8bd       __imp_load_?getAllocator@shdfnd@physx@@YAAEAVPxAllocatorCallback@2@XZ 000000018011b8bd f   PhysXFoundation_64:PhysXFoundation_64.dll
 0001:0011a8c9       __imp_load_?getInstance@Foundation@shdfnd@physx@@SAAEAV123@XZ 000000018011b8c9 f   PhysXFoundation_64:PhysXFoundation_64.dll
 0001:0011a8d5       __imp_load_?error@Foundation@shdfnd@physx@@QEAAXW4Enum@PxErrorCode@3@PEBDH1ZZ 000000018011b8d5 f   PhysXFoundation_64:PhysXFoundation_64.dll
 0001:0011a8e1       __imp_load_?vsnprintf@shdfnd@physx@@YAHPEAD_KPEBD0@Z 000000018011b8e1 f   PhysXFoundation_64:PhysXFoundation_64.dll
 0001:0011a8ed       __imp_load_??0MutexImpl@shdfnd@physx@@QEAA@XZ 000000018011b8ed f   PhysXFoundation_64:PhysXFoundation_64.dll
 0001:0011a8f9       __imp_load_??1MutexImpl@shdfnd@physx@@QEAA@XZ 000000018011b8f9 f   PhysXFoundation_64:PhysXFoundation_64.dll
 0001:0011a905       __imp_load_?lock@MutexImpl@shdfnd@physx@@QEAAXXZ 000000018011b905 f   PhysXFoundation_64:PhysXFoundation_64.dll
 0001:0011a911       __imp_load_?unlock@MutexImpl@shdfnd@physx@@QEAAXXZ 000000018011b911 f   PhysXFoundation_64:PhysXFoundation_64.dll
 0001:0011a91d       __imp_load_?getSize@MutexImpl@shdfnd@physx@@SAIXZ 000000018011b91d f   PhysXFoundation_64:PhysXFoundation_64.dll
 0001:0011a929       __imp_load_?atomicDecrement@shdfnd@physx@@YAHPECH@Z 000000018011b929 f   PhysXFoundation_64:PhysXFoundation_64.dll
 0001:0011a935       __imp_load_?PxTransformFromSegment@physx@@YA?AVPxTransform@1@AEBVPxVec3@1@0PEAM@Z 000000018011b935 f   PhysXFoundation_64:PhysXFoundation_64.dll
 0001:0011a941       __imp_load_?optimizeBoundingBox@shdfnd@physx@@YA?AVPxVec3@2@AEAVPxMat33@2@@Z 000000018011b941 f   PhysXFoundation_64:PhysXFoundation_64.dll
 0001:0011a94d       __imp_load_?allocate@TempAllocator@shdfnd@physx@@QEAAPEAX_KPEBDH@Z 000000018011b94d f   PhysXFoundation_64:PhysXFoundation_64.dll
 0001:0011a959       __imp_load_?deallocate@TempAllocator@shdfnd@physx@@QEAAXPEAX@Z 000000018011b959 f   PhysXFoundation_64:PhysXFoundation_64.dll
 0001:0011a965       __imp_load_?atomicIncrement@shdfnd@physx@@YAHPECH@Z 000000018011b965 f   PhysXFoundation_64:PhysXFoundation_64.dll
 0001:0011aa60       ?DloadAcquireSectionWriteAccess@@YAXXZ 000000018011ba60 f i Delayimp:delayhlp.obj
 0001:0011ab1c       ?DloadGetSRWLockFunctionPointers@@YAEXZ 000000018011bb1c f i Delayimp:delayhlp.obj
 0001:0011abbc       ?DloadMakePermanentImageCommit@@YAXPEAX_K@Z 000000018011bbbc f i Delayimp:delayhlp.obj
 0001:0011ac54       ?DloadObtainSection@@YAPEAXPEAK0@Z 000000018011bc54 f i Delayimp:delayhlp.obj
 0001:0011acf0       ?DloadProtectSection@@YAXPEAX_KKPEAK@Z 000000018011bcf0 f i Delayimp:delayhlp.obj
 0001:0011ade8       ?DloadReleaseSectionWriteAccess@@YAXXZ 000000018011bde8 f i Delayimp:delayhlp.obj
 0001:0011ae94       __delayLoadHelper2         000000018011be94 f   Delayimp:delayhlp.obj
 0001:0011b190       ??3@YAXPEAX_K@Z            000000018011c190 f   LIBCMT:delete_scalar_size.obj
 0001:0011b190       ??_V@YAXPEAX@Z             000000018011c190 f   LIBCMT:delete_array.obj
 0001:0011b198       ??_Etype_info@@UEAAPEAXI@Z 000000018011c198 f i LIBCMT:std_type_info_static.obj
 0001:0011b198       ??_Gtype_info@@UEAAPEAXI@Z 000000018011c198 f i LIBCMT:std_type_info_static.obj
 0001:0011b1c4       ?__scrt_initialize_type_info@@YAXXZ 000000018011c1c4 f   LIBCMT:tncleanup.obj
 0001:0011b1d4       ?__scrt_uninitialize_type_info@@YAXXZ 000000018011c1d4 f   LIBCMT:tncleanup.obj
 0001:0011b1f0       __chkstk                   000000018011c1f0 f   LIBCMT:chkstk.obj
 0001:0011b1f0       _alloca_probe              000000018011c1f0 f   LIBCMT:chkstk.obj
 0001:0011b240       __vdecl_sinf4              000000018011c240 f   LIBCMT:svml_ssinf4_dispatch.obj
 0001:0011b260       __libm_sse2_sincosf_       000000018011c260 f   LIBCMT:svml_ssinf4_dispatch.obj
 0001:0011b2a3       __libm_sse2_sincosf4_      000000018011c2a3 f   LIBCMT:svml_ssinf4_dispatch.obj
 0001:0011b2b0       ??3@YAXPEAX@Z              000000018011c2b0 f   LIBCMT:delete_scalar.obj
 0001:0011b5cc       _DllMainCRTStartup         000000018011c5cc f   LIBCMT:dll_dllmain.obj
 0001:0011b60c       __isa_available_init       000000018011c60c f   LIBCMT:cpu_disp.obj
 0001:0011b8b0       __sse2_sinf4@@16           000000018011c8b0 f   LIBCMT:svml_ssinf4_sse2.obj
 0001:0011c1f0       __sse4_sinf4@@16           000000018011d1f0 f   LIBCMT:svml_ssinf4_sse4.obj
 0001:0011c964       __security_init_cookie     000000018011d964 f   LIBCMT:gs_support.obj
 0001:0011ca14       __local_stdio_printf_options 000000018011da14 f i LIBCMT:default_local_stdio_options.obj
 0001:0011ca1c       __local_stdio_scanf_options 000000018011da1c f i LIBCMT:default_local_stdio_options.obj
 0001:0011ca24       __scrt_initialize_default_local_stdio_options 000000018011da24 f   LIBCMT:default_local_stdio_options.obj
 0001:0011ca40       __scrt_acquire_startup_lock 000000018011da40 f   LIBCMT:utility.obj
 0001:0011ca7c       __scrt_dllmain_after_initialize_c 000000018011da7c f   LIBCMT:utility.obj
 0001:0011cab0       __scrt_dllmain_before_initialize_c 000000018011dab0 f   LIBCMT:utility.obj
 0001:0011cac8       __scrt_dllmain_crt_thread_attach 000000018011dac8 f   LIBCMT:utility.obj
 0001:0011caf0       __scrt_dllmain_crt_thread_detach 000000018011daf0 f   LIBCMT:utility.obj
 0001:0011cb08       __scrt_dllmain_exception_filter 000000018011db08 f   LIBCMT:utility.obj
 0001:0011cb68       __scrt_dllmain_uninitialize_c 000000018011db68 f   LIBCMT:utility.obj
 0001:0011cb98       __scrt_dllmain_uninitialize_critical 000000018011db98 f   LIBCMT:utility.obj
 0001:0011cbac       __scrt_initialize_crt      000000018011dbac f   LIBCMT:utility.obj
 0001:0011cbe8       __scrt_initialize_onexit_tables 000000018011dbe8 f   LIBCMT:utility.obj
 0001:0011cc74       __scrt_is_nonwritable_in_current_image 000000018011dc74 f   LIBCMT:utility.obj
 0001:0011cd0c       __scrt_release_startup_lock 000000018011dd0c f   LIBCMT:utility.obj
 0001:0011cd30       __scrt_uninitialize_crt    000000018011dd30 f   LIBCMT:utility.obj
 0001:0011cd5c       __scrt_get_dyn_tls_init_callback 000000018011dd5c f   LIBCMT:dyn_tls_init.obj
 0001:0011cd64       __crt_debugger_hook        000000018011dd64 f   LIBCMT:utility_desktop.obj
 0001:0011cd70       __scrt_fastfail            000000018011dd70 f   LIBCMT:utility_desktop.obj
 0001:0011cebc       _RTC_Initialize            000000018011debc f   LIBCMT:initsect.obj
 0001:0011cef8       _RTC_Terminate             000000018011def8 f   LIBCMT:initsect.obj
 0001:0011cf40       __common_ssin_cout_rare    000000018011df40 f   LIBCMT:svml_s_sin_cout.obj
 0001:0011cfb0       __scrt_is_ucrt_dll_in_use  000000018011dfb0 f   LIBCMT:ucrt_detection.obj
 0001:0011cfbc       _get_purecall_handler      000000018011dfbc f   libvcruntime:purevirt.obj
 0001:0011cfc8       _purecall                  000000018011dfc8 f   libvcruntime:purevirt.obj
 0001:0011cfec       __std_type_info_compare    000000018011dfec f   libvcruntime:std_type_info.obj
 0001:0011d014       __std_type_info_destroy_list 000000018011e014 f   libvcruntime:std_type_info.obj
 0001:0011d040       __std_type_info_name       000000018011e040 f   libvcruntime:std_type_info.obj
 0001:0011d150       strstr                     000000018011e150 f   libvcruntime:strstr.obj
 0001:0011d344       __C_specific_handler       000000018011e344 f   libvcruntime:riscchandler.obj
 0001:0011d55c       __vcrt_initialize          000000018011e55c f   libvcruntime:initialization.obj
 0001:0011d584       __vcrt_thread_attach       000000018011e584 f   libvcruntime:initialization.obj
 0001:0011d598       __vcrt_thread_detach       000000018011e598 f   libvcruntime:initialization.obj
 0001:0011d5a8       __vcrt_uninitialize        000000018011e5a8 f   libvcruntime:initialization.obj
 0001:0011d5c4       __vcrt_uninitialize_critical 000000018011e5c4 f   libvcruntime:initialization.obj
 0001:0011d5d4       __DestructExceptionObject  000000018011e5d4 f   libvcruntime:ehhelpers.obj
 0001:0011d648       ?_CallMemberFunction0@@YAXQEAX0@Z 000000018011e648 f i libvcruntime:ehhelpers.obj
 0001:0011d64c       _IsExceptionObjectToBeDestroyed 000000018011e64c f   libvcruntime:ehhelpers.obj
 0001:0011d67c       __AdjustPointer            000000018011e67c f   libvcruntime:ehhelpers.obj
 0001:0011d6a0       __FrameUnwindFilter        000000018011e6a0 f   libvcruntime:ehhelpers.obj
 0001:0011d708       __std_terminate            000000018011e708 f   libvcruntime:ehhelpers.obj
 0001:0011d714       ??$?0$00@DName@@QEAA@PEAVUnDecorator@@PEBDU?$StringLifeSelector@$00@@@Z 000000018011e714 f i libvcruntime:undname.obj
 0001:0011d760       ??$?0$01@DName@@QEAA@PEAVUnDecorator@@PEBDU?$StringLifeSelector@$01@@@Z 000000018011e760 f i libvcruntime:undname.obj
 0001:0011d760       ??$?0$0A@@DName@@QEAA@PEAVUnDecorator@@PEBDU?$StringLifeSelector@$0A@@@@Z 000000018011e760 f i libvcruntime:undname.obj
 0001:0011d7ac       ??$?0$01@pcharNode@@QEAA@PEBDHU?$StringLifeSelector@$01@@AEAV_HeapManager@@@Z 000000018011e7ac f i libvcruntime:undname.obj
 0001:0011d7ac       ??$?0$0A@@pcharNode@@QEAA@PEBDHU?$StringLifeSelector@$0A@@@AEAV_HeapManager@@@Z 000000018011e7ac f i libvcruntime:undname.obj
 0001:0011d820       ??$append@VDNameNode@@@DName@@AEAAXPEBVDNameNode@@@Z 000000018011e820 f i libvcruntime:undname.obj
 0001:0011d820       ??$append@VDNameStatusNode@@@DName@@AEAAXPEBVDNameStatusNode@@@Z 000000018011e820 f i libvcruntime:undname.obj
 0001:0011d820       ??$append@VcharNode@@@DName@@AEAAXPEBVcharNode@@@Z 000000018011e820 f i libvcruntime:undname.obj
 0001:0011d820       ??$append@VpcharNode@@@DName@@AEAAXPEBVpcharNode@@@Z 000000018011e820 f i libvcruntime:undname.obj
 0001:0011d88c       ??$doPchar@$00@DName@@AEAAXPEBDH@Z 000000018011e88c f i libvcruntime:undname.obj
 0001:0011d934       ??$doPchar@$01@DName@@AEAAXPEBDH@Z 000000018011e934 f i libvcruntime:undname.obj
 0001:0011d934       ??$doPchar@$0A@@DName@@AEAAXPEBDH@Z 000000018011e934 f i libvcruntime:undname.obj
 0001:0011d9ec       ??0DName@@QEAA@PEAVUnDecorator@@AEAPEBDD@Z 000000018011e9ec f   libvcruntime:undname.obj
 0001:0011dab0       ??0DName@@QEAA@PEAVUnDecorator@@AEBUStringLiteral@@@Z 000000018011eab0 f   libvcruntime:undname.obj
 0001:0011dae8       ??0DName@@QEAA@PEAVUnDecorator@@D@Z 000000018011eae8 f   libvcruntime:undname.obj
 0001:0011db14       ??0DName@@QEAA@PEAVUnDecorator@@PEAV0@@Z 000000018011eb14 f   libvcruntime:undname.obj
 0001:0011db9c       ??0DName@@QEAA@PEAVUnDecorator@@W4DNameStatus@@@Z 000000018011eb9c f   libvcruntime:undname.obj
 0001:0011dbd0       ??0DName@@QEAA@PEAVUnDecorator@@_J@Z 000000018011ebd0 f   libvcruntime:undname.obj
 0001:0011dc7c       ??0DName@@QEAA@PEAVUnDecorator@@_K@Z 000000018011ec7c f   libvcruntime:undname.obj
 0001:0011dd08       ??0DNameNode@@IEAA@XZ      000000018011ed08 f i libvcruntime:undname.obj
 0001:0011dd18       ??0UnDecorator@@QEAA@PEBDP6APEADJ@ZKP6APEAX_K@ZP6AXPEAX@Z@Z 000000018011ed18 f i libvcruntime:undname.obj
 0001:0011de08       ??2@YAPEAX_KAEAV_HeapManager@@H@Z 000000018011ee08 f   libvcruntime:undname.obj
 0001:0011de30       ??4DName@@QEAAAEAV0@AEBUStringLiteral@@@Z 000000018011ee30 f   libvcruntime:undname.obj
 0001:0011de5c       ??AReplicator@@QEBA?AVDName@@H@Z 000000018011ee5c f   libvcruntime:undname.obj
 0001:0011deb8       ??HDName@@QEBA?AV0@AEBUStringLiteral@@@Z 000000018011eeb8 f   libvcruntime:undname.obj
 0001:0011deec       ??HDName@@QEBA?AV0@AEBV0@@Z 000000018011eeec f   libvcruntime:undname.obj
 0001:0011df20       ??HDName@@QEBA?AV0@D@Z     000000018011ef20 f   libvcruntime:undname.obj
 0001:0011df54       ??HDName@@QEBA?AV0@W4DNameStatus@@@Z 000000018011ef54 f   libvcruntime:undname.obj
 0001:0011df88       ??YDName@@QEAAAEAV0@AEBUStringLiteral@@@Z 000000018011ef88 f   libvcruntime:undname.obj
 0001:0011e000       ??YDName@@QEAAAEAV0@AEBV0@@Z 000000018011f000 f   libvcruntime:undname.obj
 0001:0011e0b8       ??YDName@@QEAAAEAV0@D@Z    000000018011f0b8 f   libvcruntime:undname.obj
 0001:0011e130       ??YDName@@QEAAAEAV0@W4DNameStatus@@@Z 000000018011f130 f   libvcruntime:undname.obj
 0001:0011e19c       ??YReplicator@@QEAAAEAV0@AEBVDName@@@Z 000000018011f19c f   libvcruntime:undname.obj
 0001:0011e200       ?UScore@UnDecorator@@QEAA?AUStringLiteral@@W4Tokens@@@Z 000000018011f200 f   libvcruntime:undname.obj
 0001:0011e240       ?composeDeclaration@UnDecorator@@AEAA?AVDName@@AEBV2@@Z 000000018011f240 f i libvcruntime:undname.obj
 0001:0011f45c       ?doPchar@DName@@AEAAXD@Z   000000018012045c f   libvcruntime:undname.obj
 0001:0011f4b4       ?getAddressOf@UnDecorator@@AEAA?AVDName@@XZ 00000001801204b4 f   libvcruntime:undname.obj
 0001:0011f554       ?getArgumentList@UnDecorator@@AEAA?AVDName@@XZ 0000000180120554 f   libvcruntime:undname.obj
 0001:0011f700       ?getArgumentTypes@UnDecorator@@AEAA?AVDName@@XZ 0000000180120700 f   libvcruntime:undname.obj
 0001:0011f870       ?getArrayAccess@UnDecorator@@AEAA?AVDName@@XZ 0000000180120870 f   libvcruntime:undname.obj
 0001:0011f920       ?getArrayObject@UnDecorator@@AEAA?AVDName@@XZ 0000000180120920 f   libvcruntime:undname.obj
 0001:0011fa08       ?getArrayType@UnDecorator@@AEAA?AVDName@@AEBV2@@Z 0000000180120a08 f i libvcruntime:undname.obj
 0001:0011fc80       ?getBasedType@UnDecorator@@AEAA?AVDName@@XZ 0000000180120c80 f   libvcruntime:undname.obj
 0001:0011fd94       ?getBasicDataType@UnDecorator@@AEAA?AVDName@@AEBV2@@Z 0000000180120d94 f   libvcruntime:undname.obj
 0001:001204d8       ?getCallingConvention@UnDecorator@@AEAA?AVDName@@XZ 00000001801214d8 f   libvcruntime:undname.obj
 0001:00120618       ?getDataIndirectType@UnDecorator@@AEAA?AVDName@@AEBV2@W4IndirectionKind@@0H@Z 0000000180121618 f   libvcruntime:undname.obj
 0001:001211b4       ?getDataType@UnDecorator@@AEAA?AVDName@@PEAV2@@Z 00000001801221b4 f   libvcruntime:undname.obj
 0001:001212f8       ?getDecoratedName@UnDecorator@@AEAA?AVDName@@XZ 00000001801222f8 f   libvcruntime:undname.obj
 0001:00121634       ?getDimension@UnDecorator@@AEAA?AVDName@@_N@Z 0000000180122634 f   libvcruntime:undname.obj
 0001:0012179c       ?getDispatchTarget@UnDecorator@@AEAA?AVDName@@XZ 000000018012279c f   libvcruntime:undname.obj
 0001:00121814       ?getECSUDataType@UnDecorator@@AEAA?AVDName@@XZ 0000000180122814 f   libvcruntime:undname.obj
 0001:00121a58       ?getEnumType@UnDecorator@@AEAA?AVDName@@XZ 0000000180122a58 f i libvcruntime:undname.obj
 0001:00121bb8       ?getExtendedDataIndirectType@UnDecorator@@AEAA?AVDName@@AEAW4IndirectionKind@@AEA_NH@Z 0000000180122bb8 f   libvcruntime:undname.obj
 0001:00121e38       ?getExternalDataType@UnDecorator@@AEAA?AVDName@@AEBV2@@Z 0000000180122e38 f i libvcruntime:undname.obj
 0001:00121f34       ?getFloatingPoint@UnDecorator@@AEAA?AVDName@@H@Z 0000000180122f34 f   libvcruntime:undname.obj
 0001:0012209c       ?getFunctionIndirectType@UnDecorator@@AEAA?AVDName@@AEBV2@@Z 000000018012309c f   libvcruntime:undname.obj
 0001:00122640       ?getLastChar@DNameStatusNode@@UEBADXZ 0000000180123640 f i libvcruntime:undname.obj
 0001:0012264c       ?getLastChar@charNode@@UEBADXZ 000000018012364c f i libvcruntime:undname.obj
 0001:00122650       ?getLastChar@pDNameNode@@UEBADXZ 0000000180123650 f i libvcruntime:undname.obj
 0001:0012267c       ?getLastChar@pairNode@@UEBADXZ 000000018012367c f i libvcruntime:undname.obj
 0001:001226b4       ?getLastChar@pcharNode@@UEBADXZ 00000001801236b4 f i libvcruntime:undname.obj
 0001:001226c8       ?getMemberAccess@UnDecorator@@AEAA?AVDName@@XZ 00000001801236c8 f   libvcruntime:undname.obj
 0001:00122774       ?getMemoryWithBuffer@_HeapManager@@QEAAPEAX_K@Z 0000000180123774 f   libvcruntime:undname.obj
 0001:00122804       ?getNoexcept@UnDecorator@@AEAA?AVDName@@XZ 0000000180123804 f   libvcruntime:undname.obj
 0001:00122878       ?getNumberOfDimensions@UnDecorator@@AEAAHXZ 0000000180123878 f   libvcruntime:undname.obj
 0001:001228e0       ?getOperatorName@UnDecorator@@AEAA?AVDName@@_NPEA_N@Z 00000001801238e0 f i libvcruntime:undname.obj
 0001:00123494       ?getPointerToMember@UnDecorator@@AEAA?AVDName@@XZ 0000000180124494 f   libvcruntime:undname.obj
 0001:001235a4       ?getPrimaryDataType@UnDecorator@@AEAA?AVDName@@AEBV2@@Z 00000001801245a4 f   libvcruntime:undname.obj
 0001:001238bc       ?getPtrRefDataType@UnDecorator@@AEAA?AVDName@@AEBV2@H@Z 00000001801248bc f   libvcruntime:undname.obj
 0001:00123abc       ?getPtrRefType@UnDecorator@@AEAA?AVDName@@AEBV2@0W4IndirectionKind@@@Z 0000000180124abc f   libvcruntime:undname.obj
 0001:00123c28       ?getRestrictionSpec@UnDecorator@@AEAA?AVDName@@XZ 0000000180124c28 f   libvcruntime:undname.obj
 0001:00123e8c       ?getReturnType@UnDecorator@@AEAA?AVDName@@PEAV2@@Z 0000000180124e8c f   libvcruntime:undname.obj
 0001:00123ec8       ?getScope@UnDecorator@@AEAA?AVDName@@XZ 0000000180124ec8 f   libvcruntime:undname.obj
 0001:00124390       ?getScopedName@UnDecorator@@AEAA?AVDName@@XZ 0000000180125390 f   libvcruntime:undname.obj
 0001:00124504       ?getSignedDimension@UnDecorator@@AEAA?AVDName@@XZ 0000000180125504 f   libvcruntime:undname.obj
 0001:00124588       ?getString@DNameStatusNode@@UEBAPEADPEAD0@Z 0000000180125588 f i libvcruntime:undname.obj
 0001:001245d0       ?getString@charNode@@UEBAPEADPEAD0@Z 00000001801255d0 f i libvcruntime:undname.obj
 0001:001245e4       ?getString@pDNameNode@@UEBAPEADPEAD0@Z 00000001801255e4 f i libvcruntime:undname.obj
 0001:00124614       ?getString@pairNode@@UEBAPEADPEAD0@Z 0000000180125614 f i libvcruntime:undname.obj
 0001:00124660       ?getString@pcharNode@@UEBAPEADPEAD0@Z 0000000180125660 f i libvcruntime:undname.obj
 0001:00124698       ?getStringEncoding@UnDecorator@@AEAA?AVDName@@W4PrefixKind@@H@Z 0000000180125698 f   libvcruntime:undname.obj
 0001:001247c8       ?getStringObject@UnDecorator@@AEAA?AVDName@@XZ 00000001801257c8 f   libvcruntime:undname.obj
 0001:00124870       ?getSymbolName@UnDecorator@@AEAA?AVDName@@XZ 0000000180125870 f i libvcruntime:undname.obj
 0001:001248c0       ?getTemplateArgumentList@UnDecorator@@AEAA?AVDName@@XZ 00000001801258c0 f   libvcruntime:undname.obj
 0001:00124b24       ?getTemplateName@UnDecorator@@AEAA?AVDName@@_N@Z 0000000180125b24 f   libvcruntime:undname.obj
 0001:00124e3c       ?getTemplateNonTypeArgument@UnDecorator@@AEAA?AVDName@@XZ 0000000180125e3c f   libvcruntime:undname.obj
 0001:001252e0       ?getTemplateTypeArgument@UnDecorator@@AEAA?AVDName@@XZ 00000001801262e0 f   libvcruntime:undname.obj
 0001:0012545c       ?getThrowTypes@UnDecorator@@AEAA?AVDName@@XZ 000000018012645c f   libvcruntime:undname.obj
 0001:00125488       ?getTypeEncoding@UnDecorator@@AEAAHXZ 0000000180126488 f i libvcruntime:undname.obj
 0001:00125844       ?getUndecoratedName@UnDecorator@@QEAAPEADPEADH@Z 0000000180126844 f i libvcruntime:undname.obj
 0001:00125978       ?getUnionObject@UnDecorator@@AEAA?AVDName@@XZ 0000000180126978 f   libvcruntime:undname.obj
 0001:00125a68       ?getVCallThunkType@UnDecorator@@AEAA?AVDName@@XZ 0000000180126a68 f i libvcruntime:undname.obj
 0001:00125adc       ?getValue@UnDecorator@@AEAA?AV?$optional@_K@std@@XZ 0000000180126adc f   libvcruntime:undname.obj
 0001:00125b20       ?getValueObject@UnDecorator@@AEAA?AVDName@@XZ 0000000180126b20 f   libvcruntime:undname.obj
 0001:00125cc0       ?getVdispMapType@UnDecorator@@AEAA?AVDName@@AEBV2@@Z 0000000180126cc0 f i libvcruntime:undname.obj
 0001:00125d58       ?getVfTableType@UnDecorator@@AEAA?AVDName@@AEBV2@@Z 0000000180126d58 f i libvcruntime:undname.obj
 0001:00125f94       ?getZName@UnDecorator@@AEAA?AVDName@@_N0@Z 0000000180126f94 f   libvcruntime:undname.obj
 0001:00126290       ?length@DNameStatusNode@@UEBAHXZ 0000000180127290 f i libvcruntime:undname.obj
 0001:00126290       ?raw_length@DNameStatusNode@@UEBAHXZ 0000000180127290 f i libvcruntime:undname.obj
 0001:00126294       ?length@pDNameNode@@UEBAHXZ 0000000180127294 f i libvcruntime:undname.obj
 0001:001262bc       ?length@pairNode@@UEBAHXZ  00000001801272bc f i libvcruntime:undname.obj
 0001:00126310       ?make@DNameStatusNode@@SAPEBV1@W4DNameStatus@@@Z 0000000180127310 f i libvcruntime:undname.obj
 0001:00126330       ?parseDecoratedName@UnDecorator@@AEAA?AVDName@@XZ 0000000180127330 f   libvcruntime:undname.obj
 0001:00126464       ?raw_length@pDNameNode@@UEBAHXZ 0000000180127464 f i libvcruntime:undname.obj
 0001:00126468       __unDName                  0000000180127468 f   libvcruntime:undname.obj
 0001:00126494       __unDNameEx                0000000180127494 f   libvcruntime:undname.obj
 0001:00126570       snprintf                   0000000180127570 f i libvcruntime:undname.obj
 0001:001265cc       sprintf_s                  00000001801275cc f i libvcruntime:undname.obj
 0001:00126660       _NLG_Notify                0000000180127660 f   libvcruntime:notify.obj
 0001:00126680       __NLG_Dispatch2            0000000180127680 f   libvcruntime:notify.obj
 0001:00126690       __NLG_Return2              0000000180127690 f   libvcruntime:notify.obj
 0001:00126694       __except_validate_context_record 0000000180127694 f   libvcruntime:jbcxrval.obj
 0001:001266cc       __vcrt_freefls             00000001801276cc f   libvcruntime:per_thread_data.obj
 0001:001266ec       __vcrt_freeptd_for_this_thread 00000001801276ec f   libvcruntime:per_thread_data.obj
 0001:00126734       __vcrt_getptd              0000000180127734 f   libvcruntime:per_thread_data.obj
 0001:00126750       __vcrt_getptd_noexit       0000000180127750 f   libvcruntime:per_thread_data.obj
 0001:0012681c       __vcrt_initialize_ptd      000000018012781c f   libvcruntime:per_thread_data.obj
 0001:00126864       __vcrt_uninitialize_ptd    0000000180127864 f   libvcruntime:per_thread_data.obj
 0001:0012688c       __vcrt_initialize_locks    000000018012788c f   libvcruntime:locks.obj
 0001:001268d4       __vcrt_lock                00000001801278d4 f   libvcruntime:locks.obj
 0001:001268f0       __vcrt_uninitialize_locks  00000001801278f0 f   libvcruntime:locks.obj
 0001:00126928       __vcrt_unlock              0000000180127928 f   libvcruntime:locks.obj
 0001:00126944       ??$_CallSETranslator@V__FrameHandler3@@@@YAHPEAUEHExceptionRecord@@PEA_KPEAU_CONTEXT@@PEAU_xDISPATCHER_CONTEXT@@PEBU_s_FuncInfo@@K1H@Z 0000000180127944 f i libvcruntime:risctrnsctrl.obj
 0001:00126998       ??$_CallSETranslator@V__FrameHandler4@@@@YAHPEAUEHExceptionRecord@@PEA_KPEAU_CONTEXT@@PEAU_xDISPATCHER_CONTEXT@@PEAUFuncInfo4@FH4@@K1H@Z 0000000180127998 f i libvcruntime:risctrnsctrl.obj
 0001:001269ec       ?CatchTryBlock@__FrameHandler3@@SAPEBU_s_TryBlockMapEntry@@PEBU_s_FuncInfo@@H@Z 00000001801279ec f   libvcruntime:risctrnsctrl.obj
 0001:00126a50       ?DecompFuncInfo@FH4@@YA_JPEAEAEAUFuncInfo4@1@_KH_N@Z 0000000180127a50 f i libvcruntime:risctrnsctrl.obj
 0001:00126b7c       ?ExecutionInCatch@__FrameHandler3@@SA_NPEAU_xDISPATCHER_CONTEXT@@PEBU_s_FuncInfo@@@Z 0000000180127b7c f   libvcruntime:risctrnsctrl.obj
 0001:00126ba8       ?ExecutionInCatch@__FrameHandler4@@SA_NPEAU_xDISPATCHER_CONTEXT@@PEAUFuncInfo4@FH4@@@Z 0000000180127ba8 f   libvcruntime:risctrnsctrl.obj
 0001:00126bb0       ?FrameUnwindToEmptyState@__FrameHandler3@@SAXPEA_KPEAU_xDISPATCHER_CONTEXT@@PEBU_s_FuncInfo@@@Z 0000000180127bb0 f   libvcruntime:risctrnsctrl.obj
 0001:00126c14       ?FrameUnwindToEmptyState@__FrameHandler4@@SAXPEA_KPEAU_xDISPATCHER_CONTEXT@@PEAUFuncInfo4@FH4@@@Z 0000000180127c14 f   libvcruntime:risctrnsctrl.obj
 0001:00126c48       ?GetEstablisherFrame@__FrameHandler3@@SAPEA_KPEA_KPEAU_xDISPATCHER_CONTEXT@@PEBU_s_FuncInfo@@0@Z 0000000180127c48 f   libvcruntime:risctrnsctrl.obj
 0001:00126d30       ?GetEstablisherFrame@__FrameHandler4@@SAPEA_KPEA_KPEAU_xDISPATCHER_CONTEXT@@PEAUFuncInfo4@FH4@@0@Z 0000000180127d30 f   libvcruntime:risctrnsctrl.obj
 0001:00126d54       ?GetRangeOfTrysToCheck@__FrameHandler3@@SA?AU?$pair@Viterator@TryBlockMap@__FrameHandler3@@V123@@std@@AEAVTryBlockMap@1@HPEAU_xDISPATCHER_CONTEXT@@PEBU_s_FuncInfo@@H@Z 0000000180127d54 f   libvcruntime:risctrnsctrl.obj
 0001:00126e8c       ?GetRangeOfTrysToCheck@__FrameHandler4@@SA?AU?$pair@Viterator@TryBlockMap4@FH4@@V123@@std@@AEAVTryBlockMap4@FH4@@HPEAU_xDISPATCHER_CONTEXT@@PEAUFuncInfo4@5@H@Z 0000000180127e8c f   libvcruntime:risctrnsctrl.obj
 0001:0012700c       ?UnwindNestedFrames@__FrameHandler3@@SAXPEA_KPEAUEHExceptionRecord@@PEAU_CONTEXT@@0PEAXPEBU_s_FuncInfo@@HHPEBU_s_HandlerType@@PEAU_xDISPATCHER_CONTEXT@@E@Z 000000018012800c f   libvcruntime:risctrnsctrl.obj
 0001:00127110       ?UnwindNestedFrames@__FrameHandler4@@SAXPEA_KPEAUEHExceptionRecord@@PEAU_CONTEXT@@0PEAXPEAUFuncInfo4@FH4@@HHPEAUHandlerType4@5@PEAU_xDISPATCHER_CONTEXT@@E@Z 0000000180128110 f   libvcruntime:risctrnsctrl.obj
 0001:00127230       ?setBuffer@TryBlockMap4@FH4@@QEAAXViterator@12@@Z 0000000180128230 f i libvcruntime:risctrnsctrl.obj
 0001:0012741c       _CreateFrameInfo           000000018012841c f   libvcruntime:risctrnsctrl.obj
 0001:00127458       _FindAndUnlinkFrame        0000000180128458 f   libvcruntime:risctrnsctrl.obj
 0001:001274ac       _GetImageBase              00000001801284ac f   libvcruntime:risctrnsctrl.obj
 0001:001274c0       _GetThrowImageBase         00000001801284c0 f   libvcruntime:risctrnsctrl.obj
 0001:001274d4       _SetImageBase              00000001801284d4 f   libvcruntime:risctrnsctrl.obj
 0001:001274ec       _SetThrowImageBase         00000001801284ec f   libvcruntime:risctrnsctrl.obj
 0001:00127504       __CxxFrameHandler3         0000000180128504 f   libvcruntime:risctrnsctrl.obj
 0001:0012758c       __CxxFrameHandler4         000000018012858c f   libvcruntime:risctrnsctrl.obj
 0001:001277ac       __vcrt_FlsAlloc            00000001801287ac f   libvcruntime:winapi_downlevel.obj
 0001:001277f4       __vcrt_FlsFree             00000001801287f4 f   libvcruntime:winapi_downlevel.obj
 0001:0012783c       __vcrt_FlsGetValue         000000018012883c f   libvcruntime:winapi_downlevel.obj
 0001:00127884       __vcrt_FlsSetValue         0000000180128884 f   libvcruntime:winapi_downlevel.obj
 0001:001278d8       __vcrt_InitializeCriticalSectionEx 00000001801288d8 f   libvcruntime:winapi_downlevel.obj
 0001:0012793c       ?GetCurrentState@__FrameHandler3@@SAHPEA_KPEAU_xDISPATCHER_CONTEXT@@PEBU_s_FuncInfo@@@Z 000000018012893c f   libvcruntime:ehstate.obj
 0001:00127964       ?GetUnwindTryBlock@__FrameHandler3@@SAHPEA_KPEAU_xDISPATCHER_CONTEXT@@PEBU_s_FuncInfo@@@Z 0000000180128964 f   libvcruntime:ehstate.obj
 0001:00127990       ?SetState@__FrameHandler3@@SAXPEA_KPEBU_s_FuncInfo@@H@Z 0000000180128990 f   libvcruntime:ehstate.obj
 0001:0012799c       ?SetUnwindTryBlock@__FrameHandler3@@SAXPEA_KPEAU_xDISPATCHER_CONTEXT@@PEBU_s_FuncInfo@@H@Z 000000018012899c f   libvcruntime:ehstate.obj
 0001:001279d8       ?StateFromControlPc@__FrameHandler3@@SAHPEBU_s_FuncInfo@@PEAU_xDISPATCHER_CONTEXT@@@Z 00000001801289d8 f   libvcruntime:ehstate.obj
 0001:001279e0       ?StateFromControlPc@__FrameHandler4@@SAHPEAUFuncInfo4@FH4@@PEAU_xDISPATCHER_CONTEXT@@@Z 00000001801289e0 f   libvcruntime:ehstate.obj
 0001:001279e8       ?StateFromIp@__FrameHandler3@@SAHPEBU_s_FuncInfo@@PEAU_xDISPATCHER_CONTEXT@@_K@Z 00000001801289e8 f   libvcruntime:ehstate.obj
 0001:00127a50       ?StateFromIp@__FrameHandler4@@SAHPEAUFuncInfo4@FH4@@PEAU_xDISPATCHER_CONTEXT@@_K@Z 0000000180128a50 f   libvcruntime:ehstate.obj
 0001:001291fc       ??$TypeMatchHelper@V__FrameHandler3@@@@YAHPEBU_s_HandlerType@@PEBU_s_CatchableType@@PEBU_s_ThrowInfo@@@Z 000000018012a1fc f i libvcruntime:frame.obj
 0001:0012932c       ??$TypeMatchHelper@V__FrameHandler4@@@@YAHPEAUHandlerType4@FH4@@PEBU_s_CatchableType@@PEBU_s_ThrowInfo@@@Z 000000018012a32c f i libvcruntime:frame.obj
 0001:0012947c       ??$__InternalCxxFrameHandler@V__FrameHandler3@@@@YA?AW4_EXCEPTION_DISPOSITION@@PEAUEHExceptionRecord@@PEA_KPEAU_CONTEXT@@PEAU_xDISPATCHER_CONTEXT@@PEBU_s_FuncInfo@@H1E@Z 000000018012a47c f i libvcruntime:frame.obj
 0001:001296b0       ??$__InternalCxxFrameHandler@V__FrameHandler4@@@@YA?AW4_EXCEPTION_DISPOSITION@@PEAUEHExceptionRecord@@PEA_KPEAU_CONTEXT@@PEAU_xDISPATCHER_CONTEXT@@PEAUFuncInfo4@FH4@@H1E@Z 000000018012a6b0 f i libvcruntime:frame.obj
 0001:00129958       ??$__InternalCxxFrameHandlerWrapper@V__FrameHandler3@@@@YA?AW4_EXCEPTION_DISPOSITION@@PEAUEHExceptionRecord@@PEA_KPEAU_CONTEXT@@PEAU_xDISPATCHER_CONTEXT@@PEBU_s_FuncInfo@@H1E@Z 000000018012a958 f i libvcruntime:frame.obj
 0001:00129960       ??$__InternalCxxFrameHandlerWrapper@V__FrameHandler4@@@@YA?AW4_EXCEPTION_DISPOSITION@@PEAUEHExceptionRecord@@PEA_KPEAU_CONTEXT@@PEAU_xDISPATCHER_CONTEXT@@PEAUFuncInfo4@FH4@@H1E@Z 000000018012a960 f i libvcruntime:frame.obj
 0001:001299ac       ??0HandlerMap4@FH4@@QEAA@PEBUTryBlockMapEntry4@1@_KH@Z 000000018012a9ac f i libvcruntime:frame.obj
 0001:00129a30       ??0TryBlockMap4@FH4@@QEAA@PEBUFuncInfo4@1@_K@Z 000000018012aa30 f i libvcruntime:frame.obj
 0001:00129b14       ??0bad_exception@std@@QEAA@AEBV01@@Z 000000018012ab14 f i libvcruntime:frame.obj
 0001:00129b50       ??0bad_exception@std@@QEAA@XZ 000000018012ab50 f i libvcruntime:frame.obj
 0001:00129b74       ??0exception@std@@QEAA@AEBV01@@Z 000000018012ab74 f i libvcruntime:frame.obj
 0001:00129ba8       ??1bad_exception@std@@UEAA@XZ 000000018012aba8 f i libvcruntime:frame.obj
 0001:00129bbc       ??_Ebad_exception@std@@UEAAPEAXI@Z 000000018012abbc f i libvcruntime:frame.obj
 0001:00129bbc       ??_Eexception@std@@UEAAPEAXI@Z 000000018012abbc f i libvcruntime:frame.obj
 0001:00129bbc       ??_Gbad_exception@std@@UEAAPEAXI@Z 000000018012abbc f i libvcruntime:frame.obj
 0001:00129bbc       ??_Gexception@std@@UEAAPEAXI@Z 000000018012abbc f i libvcruntime:frame.obj
 0001:00129c00       ?CxxCallCatchBlock@__FrameHandler3@@SAPEAXPEAU_EXCEPTION_RECORD@@@Z 000000018012ac00 f   libvcruntime:frame.obj
 0001:00129dec       ?CxxCallCatchBlock@__FrameHandler4@@SAPEAXPEAU_EXCEPTION_RECORD@@@Z 000000018012adec f   libvcruntime:frame.obj
 0001:0012a02c       ?DecompHandler@HandlerMap4@FH4@@AEAAXXZ 000000018012b02c f i libvcruntime:frame.obj
 0001:0012a27c       ?FrameUnwindToState@__FrameHandler3@@SAXPEA_KPEAU_xDISPATCHER_CONTEXT@@PEBU_s_FuncInfo@@H@Z 000000018012b27c f   libvcruntime:frame.obj
 0001:0012a408       ?FrameUnwindToState@__FrameHandler4@@SAXPEA_KPEAU_xDISPATCHER_CONTEXT@@PEAUFuncInfo4@FH4@@H@Z 000000018012b408 f   libvcruntime:frame.obj
 0001:0012a714       ?GetHandlerSearchState@__FrameHandler3@@SAHPEA_KPEAU_xDISPATCHER_CONTEXT@@PEBU_s_FuncInfo@@@Z 000000018012b714 f i libvcruntime:frame.obj
 0001:0012a91c       ?ReadEntry@UWMap4@FH4@@AEAAXPEAPEAE@Z 000000018012b91c f i libvcruntime:frame.obj
 0001:0012a9bc       ?_CallMemberFunction1@@YAXQEAX00@Z 000000018012b9bc f i libvcruntime:frame.obj
 0001:0012a9c8       ?_CallMemberFunction2@@YAXQEAX00H@Z 000000018012b9c8 f i libvcruntime:frame.obj
 0001:0012a9d8       ?getStartStop@UWMap4@FH4@@QEAAXHHAEAViterator@12@0@Z 000000018012b9d8 f i libvcruntime:frame.obj
 0001:0012aaa8       ?getStateFromIterators@UWMap4@FH4@@SAHAEBViterator@12@H0H0@Z 000000018012baa8 f i libvcruntime:frame.obj
 0001:0012ab58       ?what@exception@std@@UEBAPEBDXZ 000000018012bb58 f i libvcruntime:frame.obj
 0001:0012abb0       _CallSettingFrame          000000018012bbb0 f   libvcruntime:handlers.obj
 0001:0012abf0       _CallSettingFrame_LookupContinuationIndex 000000018012bbf0 f   libvcruntime:handlers.obj
 0001:0012ac20       _CallSettingFrame_NotifyContinuationAddr 000000018012bc20 f   libvcruntime:handlers.obj
 0001:0012ac50       _CallSettingFrameEncoded   000000018012bc50 f   libvcruntime:handlers.obj
 0001:0012ac98       __std_exception_copy       000000018012bc98 f   libvcruntime:std_exception.obj
 0001:0012ad20       __std_exception_destroy    000000018012bd20 f   libvcruntime:std_exception.obj
 0001:0012ad48       _CxxThrowException         000000018012bd48 f   libvcruntime:throw.obj
 0001:0012adf0       cosf                       000000018012bdf0 f   libucrt:cosf.obj
 0001:0012b2f0       sinf                       000000018012c2f0 f   libucrt:sinf.obj
 0001:0012ba00       strlen                     000000018012ca00 f   libucrt:strlen.obj
 0001:0012bab0       tanf                       000000018012cab0 f   libucrt:tanf.obj
 0001:0012c140       strcmp                     000000018012d140 f   libucrt:strcmp.obj
 0001:0012c1a8       _fpclass                   000000018012d1a8 f   libucrt:ieeemisc.obj
 0001:0012c230       acosf                      000000018012d230 f   libucrt:acosf.obj
 0001:0012c45c       free                       000000018012d45c f   libucrt:free.obj
 0001:0012c470       _initterm                  000000018012d470 f   libucrt:initterm.obj
 0001:0012c4b4       _initterm_e                000000018012d4b4 f   libucrt:initterm.obj
 0001:0012c4fc       _seh_filter_dll            000000018012d4fc f   libucrt:exception_filter.obj
 0001:0012c510       _seh_filter_exe            000000018012d510 f   libucrt:exception_filter.obj
 0001:0012c928       __acrt_initialize_thread_local_exit_callback 000000018012d928 f   libucrt:exit.obj
 0001:0012c930       _cexit                     000000018012d930 f   libucrt:exit.obj
 0001:0012c940       _exit                      000000018012d940 f   libucrt:exit.obj
 0001:0012c94c       _is_c_termination_complete 000000018012d94c f   libucrt:exit.obj
 0001:0012cb1c       __acrt_allocate_buffer_for_argv 000000018012db1c f   libucrt:argv_parsing.obj
 0001:0012cb7c       _configure_narrow_argv     000000018012db7c f   libucrt:argv_parsing.obj
 0001:0012cf04       __dcrt_uninitialize_environments_nolock 000000018012df04 f   libucrt:environment_initialization.obj
 0001:0012cf48       _initialize_narrow_environment 000000018012df48 f   libucrt:environment_initialization.obj
 0001:0012d0ac       _execute_onexit_table      000000018012e0ac f   libucrt:onexit.obj
 0001:0012d0f0       _initialize_onexit_table   000000018012e0f0 f   libucrt:onexit.obj
 0001:0012d150       __acrt_uninitialize_command_line 000000018012e150 f   libucrt:argv_data.obj
 0001:0012d248       __acrt_initialize          000000018012e248 f   libucrt:initialization.obj
 0001:0012d25c       __acrt_thread_attach       000000018012e25c f   libucrt:initialization.obj
 0001:0012d270       __acrt_thread_detach       000000018012e270 f   libucrt:initialization.obj
 0001:0012d280       __acrt_uninitialize        000000018012e280 f   libucrt:initialization.obj
 0001:0012d2b8       __acrt_uninitialize_critical 000000018012e2b8 f   libucrt:initialization.obj
 0001:0012d2c8       terminate                  000000018012e2c8 f   libucrt:terminate.obj
 0001:0012d2f4       abort                      000000018012e2f4 f   libucrt:abort.obj
 0001:0012d34c       malloc                     000000018012e34c f   libucrt:malloc.obj
 0001:0012d354       strcpy_s                   000000018012e354 f   libucrt:strcpy_s.obj
 0001:0012d564       ??$ensure_buffer_is_big_enough@D@formatting_buffer@__crt_stdio_output@@QEAA_N_KAEAV__crt_cached_ptd_host@@@Z 000000018012e564 f i libucrt:output.obj
 0001:0012d60c       ??$parse_integer@KV?$c_string_character_source@D@__crt_strtox@@$0A@@__crt_strtox@@YAKAEAV__crt_cached_ptd_host@@V?$c_string_character_source@D@0@H_N@Z 000000018012e60c f i libucrt:output.obj
 0001:0012d8c0       ??$type_case_integer@$07@?$output_processor@DV?$string_output_adapter@D@__crt_stdio_output@@V?$format_validation_base@DV?$string_output_adapter@D@__crt_stdio_output@@@2@@__crt_stdio_output@@AEAA_N_N@Z 000000018012e8c0 f i libucrt:output.obj
 0001:0012d8c0       ??$type_case_integer@$07@?$output_processor@DV?$string_output_adapter@D@__crt_stdio_output@@V?$standard_base@DV?$string_output_adapter@D@__crt_stdio_output@@@2@@__crt_stdio_output@@AEAA_N_N@Z 000000018012e8c0 f i libucrt:output.obj
 0001:0012dac4       ??$type_case_integer@$09@?$output_processor@DV?$string_output_adapter@D@__crt_stdio_output@@V?$format_validation_base@DV?$string_output_adapter@D@__crt_stdio_output@@@2@@__crt_stdio_output@@AEAA_N_N@Z 000000018012eac4 f i libucrt:output.obj
 0001:0012dac4       ??$type_case_integer@$09@?$output_processor@DV?$string_output_adapter@D@__crt_stdio_output@@V?$standard_base@DV?$string_output_adapter@D@__crt_stdio_output@@@2@@__crt_stdio_output@@AEAA_N_N@Z 000000018012eac4 f i libucrt:output.obj
 0001:0012dcc8       ??$type_case_integer@$0BA@@?$output_processor@DV?$string_output_adapter@D@__crt_stdio_output@@V?$format_validation_base@DV?$string_output_adapter@D@__crt_stdio_output@@@2@@__crt_stdio_output@@AEAA_N_N@Z 000000018012ecc8 f i libucrt:output.obj
 0001:0012dcc8       ??$type_case_integer@$0BA@@?$output_processor@DV?$string_output_adapter@D@__crt_stdio_output@@V?$standard_base@DV?$string_output_adapter@D@__crt_stdio_output@@@2@@__crt_stdio_output@@AEAA_N_N@Z 000000018012ecc8 f i libucrt:output.obj
 0001:0012decc       ??$type_case_integer_parse_into_buffer@I$07@?$output_processor@DV?$string_output_adapter@D@__crt_stdio_output@@V?$format_validation_base@DV?$string_output_adapter@D@__crt_stdio_output@@@2@@__crt_stdio_output@@AEAAXI_N@Z 000000018012eecc f i libucrt:output.obj
 0001:0012decc       ??$type_case_integer_parse_into_buffer@I$07@?$output_processor@DV?$string_output_adapter@D@__crt_stdio_output@@V?$standard_base@DV?$string_output_adapter@D@__crt_stdio_output@@@2@@__crt_stdio_output@@AEAAXI_N@Z 000000018012eecc f i libucrt:output.obj
 0001:0012df3c       ??$type_case_integer_parse_into_buffer@I$09@?$output_processor@DV?$string_output_adapter@D@__crt_stdio_output@@V?$format_validation_base@DV?$string_output_adapter@D@__crt_stdio_output@@@2@@__crt_stdio_output@@AEAAXI_N@Z 000000018012ef3c f i libucrt:output.obj
 0001:0012df3c       ??$type_case_integer_parse_into_buffer@I$09@?$output_processor@DV?$string_output_adapter@D@__crt_stdio_output@@V?$standard_base@DV?$string_output_adapter@D@__crt_stdio_output@@@2@@__crt_stdio_output@@AEAAXI_N@Z 000000018012ef3c f i libucrt:output.obj
 0001:0012dfe8       ??$type_case_integer_parse_into_buffer@I$0BA@@?$output_processor@DV?$string_output_adapter@D@__crt_stdio_output@@V?$format_validation_base@DV?$string_output_adapter@D@__crt_stdio_output@@@2@@__crt_stdio_output@@AEAAXI_N@Z 000000018012efe8 f i libucrt:output.obj
 0001:0012dfe8       ??$type_case_integer_parse_into_buffer@I$0BA@@?$output_processor@DV?$string_output_adapter@D@__crt_stdio_output@@V?$standard_base@DV?$string_output_adapter@D@__crt_stdio_output@@@2@@__crt_stdio_output@@AEAAXI_N@Z 000000018012efe8 f i libucrt:output.obj
 0001:0012e06c       ??$type_case_integer_parse_into_buffer@_K$07@?$output_processor@DV?$string_output_adapter@D@__crt_stdio_output@@V?$format_validation_base@DV?$string_output_adapter@D@__crt_stdio_output@@@2@@__crt_stdio_output@@AEAAX_K_N@Z 000000018012f06c f i libucrt:output.obj
 0001:0012e06c       ??$type_case_integer_parse_into_buffer@_K$07@?$output_processor@DV?$string_output_adapter@D@__crt_stdio_output@@V?$standard_base@DV?$string_output_adapter@D@__crt_stdio_output@@@2@@__crt_stdio_output@@AEAAX_K_N@Z 000000018012f06c f i libucrt:output.obj
 0001:0012e0dc       ??$type_case_integer_parse_into_buffer@_K$09@?$output_processor@DV?$string_output_adapter@D@__crt_stdio_output@@V?$format_validation_base@DV?$string_output_adapter@D@__crt_stdio_output@@@2@@__crt_stdio_output@@AEAAX_K_N@Z 000000018012f0dc f i libucrt:output.obj
 0001:0012e0dc       ??$type_case_integer_parse_into_buffer@_K$09@?$output_processor@DV?$string_output_adapter@D@__crt_stdio_output@@V?$standard_base@DV?$string_output_adapter@D@__crt_stdio_output@@@2@@__crt_stdio_output@@AEAAX_K_N@Z 000000018012f0dc f i libucrt:output.obj
 0001:0012e18c       ??$type_case_integer_parse_into_buffer@_K$0BA@@?$output_processor@DV?$string_output_adapter@D@__crt_stdio_output@@V?$format_validation_base@DV?$string_output_adapter@D@__crt_stdio_output@@@2@@__crt_stdio_output@@AEAAX_K_N@Z 000000018012f18c f i libucrt:output.obj
 0001:0012e18c       ??$type_case_integer_parse_into_buffer@_K$0BA@@?$output_processor@DV?$string_output_adapter@D@__crt_stdio_output@@V?$standard_base@DV?$string_output_adapter@D@__crt_stdio_output@@@2@@__crt_stdio_output@@AEAAX_K_N@Z 000000018012f18c f i libucrt:output.obj
 0001:0012e210       ?crop_zeroes@__crt_stdio_output@@YAXPEADQEAU__crt_locale_pointers@@@Z 000000018012f210 f i libucrt:output.obj
 0001:0012e280       ?get_raw_ptd@__crt_cached_ptd_host@@QEAAPEAU__acrt_ptd@@XZ 000000018012f280 f i libucrt:output.obj
 0001:0012e2e8       ?parse_int_from_format_string@?$output_processor@DV?$string_output_adapter@D@__crt_stdio_output@@V?$format_validation_base@DV?$string_output_adapter@D@__crt_stdio_output@@@2@@__crt_stdio_output@@AEAA_NQEAH@Z 000000018012f2e8 f i libucrt:output.obj
 0001:0012e2e8       ?parse_int_from_format_string@?$output_processor@DV?$string_output_adapter@D@__crt_stdio_output@@V?$standard_base@DV?$string_output_adapter@D@__crt_stdio_output@@@2@@__crt_stdio_output@@AEAA_NQEAH@Z 000000018012f2e8 f i libucrt:output.obj
 0001:0012e378       ?process@?$output_processor@DV?$string_output_adapter@D@__crt_stdio_output@@V?$format_validation_base@DV?$string_output_adapter@D@__crt_stdio_output@@@2@@__crt_stdio_output@@QEAAHXZ 000000018012f378 f i libucrt:output.obj
 0001:0012e6fc       ?process@?$output_processor@DV?$string_output_adapter@D@__crt_stdio_output@@V?$standard_base@DV?$string_output_adapter@D@__crt_stdio_output@@@2@@__crt_stdio_output@@QEAAHXZ 000000018012f6fc f i libucrt:output.obj
 0001:0012ea7c       ?state_case_size@?$output_processor@DV?$string_output_adapter@D@__crt_stdio_output@@V?$format_validation_base@DV?$string_output_adapter@D@__crt_stdio_output@@@2@@__crt_stdio_output@@AEAA_NXZ 000000018012fa7c f i libucrt:output.obj
 0001:0012ea7c       ?state_case_size@?$output_processor@DV?$string_output_adapter@D@__crt_stdio_output@@V?$standard_base@DV?$string_output_adapter@D@__crt_stdio_output@@@2@@__crt_stdio_output@@AEAA_NXZ 000000018012fa7c f i libucrt:output.obj
 0001:0012ec04       ?state_case_type@?$output_processor@DV?$string_output_adapter@D@__crt_stdio_output@@V?$format_validation_base@DV?$string_output_adapter@D@__crt_stdio_output@@@2@@__crt_stdio_output@@AEAA_NXZ 000000018012fc04 f i libucrt:output.obj
 0001:0012ec04       ?state_case_type@?$output_processor@DV?$string_output_adapter@D@__crt_stdio_output@@V?$standard_base@DV?$string_output_adapter@D@__crt_stdio_output@@@2@@__crt_stdio_output@@AEAA_NXZ 000000018012fc04 f i libucrt:output.obj
 0001:0012f008       ?type_case_Z@?$output_processor@DV?$string_output_adapter@D@__crt_stdio_output@@V?$format_validation_base@DV?$string_output_adapter@D@__crt_stdio_output@@@2@@__crt_stdio_output@@AEAA_NXZ 0000000180130008 f i libucrt:output.obj
 0001:0012f008       ?type_case_Z@?$output_processor@DV?$string_output_adapter@D@__crt_stdio_output@@V?$standard_base@DV?$string_output_adapter@D@__crt_stdio_output@@@2@@__crt_stdio_output@@AEAA_NXZ 0000000180130008 f i libucrt:output.obj
 0001:0012f084       ?type_case_a@?$output_processor@DV?$string_output_adapter@D@__crt_stdio_output@@V?$format_validation_base@DV?$string_output_adapter@D@__crt_stdio_output@@@2@@__crt_stdio_output@@AEAA_NXZ 0000000180130084 f i libucrt:output.obj
 0001:0012f084       ?type_case_a@?$output_processor@DV?$string_output_adapter@D@__crt_stdio_output@@V?$standard_base@DV?$string_output_adapter@D@__crt_stdio_output@@@2@@__crt_stdio_output@@AEAA_NXZ 0000000180130084 f i libucrt:output.obj
 0001:0012f2d8       ?type_case_c_tchar@?$output_processor@DV?$string_output_adapter@D@__crt_stdio_output@@V?$format_validation_base@DV?$string_output_adapter@D@__crt_stdio_output@@@2@@__crt_stdio_output@@AEAA_ND@Z 00000001801302d8 f i libucrt:output.obj
 0001:0012f2d8       ?type_case_c_tchar@?$output_processor@DV?$string_output_adapter@D@__crt_stdio_output@@V?$standard_base@DV?$string_output_adapter@D@__crt_stdio_output@@@2@@__crt_stdio_output@@AEAA_ND@Z 00000001801302d8 f i libucrt:output.obj
 0001:0012f3ac       ?type_case_n@?$output_processor@DV?$string_output_adapter@D@__crt_stdio_output@@V?$format_validation_base@DV?$string_output_adapter@D@__crt_stdio_output@@@2@@__crt_stdio_output@@AEAA_NXZ 00000001801303ac f i libucrt:output.obj
 0001:0012f3ac       ?type_case_n@?$output_processor@DV?$string_output_adapter@D@__crt_stdio_output@@V?$standard_base@DV?$string_output_adapter@D@__crt_stdio_output@@@2@@__crt_stdio_output@@AEAA_NXZ 00000001801303ac f i libucrt:output.obj
 0001:0012f464       ?type_case_s@?$output_processor@DV?$string_output_adapter@D@__crt_stdio_output@@V?$format_validation_base@DV?$string_output_adapter@D@__crt_stdio_output@@@2@@__crt_stdio_output@@AEAA_NXZ 0000000180130464 f i libucrt:output.obj
 0001:0012f464       ?type_case_s@?$output_processor@DV?$string_output_adapter@D@__crt_stdio_output@@V?$standard_base@DV?$string_output_adapter@D@__crt_stdio_output@@@2@@__crt_stdio_output@@AEAA_NXZ 0000000180130464 f i libucrt:output.obj
 0001:0012f500       ?update_locale_slow@__crt_cached_ptd_host@@AEAAXXZ 0000000180130500 f i libucrt:output.obj
 0001:0012f578       ?write_string@?$string_output_adapter@D@__crt_stdio_output@@QEBAXQEBDHQEAHAEAV__crt_cached_ptd_host@@@Z 0000000180130578 f i libucrt:output.obj
 0001:0012f61c       __stdio_common_vsprintf    000000018013061c f   libucrt:output.obj
 0001:0012f870       __stdio_common_vsprintf_s  0000000180130870 f   libucrt:output.obj
 0001:0012f984       ??$parse_integer@KV?$c_string_character_source@D@__crt_strtox@@$00@__crt_strtox@@YAKAEAV__crt_cached_ptd_host@@V?$c_string_character_source@D@0@H_N@Z 0000000180130984 f i libucrt:atox.obj
 0001:0012fc74       _ischartype_l              0000000180130c74 f i libucrt:atox.obj
 0001:0012fcec       atol                       0000000180130cec f   libucrt:atox.obj
 0001:0012fdb0       strncmp                    0000000180130db0 f   libucrt:strncmp.obj
 0001:0012fe30       calloc                     0000000180130e30 f   libucrt:calloc.obj
 0001:0012fe38       wcsncmp                    0000000180130e38 f   libucrt:wcsncmp.obj
 0001:0012fe70       __remainder_piby2d2f_forAsm 0000000180130e70 f   libucrt:remainder_piby2f_forasm.obj
 0001:0012ffc0       __remainder_piby2_fma3     0000000180130fc0 f   libucrt:remainder_piby2_forfma3.obj
 0001:001301b0       __remainder_piby2_fma3_bdl 00000001801311b0 f   libucrt:remainder_piby2_forfma3.obj
 0001:00130228       _cosf_special              0000000180131228 f   libucrt:sincos_special.obj
 0001:001302c8       _sinf_special              00000001801312c8 f   libucrt:sincos_special.obj
 0001:001302dc       _tanf_special              00000001801312dc f   libucrt:sincos_special.obj
 0001:001302f0       _clrfp                     00000001801312f0 f   libucrt:fpctrl.obj
 0001:00130310       _ctrlfp                    0000000180131310 f   libucrt:fpctrl.obj
 0001:0013038c       _set_statfp                000000018013138c f   libucrt:fpctrl.obj
 0001:001303ac       _statfp                    00000001801313ac f   libucrt:fpctrl.obj
 0001:001303c0       __acrt_initialize_fma3     00000001801313c0 f   libucrt:fma3_available.obj
 0001:00130430       __remainder_piby2d2f_forC  0000000180131430 f   libucrt:remainder_piby2f_forc.obj
 0001:001306e0       _handle_error              00000001801316e0 f   libucrt:libm_error.obj
 0001:00130808       _handle_errorf             0000000180131808 f   libucrt:libm_error.obj
 0001:0013093c       _handle_nan                000000018013193c f   libucrt:libm_error.obj
 0001:00130958       _handle_nanf               0000000180131958 f   libucrt:libm_error.obj
 0001:00130968       _free_base                 0000000180131968 f   libucrt:free_base.obj
 0001:00130d1c       __acrt_freeptd             0000000180131d1c f   libucrt:per_thread_data.obj
 0001:00130d60       __acrt_getptd              0000000180131d60 f   libucrt:per_thread_data.obj
 0001:00130e34       __acrt_getptd_head         0000000180131e34 f   libucrt:per_thread_data.obj
 0001:00130ed8       __acrt_getptd_noexit       0000000180131ed8 f   libucrt:per_thread_data.obj
 0001:00130fa0       __acrt_getptd_noexit_explicit 0000000180131fa0 f   libucrt:per_thread_data.obj
 0001:00131060       __acrt_initialize_ptd      0000000180132060 f   libucrt:per_thread_data.obj
 0001:0013109c       __acrt_uninitialize_ptd    000000018013209c f   libucrt:per_thread_data.obj
 0001:001310c0       __acrt_initialize_locks    00000001801320c0 f   libucrt:locks.obj
 0001:00131108       __acrt_lock                0000000180132108 f   libucrt:locks.obj
 0001:00131124       __acrt_uninitialize_locks  0000000180132124 f   libucrt:locks.obj
 0001:0013115c       __acrt_unlock              000000018013215c f   libucrt:locks.obj
 0001:00131178       __acrt_app_verifier_enabled 0000000180132178 f   libucrt:peb_access.obj
 0001:00131194       __acrt_is_secure_process   0000000180132194 f   libucrt:peb_access.obj
 0001:001311ac       __acrt_get_process_end_policy 00000001801321ac f   libucrt:win_policies.obj
 0001:001311dc       ?get_raw_ptd_noexit@__crt_cached_ptd_host@@QEAAPEAU__acrt_ptd@@XZ 00000001801321dc f i libucrt:invalid_parameter.obj
 0001:00131248       ?value@?$dual_state_global@P6AXPEB_W00I_K@Z@__crt_state_management@@QEAAAEAP6AXPEB_W00I_K@ZAEAV__crt_cached_ptd_host@@@Z 0000000180132248 f i libucrt:invalid_parameter.obj
 0001:00131294       __acrt_call_reportfault    0000000180132294 f   libucrt:invalid_parameter.obj
 0001:001313f0       __acrt_initialize_invalid_parameter_handler 00000001801323f0 f   libucrt:invalid_parameter.obj
 0001:001313f8       _invalid_parameter         00000001801323f8 f   libucrt:invalid_parameter.obj
 0001:00131494       _invalid_parameter_internal 0000000180132494 f   libucrt:invalid_parameter.obj
 0001:00131560       _invalid_parameter_noinfo  0000000180132560 f   libucrt:invalid_parameter.obj
 0001:00131580       _invoke_watson             0000000180132580 f   libucrt:invalid_parameter.obj
 0001:001315c8       __acrt_errno_from_os_error 00000001801325c8 f   libucrt:errno.obj
 0001:00131610       __acrt_errno_map_os_error  0000000180132610 f   libucrt:errno.obj
 0001:00131658       __acrt_errno_map_os_error_ptd 0000000180132658 f   libucrt:errno.obj
 0001:0013167c       __doserrno                 000000018013267c f   libucrt:errno.obj
 0001:0013169c       _errno                     000000018013269c f   libucrt:errno.obj
 0001:001316bc       _calloc_base               00000001801326bc f   libucrt:calloc_base.obj
 0001:00131748       ??$__acrt_convert_wcs_mbs_cp@D_WV<lambda_7c9dea7b4ca7285d2cdb541a38da6275>@@U__crt_win32_buffer_internal_dynamic_resizing@@@@YAHQEBDAEAV?$__crt_win32_buffer@_WU__crt_win32_buffer_internal_dynamic_resizing@@@@AEBV<lambda_7c9dea7b4ca7285d2cdb541a38da6275>@@I@Z 0000000180132748 f i libucrt:argv_wildcards.obj
 0001:001318c4       ??$__acrt_convert_wcs_mbs_cp@_WDV<lambda_d8593a27d1aa8c02be35c86a17d324c4>@@U__crt_win32_buffer_internal_dynamic_resizing@@@@YAHQEB_WAEAV?$__crt_win32_buffer@DU__crt_win32_buffer_internal_dynamic_resizing@@@@AEBV<lambda_d8593a27d1aa8c02be35c86a17d324c4>@@I@Z 00000001801328c4 f i libucrt:argv_wildcards.obj
 0001:00132168       ??0_LocaleUpdate@@QEAA@QEAU__crt_locale_pointers@@@Z 0000000180133168 f i libucrt:argv_wildcards.obj
 0001:00132204       __acrt_expand_narrow_argv_wildcards 0000000180133204 f   libucrt:argv_wildcards.obj
 0001:0013220c       ??$__acrt_convert_wcs_mbs_cp@_WDV<lambda_f788ae46380686e8b737efdd8c720d07>@@U__crt_win32_buffer_no_resizing@@@@YAHQEB_WAEAV?$__crt_win32_buffer@DU__crt_win32_buffer_no_resizing@@@@AEBV<lambda_f788ae46380686e8b737efdd8c720d07>@@I@Z 000000018013320c f i libucrt:getmodulefilenamea.obj
 0001:00132328       __acrt_GetModuleFileNameA  0000000180133328 f   libucrt:getmodulefilenamea.obj
 0001:00132c44       __acrt_initialize_multibyte 0000000180133c44 f   libucrt:mbctype.obj
 0001:00132ca4       __acrt_update_thread_multibyte_data 0000000180133ca4 f   libucrt:mbctype.obj
 0001:00132cc0       _setmbcp_nolock            0000000180133cc0 f   libucrt:mbctype.obj
 0001:00132ff4       _ismbblead                 0000000180133ff4 f   libucrt:ismbbyte.obj
 0001:00133008       __acrt_initialize_command_line 0000000180134008 f   libucrt:argv_data.obj
 0001:00133030       __acrt_MultiByteToWideChar 0000000180134030 f   libucrt:multibytetowidechar.obj
 0001:001330c0       __acrt_WideCharToMultiByte 00000001801340c0 f   libucrt:widechartomultibyte.obj
 0001:001331a0       __dcrt_get_narrow_environment_from_os 00000001801341a0 f   libucrt:get_environment_from_os.obj
 0001:001332b0       _recalloc_base             00000001801342b0 f   libucrt:recalloc.obj
 0001:00133504       __acrt_AppPolicyGetProcessTerminationMethodInternal 0000000180134504 f   libucrt:winapi_thunks.obj
 0001:0013355c       __acrt_AreFileApisANSI     000000018013455c f   libucrt:winapi_thunks.obj
 0001:001335a0       __acrt_FlsAlloc            00000001801345a0 f   libucrt:winapi_thunks.obj
 0001:001335a8       __acrt_FlsFree             00000001801345a8 f   libucrt:winapi_thunks.obj
 0001:001335b0       __acrt_FlsGetValue         00000001801345b0 f   libucrt:winapi_thunks.obj
 0001:001335b8       __acrt_FlsSetValue         00000001801345b8 f   libucrt:winapi_thunks.obj
 0001:001335c0       __acrt_InitializeCriticalSectionEx 00000001801345c0 f   libucrt:winapi_thunks.obj
 0001:00133630       __acrt_LCMapStringEx       0000000180134630 f   libucrt:winapi_thunks.obj
 0001:0013371c       __acrt_LocaleNameToLCID    000000018013471c f   libucrt:winapi_thunks.obj
 0001:0013377c       __acrt_initialize_winapi_thunks 000000018013477c f   libucrt:winapi_thunks.obj
 0001:001337a0       __acrt_uninitialize_winapi_thunks 00000001801347a0 f   libucrt:winapi_thunks.obj
 0001:001337e4       __acrt_initialize_heap     00000001801347e4 f   libucrt:heap_handle.obj
 0001:00133800       __acrt_uninitialize_heap   0000000180134800 f   libucrt:heap_handle.obj
 0001:00133a04       __acrt_initialize_lowio    0000000180134a04 f   libucrt:ioinit.obj
 0001:00133a40       __acrt_uninitialize_lowio  0000000180134a40 f   libucrt:ioinit.obj
 0001:00133a80       __acrt_execute_initializers 0000000180134a80 f   libucrt:shared_initialization.obj
 0001:00133b14       __acrt_execute_uninitializers 0000000180134b14 f   libucrt:shared_initialization.obj
 0001:00133b5c       __acrt_initialize_new_handler 0000000180134b5c f   libucrt:new_handler.obj
 0001:00133b64       _callnewh                  0000000180134b64 f   libucrt:new_handler.obj
 0001:00133ba4       _query_new_handler         0000000180134ba4 f   libucrt:new_handler.obj
 0001:00133c24       __acrt_get_sigabrt_handler 0000000180134c24 f   libucrt:signal.obj
 0001:00133c54       __acrt_initialize_signal_handlers 0000000180134c54 f   libucrt:signal.obj
 0001:00133c74       raise                      0000000180134c74 f   libucrt:signal.obj
 0001:00133ef0       __acrt_has_user_matherr    0000000180134ef0 f   libucrt:matherr.obj
 0001:00133f10       __acrt_initialize_user_matherr 0000000180134f10 f   libucrt:matherr.obj
 0001:00133f18       __acrt_invoke_user_matherr 0000000180134f18 f   libucrt:matherr.obj
 0001:00134134       __acrt_stdio_flush_nolock  0000000180135134 f   libucrt:fflush.obj
 0001:001341c0       _fflush_nolock             00000001801351c0 f   libucrt:fflush.obj
 0001:00134294       _flushall                  0000000180135294 f   libucrt:fflush.obj
 0001:0013429c       __acrt_initialize_stdio    000000018013529c f   libucrt:_file.obj
 0001:001343bc       __acrt_uninitialize_stdio  00000001801353bc f   libucrt:_file.obj
 0001:00134418       _lock_file                 0000000180135418 f   libucrt:_file.obj
 0001:00134424       _unlock_file               0000000180135424 f   libucrt:_file.obj
 0001:00134430       _malloc_base               0000000180135430 f   libucrt:malloc_base.obj
 0001:00134490       strnlen                    0000000180135490 f   libucrt:strnlen.obj
 0001:001345e0       wcsnlen                    00000001801355e0 f   libucrt:strnlen.obj
 0001:001347b8       __acrt_update_locale_info  00000001801357b8 f   libucrt:locale_update.obj
 0001:001347ec       __acrt_update_locale_info_explicit 00000001801357ec f   libucrt:locale_update.obj
 0001:00134824       __acrt_update_multibyte_info 0000000180135824 f   libucrt:locale_update.obj
 0001:00134858       __acrt_update_multibyte_info_explicit 0000000180135858 f   libucrt:locale_update.obj
 0001:001353a4       __acrt_fp_format           00000001801363a4 f   libucrt:cvt.obj
 0001:0013568c       _wctomb_internal           000000018013668c f   libucrt:wctomb.obj
 0001:0013583c       _mbtowc_internal           000000018013683c f   libucrt:mbtowc.obj
 0001:001359b4       _fileno                    00000001801369b4 f   libucrt:fileno.obj
 0001:001359dc       _get_printf_count_output   00000001801369dc f   libucrt:printf_count_output.obj
 0001:00135a64       __acrt_set_locale_changed  0000000180136a64 f   libucrt:wsetlocale.obj
 0001:00135a70       __acrt_uninitialize_locale 0000000180136a70 f   libucrt:wsetlocale.obj
 0001:00135aa0       __pctype_func              0000000180136aa0 f   libucrt:ctype.obj
 0001:00135ad0       _isctype_l                 0000000180136ad0 f   libucrt:isctype.obj
 0001:00135bf0       _get_fpsr                  0000000180136bf0 f   libucrt:fpsr.obj
 0001:00135c00       _set_fpsr                  0000000180136c00 f   libucrt:fpsr.obj
 0001:00135c0a       _fclrf                     0000000180136c0a f   libucrt:fpsr.obj
 0001:00135c1e       _frnd                      0000000180136c1e f   libucrt:fpsr.obj
 0001:00135c40       _raise_exc                 0000000180136c40 f   libucrt:fpexcept.obj
 0001:00135c68       _raise_exc_ex              0000000180136c68 f   libucrt:fpexcept.obj
 0001:00135f70       _raise_excf                0000000180136f70 f   libucrt:fpexcept.obj
 0001:00135f9c       _set_errno_from_matherr    0000000180136f9c f   libucrt:fpexcept.obj
 0001:00135fcc       __acrt_add_locale_ref      0000000180136fcc f   libucrt:locale_refcounting.obj
 0001:00136058       __acrt_free_locale         0000000180137058 f   libucrt:locale_refcounting.obj
 0001:001361d0       __acrt_locale_add_lc_time_reference 00000001801371d0 f   libucrt:locale_refcounting.obj
 0001:001361f8       __acrt_locale_free_lc_time_if_unreferenced 00000001801371f8 f   libucrt:locale_refcounting.obj
 0001:00136230       __acrt_locale_release_lc_time_reference 0000000180137230 f   libucrt:locale_refcounting.obj
 0001:00136258       __acrt_release_locale_ref  0000000180137258 f   libucrt:locale_refcounting.obj
 0001:00136300       __acrt_update_thread_locale_data 0000000180137300 f   libucrt:locale_refcounting.obj
 0001:00136370       _updatetlocinfoEx_nolock   0000000180137370 f   libucrt:locale_refcounting.obj
 0001:001363d8       _query_new_mode            00000001801373d8 f   libucrt:new_mode.obj
 0001:001363e0       qsort                      00000001801373e0 f   libucrt:qsort.obj
 0001:001367f0       strncpy_s                  00000001801377f0 f   libucrt:strncpy_s.obj
 0001:00136980       strpbrk                    0000000180137980 f   libucrt:strpbrk.obj
 0001:00136d48       _mbsdec                    0000000180137d48 f   libucrt:mbsdec.obj
 0001:00136d50       _mbsdec_l                  0000000180137d50 f   libucrt:mbsdec.obj
 0001:00136de4       __acrt_GetStringTypeA      0000000180137de4 f   libucrt:getstringtypea.obj
 0001:001372a8       __acrt_LCMapStringA        00000001801382a8 f   libucrt:lcmapstringa.obj
 0001:00137358       _msize_base                0000000180138358 f   libucrt:msize.obj
 0001:00137394       _realloc_base              0000000180138394 f   libucrt:realloc_base.obj
 0001:00137410       __acrt_DownlevelLocaleNameToLCID 0000000180138410 f   libucrt:lcidtoname_downlevel.obj
 0001:001374b4       __acrt_lowio_create_handle_array 00000001801384b4 f   libucrt:osfinfo.obj
 0001:0013755c       __acrt_lowio_destroy_handle_array 000000018013855c f   libucrt:osfinfo.obj
 0001:001375ac       __acrt_lowio_ensure_fh_exists 00000001801385ac f   libucrt:osfinfo.obj
 0001:00137654       __acrt_lowio_lock_fh       0000000180138654 f   libucrt:osfinfo.obj
 0001:0013767c       __acrt_lowio_unlock_fh     000000018013867c f   libucrt:osfinfo.obj
 0001:001376a4       _free_osfhnd               00000001801386a4 f   libucrt:osfinfo.obj
 0001:00137760       _get_osfhandle             0000000180138760 f   libucrt:osfinfo.obj
 0001:00137864       _commit                    0000000180138864 f   libucrt:commit.obj
 0001:00138100       _write_internal            0000000180139100 f   libucrt:write.obj
 0001:00138220       _write_nolock              0000000180139220 f   libucrt:write.obj
 0001:00138528       _fcloseall                 0000000180139528 f   libucrt:closeall.obj
 0001:001385dc       __acrt_stdio_free_buffer_nolock 00000001801395dc f   libucrt:_freebuf.obj
 0001:00138620       _isatty                    0000000180139620 f   libucrt:isatty.obj
 0001:00138750       __acrt_fp_strflt_to_string 0000000180139750 f   libucrt:_fptostr.obj
 0001:00138860       ?divide@__crt_strtox@@YA_KAEAUbig_integer@1@AEBU21@@Z 0000000180139860 f i libucrt:cfout.obj
 0001:00138cfc       __acrt_fltout              0000000180139cfc f   libucrt:cfout.obj
 0001:0013a014       fegetround                 000000018013b014 f   libucrt:fegetround.obj
 0001:0013a028       ?__c32rtomb_utf8@__crt_mbstring@@YA_KPEAD_UPEAU_Mbstatet@@AEAV__crt_cached_ptd_host@@@Z 000000018013b028 f   libucrt:c32rtomb.obj
 0001:0013a0cc       ?__mbrtowc_utf8@__crt_mbstring@@YA_KPEA_WPEBD_KPEAU_Mbstatet@@AEAV__crt_cached_ptd_host@@@Z 000000018013b0cc f   libucrt:mbrtowc.obj
 0001:0013a110       ?__mbsrtowcs_utf8@__crt_mbstring@@YA_KPEA_WPEAPEBD_KPEAU_Mbstatet@@AEAV__crt_cached_ptd_host@@@Z 000000018013b110 f   libucrt:mbrtowc.obj
 0001:0013a2b4       __acrt_locale_free_monetary 000000018013b2b4 f   libucrt:initmon.obj
 0001:0013a3c0       __acrt_locale_free_numeric 000000018013b3c0 f   libucrt:initnum.obj
 0001:0013a460       __acrt_locale_free_time    000000018013b460 f   libucrt:inittime.obj
 0001:0013a568       __strncnt                  000000018013b568 f   libucrt:strncnt.obj
 0001:0013a580       __ascii_wcsnicmp           000000018013b580 f   libucrt:wcsnicmp.obj
 0001:0013a5cc       _query_app_type            000000018013b5cc f   libucrt:report_runtime_error.obj
 0001:0013a680       _lseeki64_nolock_internal  000000018013b680 f   libucrt:lseek.obj
 0001:0013a688       _putwch_nolock             000000018013b688 f   libucrt:putwch.obj
 0001:0013a7e8       fclose                     000000018013b7e8 f   libucrt:fclose.obj
 0001:0013a880       _controlfp_s               000000018013b880 f   libucrt:contrlfp.obj
 0001:0013a8e4       fegetenv                   000000018013b8e4 f   libucrt:fegetenv.obj
 0001:0013a904       fesetenv                   000000018013b904 f   libucrt:fesetenv.obj
 0001:0013a95c       feholdexcept               000000018013b95c f   libucrt:feholdexcept.obj
 0001:0013a9ac       ceil                       000000018013b9ac f   libucrt:ceil.obj
 0001:0013aa70       log10                      000000018013ba70 f   libucrt:log10.obj
 0001:0013b01c       __acrt_fenv_get_common_round_control 000000018013c01c f   libucrt:_fenvutils.obj
 0001:0013b028       __acrt_fenv_get_control    000000018013c028 f   libucrt:_fenvutils.obj
 0001:0013b10c       __acrt_fenv_get_status     000000018013c10c f   libucrt:_fenvutils.obj
 0001:0013b164       __acrt_fenv_set_control    000000018013c164 f   libucrt:_fenvutils.obj
 0001:0013b29c       __acrt_fenv_set_status     000000018013c29c f   libucrt:_fenvutils.obj
 0001:0013b310       ?reset_and_return@__crt_mbstring@@YA_K_KPEAU_Mbstatet@@@Z 000000018013c310 f   libucrt:common_utf8.obj
 0001:0013b318       ?return_illegal_sequence@__crt_mbstring@@YA_KPEAU_Mbstatet@@AEAV__crt_cached_ptd_host@@@Z 000000018013c318 f   libucrt:common_utf8.obj
 0001:0013b32c       ?__mbrtoc32_utf8@__crt_mbstring@@YA_KPEA_UPEBD_KPEAU_Mbstatet@@AEAV__crt_cached_ptd_host@@@Z 000000018013c32c f   libucrt:mbrtoc32.obj
 0001:0013b508       __dcrt_lowio_ensure_console_output_initialized 000000018013c508 f   libucrt:initcon.obj
 0001:0013b55c       __dcrt_terminate_console_output 000000018013c55c f   libucrt:initcon.obj
 0001:0013b578       __dcrt_write_console       000000018013c578 f   libucrt:initcon.obj
 0001:0013b6b0       _close_internal            000000018013c6b0 f   libucrt:close.obj
 0001:0013b774       _close_nolock_internal     000000018013c774 f   libucrt:close.obj
 0001:0013b844       ?__acrt_stdio_free_stream@@YAXV__crt_stdio_stream@@@Z 000000018013c844 f   libucrt:stream.obj
 0001:0013b860       _clearfp                   000000018013c860 f   libucrt:ieee.obj
 0001:0013b8cc       _control87                 000000018013c8cc f   libucrt:ieee.obj
 0001:0013bb70       _log10_special             000000018013cb70 f   libucrt:log_special.obj
 0001:0013bc30       _FindPESection             000000018013cc30 f   LIBCMT:pesect.obj
 0001:0013bc80       _IsNonwritableInCurrentImage 000000018013cc80 f   LIBCMT:pesect.obj
 0001:0013bcd0       _ValidateImageBase         000000018013ccd0 f   LIBCMT:pesect.obj
 0001:0013bcfc       __GSHandlerCheck           000000018013ccfc f   LIBCMT:gshandler.obj
 0001:0013bd1c       __GSHandlerCheckCommon     000000018013cd1c f   LIBCMT:gshandler.obj
 0001:0013bd90       __security_check_cookie    000000018013cd90 f   LIBCMT:amdsecgs.obj
 0001:0013bdb0       __GSHandlerCheck_SEH       000000018013cdb0 f   LIBCMT:gshandlerseh.obj
 0001:0013be38       __raise_securityfailure    000000018013ce38 f   LIBCMT:gs_report.obj
 0001:0013be6c       __report_gsfailure         000000018013ce6c f   LIBCMT:gs_report.obj
 0001:0013bf40       __report_rangecheckfailure 000000018013cf40 f   LIBCMT:gs_report.obj
 0001:0013bf54       __report_securityfailure   000000018013cf54 f   LIBCMT:gs_report.obj
 0001:0013c0d8       __GSHandlerCheck_EH        000000018013d0d8 f   LIBCMT:gshandlereh.obj
 0001:0013c158       __C_specific_handler_noexcept 000000018013d158 f   libvcruntime:chandler_noexcept.obj
 0001:0013c1a4       strrchr                    000000018013d1a4 f   libvcruntime:strrchr.obj
 0001:0013c2f0       _guard_dispatch_icall_nop  000000018013d2f0 f   LIBCMT:guard_dispatch.obj
 0001:0013c310       _guard_xfg_dispatch_icall_nop 000000018013d310 f   LIBCMT:guard_xfg_dispatch.obj
 0001:0013c340       memcpy_repmovs             000000018013d340 f   libvcruntime:memcpy.obj
 0001:0013c350       memcpy                     000000018013d350 f   libvcruntime:memcpy.obj
 0001:0013c350       memcpy_$fo_default$        000000018013d350     libvcruntime:memcpy.obj
 0001:0013c350       memmove                    000000018013d350 f   libvcruntime:memcpy.obj
 0001:0013c9e0       memset_repstos             000000018013d9e0 f   libvcruntime:memset.obj
 0001:0013c9f0       memset                     000000018013d9f0 f   libvcruntime:memset.obj
 0002:00000000       __imp_FreeLibrary          000000018013f000     kernel32:KERNEL32.dll
 0002:00000008       __imp_GetProcAddress       000000018013f008     kernel32:KERNEL32.dll
 0002:00000010       __imp_LoadLibraryA         000000018013f010     kernel32:KERNEL32.dll
 0002:00000018       __imp_WriteConsoleW        000000018013f018     kernel32:KERNEL32.dll
 0002:00000020       __imp_RaiseException       000000018013f020     kernel32:KERNEL32.dll
 0002:00000028       __imp_GetLastError         000000018013f028     kernel32:KERNEL32.dll
 0002:00000030       __imp_GetSystemInfo        000000018013f030     kernel32:KERNEL32.dll
 0002:00000038       __imp_VirtualProtect       000000018013f038     kernel32:KERNEL32.dll
 0002:00000040       __imp_VirtualQuery         000000018013f040     kernel32:KERNEL32.dll
 0002:00000048       __imp_GetModuleHandleW     000000018013f048     kernel32:KERNEL32.dll
 0002:00000050       __imp_LoadLibraryExA       000000018013f050     kernel32:KERNEL32.dll
 0002:00000058       __imp_InitializeSListHead  000000018013f058     kernel32:KERNEL32.dll
 0002:00000060       __imp_QueryPerformanceCounter 000000018013f060     kernel32:KERNEL32.dll
 0002:00000068       __imp_GetCurrentProcessId  000000018013f068     kernel32:KERNEL32.dll
 0002:00000070       __imp_GetCurrentThreadId   000000018013f070     kernel32:KERNEL32.dll
 0002:00000078       __imp_GetSystemTimeAsFileTime 000000018013f078     kernel32:KERNEL32.dll
 0002:00000080       __imp_RtlCaptureContext    000000018013f080     kernel32:KERNEL32.dll
 0002:00000088       __imp_RtlLookupFunctionEntry 000000018013f088     kernel32:KERNEL32.dll
 0002:00000090       __imp_RtlVirtualUnwind     000000018013f090     kernel32:KERNEL32.dll
 0002:00000098       __imp_IsDebuggerPresent    000000018013f098     kernel32:KERNEL32.dll
 0002:000000a0       __imp_UnhandledExceptionFilter 000000018013f0a0     kernel32:KERNEL32.dll
 0002:000000a8       __imp_SetUnhandledExceptionFilter 000000018013f0a8     kernel32:KERNEL32.dll
 0002:000000b0       __imp_GetStartupInfoW      000000018013f0b0     kernel32:KERNEL32.dll
 0002:000000b8       __imp_IsProcessorFeaturePresent 000000018013f0b8     kernel32:KERNEL32.dll
 0002:000000c0       __imp_InterlockedPushEntrySList 000000018013f0c0     kernel32:KERNEL32.dll
 0002:000000c8       __imp_InterlockedFlushSList 000000018013f0c8     kernel32:KERNEL32.dll
 0002:000000d0       __imp_RtlUnwindEx          000000018013f0d0     kernel32:KERNEL32.dll
 0002:000000d8       __imp_SetLastError         000000018013f0d8     kernel32:KERNEL32.dll
 0002:000000e0       __imp_EnterCriticalSection 000000018013f0e0     kernel32:KERNEL32.dll
 0002:000000e8       __imp_LeaveCriticalSection 000000018013f0e8     kernel32:KERNEL32.dll
 0002:000000f0       __imp_DeleteCriticalSection 000000018013f0f0     kernel32:KERNEL32.dll
 0002:000000f8       __imp_InitializeCriticalSectionAndSpinCount 000000018013f0f8     kernel32:KERNEL32.dll
 0002:00000100       __imp_TlsAlloc             000000018013f100     kernel32:KERNEL32.dll
 0002:00000108       __imp_TlsGetValue          000000018013f108     kernel32:KERNEL32.dll
 0002:00000110       __imp_TlsSetValue          000000018013f110     kernel32:KERNEL32.dll
 0002:00000118       __imp_TlsFree              000000018013f118     kernel32:KERNEL32.dll
 0002:00000120       __imp_LoadLibraryExW       000000018013f120     kernel32:KERNEL32.dll
 0002:00000128       __imp_EncodePointer        000000018013f128     kernel32:KERNEL32.dll
 0002:00000130       __imp_RtlPcToFileHeader    000000018013f130     kernel32:KERNEL32.dll
 0002:00000138       __imp_GetCurrentProcess    000000018013f138     kernel32:KERNEL32.dll
 0002:00000140       __imp_ExitProcess          000000018013f140     kernel32:KERNEL32.dll
 0002:00000148       __imp_TerminateProcess     000000018013f148     kernel32:KERNEL32.dll
 0002:00000150       __imp_GetModuleHandleExW   000000018013f150     kernel32:KERNEL32.dll
 0002:00000158       __imp_GetModuleFileNameW   000000018013f158     kernel32:KERNEL32.dll
 0002:00000160       __imp_HeapFree             000000018013f160     kernel32:KERNEL32.dll
 0002:00000168       __imp_HeapAlloc            000000018013f168     kernel32:KERNEL32.dll
 0002:00000170       __imp_FindClose            000000018013f170     kernel32:KERNEL32.dll
 0002:00000178       __imp_FindFirstFileExW     000000018013f178     kernel32:KERNEL32.dll
 0002:00000180       __imp_FindNextFileW        000000018013f180     kernel32:KERNEL32.dll
 0002:00000188       __imp_IsValidCodePage      000000018013f188     kernel32:KERNEL32.dll
 0002:00000190       __imp_GetACP               000000018013f190     kernel32:KERNEL32.dll
 0002:00000198       __imp_GetOEMCP             000000018013f198     kernel32:KERNEL32.dll
 0002:000001a0       __imp_GetCPInfo            000000018013f1a0     kernel32:KERNEL32.dll
 0002:000001a8       __imp_GetCommandLineA      000000018013f1a8     kernel32:KERNEL32.dll
 0002:000001b0       __imp_GetCommandLineW      000000018013f1b0     kernel32:KERNEL32.dll
 0002:000001b8       __imp_MultiByteToWideChar  000000018013f1b8     kernel32:KERNEL32.dll
 0002:000001c0       __imp_WideCharToMultiByte  000000018013f1c0     kernel32:KERNEL32.dll
 0002:000001c8       __imp_GetEnvironmentStringsW 000000018013f1c8     kernel32:KERNEL32.dll
 0002:000001d0       __imp_FreeEnvironmentStringsW 000000018013f1d0     kernel32:KERNEL32.dll
 0002:000001d8       __imp_FlsAlloc             000000018013f1d8     kernel32:KERNEL32.dll
 0002:000001e0       __imp_FlsGetValue          000000018013f1e0     kernel32:KERNEL32.dll
 0002:000001e8       __imp_FlsSetValue          000000018013f1e8     kernel32:KERNEL32.dll
 0002:000001f0       __imp_FlsFree              000000018013f1f0     kernel32:KERNEL32.dll
 0002:000001f8       __imp_LCMapStringW         000000018013f1f8     kernel32:KERNEL32.dll
 0002:00000200       __imp_GetProcessHeap       000000018013f200     kernel32:KERNEL32.dll
 0002:00000208       __imp_GetStdHandle         000000018013f208     kernel32:KERNEL32.dll
 0002:00000210       __imp_GetFileType          000000018013f210     kernel32:KERNEL32.dll
 0002:00000218       __imp_GetStringTypeW       000000018013f218     kernel32:KERNEL32.dll
 0002:00000220       __imp_HeapSize             000000018013f220     kernel32:KERNEL32.dll
 0002:00000228       __imp_HeapReAlloc          000000018013f228     kernel32:KERNEL32.dll
 0002:00000230       __imp_SetStdHandle         000000018013f230     kernel32:KERNEL32.dll
 0002:00000238       __imp_FlushFileBuffers     000000018013f238     kernel32:KERNEL32.dll
 0002:00000240       __imp_WriteFile            000000018013f240     kernel32:KERNEL32.dll
 0002:00000248       __imp_GetConsoleOutputCP   000000018013f248     kernel32:KERNEL32.dll
 0002:00000250       __imp_GetConsoleMode       000000018013f250     kernel32:KERNEL32.dll
 0002:00000258       __imp_SetFilePointerEx     000000018013f258     kernel32:KERNEL32.dll
 0002:00000260       __imp_CreateFileW          000000018013f260     kernel32:KERNEL32.dll
 0002:00000268       __imp_CloseHandle          000000018013f268     kernel32:KERNEL32.dll
 0002:00000270       \177KERNEL32_NULL_THUNK_DATA 000000018013f270     kernel32:KERNEL32.dll
 0002:00000278       __guard_check_icall_fptr   000000018013f278     LIBCMT:guard_support.obj
 0002:00000280       __guard_xfg_check_icall_fptr 000000018013f280     LIBCMT:guard_support.obj
 0002:00000288       __guard_dispatch_icall_fptr 000000018013f288     LIBCMT:guard_support.obj
 0002:00000290       __guard_xfg_dispatch_icall_fptr 000000018013f290     LIBCMT:guard_support.obj
 0002:00000298       __guard_xfg_table_dispatch_icall_fptr 000000018013f298     LIBCMT:guard_support.obj
 0002:000002a0       __castguard_check_failure_os_handled_fptr 000000018013f2a0     LIBCMT:guard_support.obj
 0002:000002a8       __guard_memcpy_fptr        000000018013f2a8     libvcruntime:softmemtag.obj
 0002:000002b0       __xc_a                     000000018013f2b0     LIBCMT:initializers.obj
 0002:000016e0       __xc_z                     00000001801406e0     LIBCMT:initializers.obj
 0002:000016e8       __xi_a                     00000001801406e8     LIBCMT:initializers.obj
 0002:000016f0       __acrt_tran_fma3_initializer 00000001801406f0     libucrt:fma3_initializer.obj
 0002:000016f8       __acrt_multibyte_initializer 00000001801406f8     libucrt:multibyte_initializer.obj
 0002:00001700       __acrt_stdio_initializer   0000000180140700     libucrt:stdio_initializer.obj
 0002:00001708       __xi_z                     0000000180140708     LIBCMT:initializers.obj
 0002:00001710       __xp_a                     0000000180140710     LIBCMT:initializers.obj
 0002:00001718       __acrt_locale_terminator   0000000180140718     libucrt:locale_initializer.obj
 0002:00001720       __dcrt_console_output_terminator 0000000180140720     libucrt:console_output_initializer.obj
 0002:00001728       __acrt_stdio_terminator    0000000180140728     libucrt:stdio_initializer.obj
 0002:00001730       __xp_z                     0000000180140730     LIBCMT:initializers.obj
 0002:00001738       __xt_a                     0000000180140738     LIBCMT:initializers.obj
 0002:00001740       __xt_z                     0000000180140740     LIBCMT:initializers.obj
 0002:00001750       ??_7PxCollection@physx@@6B@ 0000000180140750     CmCollection.obj
 0002:000017d0       ??_C@_0BA@DLCJDKDM@NonTrackedAlloc@ 00000001801407d0     CmCollection.obj
 0002:000017e0       ??_7Collection@Cm@physx@@6B@ 00000001801407e0     CmCollection.obj
 0002:00001860       ??_C@_0GE@GBACBMOC@PxCollection?3?3add?5called?5for?5an@ 0000000180140860     CmCollection.obj
 0002:000018d0       ??_C@_0EM@JHHDMGOE@C?3?2Users?2Jungle?2source?2repos?2Ph@ 00000001801408d0     CmCollection.obj
 0002:00001920       ??_C@_0EM@OMMGDOMK@PxCollection?3?3add?5called?5with?5a@ 0000000180140920     CmCollection.obj
 0002:00001970       ??_C@_0BM@OIFKLHDN@?$DMallocation?5names?5disabled?$DO@ 0000000180140970     CmCollection.obj
 0002:00001990       ??_C@_0FF@HGEGOPLJ@C?3?2Users?2Jungle?2source?2repos?2Ph@ 0000000180140990     CmCollection.obj
 0002:000019e8       ??_C@_08MDGMHCHN@PtrTable@ 00000001801409e8     CmPtrTable.obj
 0002:000019f4       ??_C@_04GKJNKENE@void@     00000001801409f4     CmPtrTable.obj
 0002:00001a00       ??_C@_07DFEBJDHE@mSingle@  0000000180140a00     CmPtrTable.obj
 0002:00001a08       ??_C@_05NLHHBMOH@PxU16@    0000000180140a08     CmPtrTable.obj
 0002:00001a10       ??_C@_06EPKHJPIM@mCount@   0000000180140a10     CmPtrTable.obj
 0002:00001a18       ??_C@_04DDKJGDCM@bool@     0000000180140a18     CmPtrTable.obj
 0002:00001a20       ??_C@_0M@DAGELID@mOwnsMemory@ 0000000180140a20     CmPtrTable.obj
 0002:00001a30       ??_C@_0M@MMPOMMLP@mBufferUsed@ 0000000180140a30     CmPtrTable.obj
 0002:00001a40       ??_7RadixSort@Cm@physx@@6B@ 0000000180140a40     CmRadixSort.obj
 0002:00001a50       __xmm@00000001000000010000000100000001 0000000180140a50     CmRadixSort.obj
 0002:00001a60       __xmm@00000003000000020000000100000000 0000000180140a60     CmRadixSort.obj
 0002:00001a70       ??_7RadixSortBuffered@Cm@physx@@6B@ 0000000180140a70     CmRadixSortBuffered.obj
 0002:00001a80       ??_C@_0FD@NKEPGAOD@C?3?2Users?2Jungle?2source?2repos?2Ph@ 0000000180140a80     CmRadixSortBuffered.obj
 0002:00001ad4       ?sBufferSize@DebugText@Cm@physx@@2HB 0000000180140ad4     CmRenderOutput.obj
 0002:00001ae0       ??_C@_0EN@NJCBGDHJ@C?3?2Users?2Jungle?2source?2repos?2Ph@ 0000000180140ae0     CmRenderOutput.obj
 0002:00001b30       __real@3e19999a            0000000180140b30     CmRenderOutput.obj
 0002:00001b34       __real@3e800000            0000000180140b34     CmRenderOutput.obj
 0002:00001b38       __real@3f3504f3            0000000180140b38     CmRenderOutput.obj
 0002:00001b3c       __real@3f800000            0000000180140b3c     CmRenderOutput.obj
 0002:00001b40       __real@3fddb3d7            0000000180140b40     CmRenderOutput.obj
 0002:00001b44       __real@40c90fdb            0000000180140b44     CmRenderOutput.obj
 0002:00001b50       __xmm@7fffffff7fffffff7fffffff7fffffff 0000000180140b50     CmRenderOutput.obj
 0002:00001b60       __xmm@80000000800000008000000080000000 0000000180140b60     CmRenderOutput.obj
 0002:00001b70       __real@3d4ccccd            0000000180140b70     CmVisualization.obj
 0002:00001b74       __real@3e490fdb            0000000180140b74     CmVisualization.obj
 0002:00001b78       __real@3e99999a            0000000180140b78     CmVisualization.obj
 0002:00001b7c       __real@3f000000            0000000180140b7c     CmVisualization.obj
 0002:00001b80       __real@3fc00000            0000000180140b80     CmVisualization.obj
 0002:00001b90       __xmm@3f800000000000000000000000000000 0000000180140b90     CmVisualization.obj
 0002:00001ba0       ??_C@_0BB@CPDDPFKD@GetUpdatedModule@ 0000000180140ba0     CmWindowsModuleUpdateLoader.obj
 0002:00001bb8       ??_C@_0BA@EGLNOO@PhysXFoundation@ 0000000180140bb8     CmWindowsDelayLoadHook.obj
 0002:00001bc8       ??_C@_0M@ILKNCJKN@PhysXCommon@ 0000000180140bc8     CmWindowsDelayLoadHook.obj
 0002:00001c00       ??_C@_06EJKDJEDO@PxBase@   0000000180140c00     GuBounds.obj
 0002:00001c08       ??_C@_0N@CDGINLLF@PxConvexMesh@ 0000000180140c08     GuBounds.obj
 0002:00001c18       ??_C@_0O@PBAKPCEC@PxHeightField@ 0000000180140c18     GuBounds.obj
 0002:00001c28       ??_7PxBase@physx@@6B@      0000000180140c28     GuBounds.obj
 0002:00001c50       ??_C@_0DG@DFOCGHP@Gu?3?3GeometryUnion?3?3computeBound@ 0000000180140c50     GuBounds.obj
 0002:00001c90       ??_C@_0EL@NEEGGAFE@C?3?2Users?2Jungle?2source?2repos?2Ph@ 0000000180140c90     GuBounds.obj
 0002:00001cdc       __real@358637bd            0000000180140cdc     GuBounds.obj
 0002:00001ce0       __real@3f400000            0000000180140ce0     GuBounds.obj
 0002:00001ce4       __real@3f7fffef            0000000180140ce4     GuBounds.obj
 0002:00001ce8       __real@3f8147ae            0000000180140ce8     GuBounds.obj
 0002:00001cec       __real@7e7fffff            0000000180140cec     GuBounds.obj
 0002:00001cf0       __real@7f7fffff            0000000180140cf0     GuBounds.obj
 0002:00001cf4       __real@fe7fffff            0000000180140cf4     GuBounds.obj
 0002:00001d00       __xmm@000000003a83126f3a83126f3a83126f 0000000180140d00     GuBounds.obj
 0002:00001d10       __xmm@00000000ba83126fba83126fba83126f 0000000180140d10     GuBounds.obj
 0002:00001d20       __xmm@3a83126f3a83126f3a83126f3a83126f 0000000180140d20     GuBounds.obj
 0002:00001d30       __xmm@3f0000003f0000003f0000003f000000 0000000180140d30     GuBounds.obj
 0002:00001d40       __xmm@3f8147ae3f8147ae3f8147ae3f8147ae 0000000180140d40     GuBounds.obj
 0002:00001d50       __xmm@ba83126fba83126fba83126fba83126f 0000000180140d50     GuBounds.obj
 0002:00001d80       __real@3f7ff972            0000000180140d80     GuBox.obj
 0002:00001db0       ??_7?$EntityReport@I@Gu@physx@@6B@ 0000000180140db0     GuCCTSweepTests.obj
 0002:00001dd0       __real@3b03126f            0000000180140dd0     GuCCTSweepTests.obj
 0002:00001dd4       __real@40000000            0000000180140dd4     GuCCTSweepTests.obj
 0002:00001e00       __real@38d1b717            0000000180140e00     GuGeometryQuery.obj
 0002:00001e04       __real@49742400            0000000180140e04     GuGeometryQuery.obj
 0002:00001e08       __real@bf800000            0000000180140e08     GuGeometryQuery.obj
 0002:00001e30       ??_C@_0FA@KNFHINEH@C?3?2Users?2Jungle?2source?2repos?2Ph@ 0000000180140e30     GuGeometryUnion.obj
 0002:00001ec0       ??_7GuMeshFactory@physx@@6B@ 0000000180140ec0     GuMeshFactory.obj
 0002:00001ec8       ??_7MeshDataBase@Gu@physx@@6B@ 0000000180140ec8     GuMeshFactory.obj
 0002:00001ed0       ??_C@_0FA@KLBCMCON@C?3?2Users?2Jungle?2source?2repos?2Ph@ 0000000180140ed0     GuMeshFactory.obj
 0002:00001f20       ??_7TriangleMeshData@Gu@physx@@6B@ 0000000180140f20     GuMeshFactory.obj
 0002:00001f28       ??_7RTreeTriangleData@Gu@physx@@6B@ 0000000180140f28     GuMeshFactory.obj
 0002:00001f30       ??_7BV4TriangleData@Gu@physx@@6B@ 0000000180140f30     GuMeshFactory.obj
 0002:00001f40       ??_C@_0FA@EFMEMMGK@C?3?2Users?2Jungle?2source?2repos?2Ph@ 0000000180140f40     GuMeshFactory.obj
 0002:00001f90       ??_C@_0GP@NHELMDAL@Loading?5triangle?5mesh?5failed?3?5D@ 0000000180140f90     GuMeshFactory.obj
 0002:00002000       ??_C@_0BP@CDOKDACA@RTree?5binary?5image?5load?5error?4@ 0000000180141000     GuMeshFactory.obj
 0002:00002020       ??_C@_0BN@MJPNIELF@BV4?5binary?5image?5load?5error?4@ 0000000180141020     GuMeshFactory.obj
 0002:00002040       ??_C@_0BO@JDPABAOF@BV32?5binary?5image?5load?5error?4@ 0000000180141040     GuMeshFactory.obj
 0002:00002060       ??_C@_0EN@NAEMGKAA@C?3?2Users?2Jungle?2source?2repos?2Ph@ 0000000180141060     GuMeshFactory.obj
 0002:000020d0       ??_C@_0P@GGNFNHKF@PxTriangleMesh@ 00000001801410d0     GuMetaData.obj
 0002:000020e0       ??_C@_07GFCEJNGM@Valency@  00000001801410e0     GuMetaData.obj
 0002:000020e8       ??_C@_07NHGKEEIN@mOffset@  00000001801410e8     GuMetaData.obj
 0002:000020f0       ??_C@_0BB@BAGHBMNJ@BigConvexRawData@ 00000001801410f0     GuMetaData.obj
 0002:00002108       ??_C@_07PBDEJAAC@mSubdiv@  0000000180141108     GuMetaData.obj
 0002:00002110       ??_C@_0L@HNPACPGH@mNbSamples@ 0000000180141110     GuMetaData.obj
 0002:0000211c       ??_C@_04NCKNBPPK@PxU8@     000000018014111c     GuMetaData.obj
 0002:00002128       ??_C@_08DEPEKJNI@mSamples@ 0000000180141128     GuMetaData.obj
 0002:00002134       ??_C@_05LMJPANIN@PxU32@    0000000180141134     GuMetaData.obj
 0002:00002140       ??_C@_08IJDNJBMI@mNbVerts@ 0000000180141140     GuMetaData.obj
 0002:00002150       ??_C@_0M@MMKMIJAF@mNbAdjVerts@ 0000000180141150     GuMetaData.obj
 0002:00002160       ??_C@_0L@EOKMNILC@mValencies@ 0000000180141160     GuMetaData.obj
 0002:00002170       ??_C@_0P@DLGEAMHJ@mAdjacentVerts@ 0000000180141170     GuMetaData.obj
 0002:00002180       ??_C@_0O@PFOPBKAM@BigConvexData@ 0000000180141180     GuMetaData.obj
 0002:00002190       ??_C@_05PLKALGFN@mData@    0000000180141190     GuMetaData.obj
 0002:00002198       ??_C@_08PEMCLHEM@mVBuffer@ 0000000180141198     GuMetaData.obj
 0002:000021a8       ??_C@_09FBMAGD@Alignment@  00000001801411a8     GuMetaData.obj
 0002:000021b8       ??_C@_0BE@KFHIBEEA@InternalObjectsData@ 00000001801411b8     GuMetaData.obj
 0002:000021cc       ??_C@_06GIEBFILM@PxReal@   00000001801411cc     GuMetaData.obj
 0002:000021d8       ??_C@_07NKGFFIBH@mRadius@  00000001801411d8     GuMetaData.obj
 0002:000021e0       ??_C@_08EHFCACAE@mExtents@ 00000001801411e0     GuMetaData.obj
 0002:000021f0       ??_C@_0BA@LFMGGCBK@HullPolygonData@ 00000001801411f0     GuMetaData.obj
 0002:00002200       ??_C@_06BOHHGLB@mPlane@    0000000180141200     GuMetaData.obj
 0002:00002208       ??_C@_06EHMLHGLN@mVRef8@   0000000180141208     GuMetaData.obj
 0002:00002210       ??_C@_09BAHHHINI@mMinIndex@ 0000000180141210     GuMetaData.obj
 0002:00002220       ??_C@_0P@GBLBPIPB@ConvexHullData@ 0000000180141220     GuMetaData.obj
 0002:00002230       ??_C@_09JDCJAPKD@PxBounds3@ 0000000180141230     GuMetaData.obj
 0002:0000223c       ??_C@_05NDNHIFA@mAABB@     000000018014123c     GuMetaData.obj
 0002:00002244       ??_C@_06KDGGGLIJ@PxVec3@   0000000180141244     GuMetaData.obj
 0002:00002250       ??_C@_0O@LNOGEMJI@mCenterOfMass@ 0000000180141250     GuMetaData.obj
 0002:00002260       ??_C@_09CNMCBBKH@mPolygons@ 0000000180141260     GuMetaData.obj
 0002:00002270       ??_C@_0BC@KKPDCFJC@mBigConvexRawData@ 0000000180141270     GuMetaData.obj
 0002:00002288       ??_C@_08ELDMKGKH@mNbEdges@ 0000000180141288     GuMetaData.obj
 0002:00002298       ??_C@_0BA@CGLOHBAC@mNbHullVertices@ 0000000180141298     GuMetaData.obj
 0002:000022a8       ??_C@_0M@HGFFLLDM@mNbPolygons@ 00000001801412a8     GuMetaData.obj
 0002:000022b8       ??_C@_09BHJEMDGO@mInternal@ 00000001801412b8     GuMetaData.obj
 0002:000022c8       ??_C@_0L@GMFHOMKA@ConvexMesh@ 00000001801412c8     GuMetaData.obj
 0002:000022d8       ??_C@_0N@KECKKFLK@RefCountable@ 00000001801412d8     GuMetaData.obj
 0002:000022e8       ??_C@_09ILEBDLJH@mHullData@ 00000001801412e8     GuMetaData.obj
 0002:000022f4       ??_C@_03DKDIKGNC@mNb@      00000001801412f4     GuMetaData.obj
 0002:000022f8       ??_C@_0P@ENLHFHMD@mBigConvexData@ 00000001801412f8     GuMetaData.obj
 0002:00002308       ??_C@_05ILALLCHK@mMass@    0000000180141308     GuMetaData.obj
 0002:00002310       ??_C@_07DBPDADGB@PxMat33@  0000000180141310     GuMetaData.obj
 0002:00002318       ??_C@_08FNBHNDBI@mInertia@ 0000000180141318     GuMetaData.obj
 0002:00002328       ??_C@_0O@FCKNKLMJ@GuMeshFactory@ 0000000180141328     GuMetaData.obj
 0002:00002338       ??_C@_0N@EGBCLMAK@mMeshFactory@ 0000000180141338     GuMetaData.obj
 0002:00002348       ??_C@_0BE@CJJAMAMK@PxHeightFieldSample@ 0000000180141348     GuMetaData.obj
 0002:0000235c       ??_C@_05MBLIPEMA@PxI16@    000000018014135c     GuMetaData.obj
 0002:00002364       ??_C@_06LNLHEAAG@height@   0000000180141364     GuMetaData.obj
 0002:00002370       ??_C@_0N@HHDGHJN@PxBitAndByte@ 0000000180141370     GuMetaData.obj
 0002:00002380       ??_C@_0P@MBBMLBO@materialIndex0@ 0000000180141380     GuMetaData.obj
 0002:00002390       ??_C@_0P@BFAKPKFP@materialIndex1@ 0000000180141390     GuMetaData.obj
 0002:000023a0       ??_C@_0BD@EBLPJEOE@PxHeightFieldFlags@ 00000001801413a0     GuMetaData.obj
 0002:000023b8       ??_C@_0BK@FNNCFFCN@PxHeightFieldFormat?3?3Enum@ 00000001801413b8     GuMetaData.obj
 0002:000023d8       ??_C@_0BA@CLNFMAAA@HeightFieldData@ 00000001801413d8     GuMetaData.obj
 0002:000023e8       ??_C@_04IMCGAIPI@rows@     00000001801413e8     GuMetaData.obj
 0002:000023f0       ??_C@_07HIFEPIJN@columns@  00000001801413f0     GuMetaData.obj
 0002:000023f8       ??_C@_08MOAGOABI@rowLimit@ 00000001801413f8     GuMetaData.obj
 0002:00002408       ??_C@_08BAGEHOBO@colLimit@ 0000000180141408     GuMetaData.obj
 0002:00002418       ??_C@_09LKDBLADF@nbColumns@ 0000000180141418     GuMetaData.obj
 0002:00002428       ??_C@_07ODIFGGLK@samples@  0000000180141428     GuMetaData.obj
 0002:00002430       ??_C@_0BE@POHEGOJG@convexEdgeThreshold@ 0000000180141430     GuMetaData.obj
 0002:00002444       ??_C@_05GECEPKB@flags@     0000000180141444     GuMetaData.obj
 0002:0000244c       ??_C@_06DLEPGFEF@format@   000000018014144c     GuMetaData.obj
 0002:00002458       ??_C@_0BF@MOGDNMPL@PxMaterialTableIndex@ 0000000180141458     GuMetaData.obj
 0002:00002470       ??_C@_0M@JMJICJJO@HeightField@ 0000000180141470     GuMetaData.obj
 0002:00002480       ??_C@_0O@ENGHMLJP@mSampleStride@ 0000000180141480     GuMetaData.obj
 0002:00002490       ??_C@_0L@EBEEMFFB@mMinHeight@ 0000000180141490     GuMetaData.obj
 0002:000024a0       ??_C@_0L@EAEIFPOF@mMaxHeight@ 00000001801414a0     GuMetaData.obj
 0002:000024b0       ??_C@_0N@FEFJOKKE@mModifyCount@ 00000001801414b0     GuMetaData.obj
 0002:000024c0       ??_C@_09PHDKHCK@RTreePage@ 00000001801414c0     GuMetaData.obj
 0002:000024cc       ??_C@_04LLPOBGED@minx@     00000001801414cc     GuMetaData.obj
 0002:000024d4       ??_C@_04KCOFCHAC@miny@     00000001801414d4     GuMetaData.obj
 0002:000024dc       ??_C@_04IJMIHEMB@minz@     00000001801414dc     GuMetaData.obj
 0002:000024e4       ??_C@_04GGOBOBGO@maxx@     00000001801414e4     GuMetaData.obj
 0002:000024ec       ??_C@_04HPPKNACP@maxy@     00000001801414ec     GuMetaData.obj
 0002:000024f4       ??_C@_04FENHIDOM@maxz@     00000001801414f4     GuMetaData.obj
 0002:000024fc       ??_C@_04HHDFEJON@ptrs@     00000001801414fc     GuMetaData.obj
 0002:00002504       ??_C@_05FFEIGAJF@RTree@    0000000180141504     GuMetaData.obj
 0002:0000250c       ??_C@_06OMCHPNEO@PxVec4@   000000018014150c     GuMetaData.obj
 0002:00002518       ??_C@_0L@NBIFEFLN@mBoundsMin@ 0000000180141518     GuMetaData.obj
 0002:00002528       ??_C@_0L@MDAOKBNC@mBoundsMax@ 0000000180141528     GuMetaData.obj
 0002:00002538       ??_C@_0N@NJEHLCOF@mInvDiagonal@ 0000000180141538     GuMetaData.obj
 0002:00002548       ??_C@_0BA@BEFIGPFG@mDiagonalScaler@ 0000000180141548     GuMetaData.obj
 0002:00002558       ??_C@_09DICGGKGO@mPageSize@ 0000000180141558     GuMetaData.obj
 0002:00002568       ??_C@_0O@BOFFCNOL@mNumRootPages@ 0000000180141568     GuMetaData.obj
 0002:00002578       ??_C@_0L@JKLGBKAE@mNumLevels@ 0000000180141578     GuMetaData.obj
 0002:00002588       ??_C@_0M@PHDOHJGK@mTotalNodes@ 0000000180141588     GuMetaData.obj
 0002:00002598       ??_C@_0M@GDGHALAO@mTotalPages@ 0000000180141598     GuMetaData.obj
 0002:000025a4       ??_C@_06MHCBBJGP@mFlags@   00000001801415a4     GuMetaData.obj
 0002:000025ac       ??_C@_06MMNBLHOK@mPages@   00000001801415ac     GuMetaData.obj
 0002:000025b8       ??_C@_0L@LEOGNOEC@SourceMesh@ 00000001801415b8     GuMetaData.obj
 0002:000025c4       ??_C@_06JFCLJMNN@mVerts@   00000001801415c4     GuMetaData.obj
 0002:000025d0       ??_C@_07MPIKOOAP@mNbTris@  00000001801415d0     GuMetaData.obj
 0002:000025d8       ??_C@_0N@FBMOMEHF@mTriangles32@ 00000001801415d8     GuMetaData.obj
 0002:000025e8       ??_C@_0N@DGCGNFBP@mTriangles16@ 00000001801415e8     GuMetaData.obj
 0002:000025f8       ??_C@_06DHAAKLFK@mRemap@   00000001801415f8     GuMetaData.obj
 0002:00002600       ??_C@_0O@NLNHFNO@QuantizedAABB@ 0000000180141600     GuMetaData.obj
 0002:00002610       ??_C@_0BC@OOGBEMHH@mData?$FL0?$FN?4mExtents@ 0000000180141610     GuMetaData.obj
 0002:00002628       ??_C@_0BB@OCEDKIEF@mData?$FL0?$FN?4mCenter@ 0000000180141628     GuMetaData.obj
 0002:00002640       ??_C@_0BC@HFMEAABI@mData?$FL1?$FN?4mExtents@ 0000000180141640     GuMetaData.obj
 0002:00002658       ??_C@_0BB@CDMNHHIF@mData?$FL1?$FN?4mCenter@ 0000000180141658     GuMetaData.obj
 0002:00002670       ??_C@_0BC@CFKNCOI@mData?$FL2?$FN?4mExtents@ 0000000180141670     GuMetaData.obj
 0002:00002688       ??_C@_0BB@LKCPBBIE@mData?$FL2?$FN?4mCenter@ 0000000180141688     GuMetaData.obj
 0002:000026a0       ??_C@_0O@MJJKKPFN@BVDataPackedQ@ 00000001801416a0     GuMetaData.obj
 0002:000026b0       ??_C@_0M@PNCEBOG@LocalBounds@ 00000001801416b0     GuMetaData.obj
 0002:000026c0       ??_C@_07GNKDIIKJ@mCenter@  00000001801416c0     GuMetaData.obj
 0002:000026c8       ??_C@_05KNFBNCOH@float@    00000001801416c8     GuMetaData.obj
 0002:000026d0       ??_C@_0BC@LADJKHPL@mExtentsMagnitude@ 00000001801416d0     GuMetaData.obj
 0002:000026e8       ??_C@_07HELIOLAF@BV4Tree@  00000001801416e8     GuMetaData.obj
 0002:000026f0       ??_C@_0P@EMMDNPMH@mMeshInterface@ 00000001801416f0     GuMetaData.obj
 0002:00002700       ??_C@_0N@DCKMHLCL@mLocalBounds@ 0000000180141700     GuMetaData.obj
 0002:00002710       ??_C@_08EEJOMIJL@mNbNodes@ 0000000180141710     GuMetaData.obj
 0002:00002720       ??_C@_09FGKNPI@mInitData@  0000000180141720     GuMetaData.obj
 0002:00002730       ??_C@_0BC@CLDEHKCO@mCenterOrMinCoeff@ 0000000180141730     GuMetaData.obj
 0002:00002748       ??_C@_0BD@LAOLBNJ@mExtentsOrMaxCoeff@ 0000000180141748     GuMetaData.obj
 0002:00002760       ??_C@_0P@JEECKKBL@mUserAllocated@ 0000000180141760     GuMetaData.obj
 0002:00002770       ??_C@_0L@GLIMNECG@mQuantized@ 0000000180141770     GuMetaData.obj
 0002:00002780       ??_C@_08BNDBAGDH@mPadding@ 0000000180141780     GuMetaData.obj
 0002:00002790       ??_C@_0N@OJNNNLIB@TriangleMesh@ 0000000180141790     GuMetaData.obj
 0002:000027a0       ??_C@_0M@OGEDMEAL@mNbVertices@ 00000001801417a0     GuMetaData.obj
 0002:000027b0       ??_C@_0N@MGGDNHNI@mNbTriangles@ 00000001801417b0     GuMetaData.obj
 0002:000027c0       ??_C@_09LNNEGOJA@mVertices@ 00000001801417c0     GuMetaData.obj
 0002:000027d0       ??_C@_0L@KBOFAKLO@mTriangles@ 00000001801417d0     GuMetaData.obj
 0002:000027e0       ??_C@_0P@MHDFIHLD@mExtraTrigData@ 00000001801417e0     GuMetaData.obj
 0002:000027f0       ??_C@_0N@MGIKKCI@mGeomEpsilon@ 00000001801417f0     GuMetaData.obj
 0002:00002800       ??_C@_0BB@IFLOOCNA@mMaterialIndices@ 0000000180141800     GuMetaData.obj
 0002:00002818       ??_C@_0L@OPJMBFMI@mFaceRemap@ 0000000180141818     GuMetaData.obj
 0002:00002828       ??_C@_0N@BIOECAPM@mAdjacencies@ 0000000180141828     GuMetaData.obj
 0002:00002838       ??_C@_0BA@OCOIGPII@mGRB_triIndices@ 0000000180141838     GuMetaData.obj
 0002:00002848       ??_C@_0BE@JPINNDAH@mGRB_triAdjacencies@ 0000000180141848     GuMetaData.obj
 0002:00002860       ??_C@_0P@EDFJJHEF@mGRB_faceRemap@ 0000000180141860     GuMetaData.obj
 0002:00002870       ??_C@_0O@CKMBAIFN@mGRB_BV32Tree@ 0000000180141870     GuMetaData.obj
 0002:00002880       ??_C@_0BC@IFGECKF@RTreeTriangleMesh@ 0000000180141880     GuMetaData.obj
 0002:00002894       ??_C@_06JDIHDDGN@mRTree@   0000000180141894     GuMetaData.obj
 0002:000028a0       ??_C@_0BA@LNNFPOKA@BV4TriangleMesh@ 00000001801418a0     GuMetaData.obj
 0002:000028b0       ??_C@_08FKLPEGDB@mBV4Tree@ 00000001801418b0     GuMetaData.obj
 0002:000028c0       ??_C@_0BG@EAPGHGEI@MaterialIndicesStruct@ 00000001801418c0     GuMetaData.obj
 0002:000028d8       ??_C@_07OKCKIPNN@indices@  00000001801418d8     GuMetaData.obj
 0002:000028e0       ??_C@_0L@KCBHBGBP@numIndices@ 00000001801418e0     GuMetaData.obj
 0002:000028ec       ??_C@_03PNAAIPML@pad@      00000001801418ec     GuMetaData.obj
 0002:000028f0       ??_C@_05MOMFAHOB@pad64@    00000001801418f0     GuMetaData.obj
 0002:000028f8       ??_C@_0BK@GNJGHDGO@PxConvexMeshGeometryFlags@ 00000001801418f8     GuMetaData.obj
 0002:00002918       ??_C@_0BJ@LIOOOKID@ShadowConvexMeshGeometry@ 0000000180141918     GuMetaData.obj
 0002:00002938       ??_C@_0BF@PJFPGDNP@PxGeometryType?3?3Enum@ 0000000180141938     GuMetaData.obj
 0002:00002950       ??_C@_05GNIIDDHH@mType@    0000000180141950     GuMetaData.obj
 0002:00002958       ??_C@_0M@JFNDEGCE@PxMeshScale@ 0000000180141958     GuMetaData.obj
 0002:00002964       ??_C@_05MHMEBBGO@scale@    0000000180141964     GuMetaData.obj
 0002:00002970       ??_C@_0L@OKMLGDHH@convexMesh@ 0000000180141970     GuMetaData.obj
 0002:00002980       ??_C@_09PLMNFMJI@meshFlags@ 0000000180141980     GuMetaData.obj
 0002:00002990       ??_C@_0BB@EINMAHMD@paddingFromFlags@ 0000000180141990     GuMetaData.obj
 0002:000029a8       ??_C@_08CICKEKCM@hullData@ 00000001801419a8     GuMetaData.obj
 0002:000029b8       ??_C@_0O@EOELHBFF@gpuCompatible@ 00000001801419b8     GuMetaData.obj
 0002:000029c8       ??_C@_0BE@FFPGAPHN@PxMeshGeometryFlags@ 00000001801419c8     GuMetaData.obj
 0002:000029e0       ??_C@_0BL@KABFLNEB@ShadowTriangleMeshGeometry@ 00000001801419e0     GuMetaData.obj
 0002:00002a00       ??_C@_0N@FKKDJAHE@triangleMesh@ 0000000180141a00     GuMetaData.obj
 0002:00002a10       ??_C@_08BEABJAHJ@meshData@ 0000000180141a10     GuMetaData.obj
 0002:00002a20       ??_C@_0BA@NGIONHFJ@materialIndices@ 0000000180141a20     GuMetaData.obj
 0002:00002a30       ??_C@_09JGGNEAGH@materials@ 0000000180141a30     GuMetaData.obj
 0002:00002a40       ??_C@_0BK@OIFEOHNJ@ShadowHeightFieldGeometry@ 0000000180141a40     GuMetaData.obj
 0002:00002a60       ??_C@_0M@IEKJPCGG@heightField@ 0000000180141a60     GuMetaData.obj
 0002:00002a70       ??_C@_0M@LHLNPPJ@heightScale@ 0000000180141a70     GuMetaData.obj
 0002:00002a80       ??_C@_08GJPCBGLE@rowScale@ 0000000180141a80     GuMetaData.obj
 0002:00002a90       ??_C@_0M@HHBHEPCE@columnScale@ 0000000180141a90     GuMetaData.obj
 0002:00002aa0       ??_C@_0BB@PMIIHDKK@heightFieldFlags@ 0000000180141aa0     GuMetaData.obj
 0002:00002ab8       ??_C@_0BA@DMOKLLHN@heightFieldData@ 0000000180141ab8     GuMetaData.obj
 0002:00002ac8       ??_C@_0BE@IKADPPC@ShadowPlaneGeometry@ 0000000180141ac8     GuMetaData.obj
 0002:00002ae0       ??_C@_0BF@PIKLLBGN@ShadowSphereGeometry@ 0000000180141ae0     GuMetaData.obj
 0002:00002af8       ??_C@_06KGHINEPG@radius@   0000000180141af8     GuMetaData.obj
 0002:00002b00       ??_C@_0BG@OBHJHKMO@ShadowCapsuleGeometry@ 0000000180141b00     GuMetaData.obj
 0002:00002b18       ??_C@_0L@PMAANELH@halfHeight@ 0000000180141b18     GuMetaData.obj
 0002:00002b28       ??_C@_0BC@DMJNHLLO@ShadowBoxGeometry@ 0000000180141b28     GuMetaData.obj
 0002:00002b40       ??_C@_0M@CMAEPJOI@halfExtents@ 0000000180141b40     GuMetaData.obj
 0002:00002b50       ??_C@_0BH@PKALDLFA@PxConvexMeshGeometryLL@ 0000000180141b50     GuMetaData.obj
 0002:00002b68       ??_C@_0BJ@GAFBNAAE@PxTriangleMeshGeometryLL@ 0000000180141b68     GuMetaData.obj
 0002:00002b88       ??_C@_0BI@IIFLCNOC@PxHeightFieldGeometryLL@ 0000000180141b88     GuMetaData.obj
 0002:00002ba0       ??_C@_0BA@NAHKMBFO@PxPlaneGeometry@ 0000000180141ba0     GuMetaData.obj
 0002:00002bb0       ??_C@_0BB@CHBDIEFA@PxSphereGeometry@ 0000000180141bb0     GuMetaData.obj
 0002:00002bc8       ??_C@_0BC@LJMOIOOK@PxCapsuleGeometry@ 0000000180141bc8     GuMetaData.obj
 0002:00002be0       ??_C@_0O@OEDJDNFP@PxBoxGeometry@ 0000000180141be0     GuMetaData.obj
 0002:00002bf0       ??_C@_0BC@ICOOCLFG@Gu?3?3GeometryUnion@ 0000000180141bf0     GuMetaData.obj
 0002:00002c08       ??_7?$SupportLocalImpl@VConvexHullV@Gu@physx@@@Gu@physx@@6B@ 0000000180141c08     GuMTD.obj
 0002:00002c28       ??_7?$SupportLocalImpl@VConvexHullNoScaleV@Gu@physx@@@Gu@physx@@6B@ 0000000180141c28     GuMTD.obj
 0002:00002c48       ??_7?$SupportLocalImpl@VBoxV@Gu@physx@@@Gu@physx@@6B@ 0000000180141c48     GuMTD.obj
 0002:00002c68       ??_7SupportLocal@Gu@physx@@6B@ 0000000180141c68     GuMTD.obj
 0002:00002cb0       ?absMask@?1??FAbs@aos@shdfnd@physx@@YA?AT__m128@@T5@@Z@4QBIB 0000000180141cb0     GuMTD.obj
 0002:00002cc0       ??_7GjkConvexBase@Gu@physx@@6B@ 0000000180141cc0     GuMTD.obj
 0002:00002cf0       ??_7?$LocalConvex@VCapsuleV@Gu@physx@@@Gu@physx@@6B@ 0000000180141cf0     GuMTD.obj
 0002:00002d20       ??_7?$LocalConvex@VConvexHullV@Gu@physx@@@Gu@physx@@6B@ 0000000180141d20     GuMTD.obj
 0002:00002d50       __real@2edbe6ff            0000000180141d50     GuMTD.obj
 0002:00002d54       __real@3ccccccd            0000000180141d54     GuMTD.obj
 0002:00002d58       __real@3dcccccd            0000000180141d58     GuMTD.obj
 0002:00002d5c       __real@ff7fffff            0000000180141d5c     GuMTD.obj
 0002:00002d60       __xmm@0000000000000000000000003f800000 0000000180141d60     GuMTD.obj
 0002:00002d70       __xmm@00000000000000003f80000000000000 0000000180141d70     GuMTD.obj
 0002:00002d80       __xmm@000000003f8000000000000000000000 0000000180141d80     GuMTD.obj
 0002:00002d90       __xmm@000000003f8000003f8000003f800000 0000000180141d90     GuMTD.obj
 0002:00002da0       __xmm@00000000ffffffffffffffffffffffff 0000000180141da0     GuMTD.obj
 0002:00002db0       __xmm@34000000340000003400000034000000 0000000180141db0     GuMTD.obj
 0002:00002dc0       __xmm@358637bd358637bd358637bd358637bd 0000000180141dc0     GuMTD.obj
 0002:00002dd0       __xmm@3dcccccd3dcccccd3dcccccd3dcccccd 0000000180141dd0     GuMTD.obj
 0002:00002de0       __xmm@3e4ccccd3e4ccccd3e4ccccd3e4ccccd 0000000180141de0     GuMTD.obj
 0002:00002df0       __xmm@3f7ff1413f7ff1413f7ff1413f7ff141 0000000180141df0     GuMTD.obj
 0002:00002e00       __xmm@3f7ff2e53f7ff2e53f7ff2e53f7ff2e5 0000000180141e00     GuMTD.obj
 0002:00002e10       __xmm@3f8000003f8000003f8000003f800000 0000000180141e10     GuMTD.obj
 0002:00002e20       __xmm@7f7fffff7f7fffff7f7fffff7f7fffff 0000000180141e20     GuMTD.obj
 0002:00002e30       __xmm@bf000000bf000000bf000000bf000000 0000000180141e30     GuMTD.obj
 0002:00002e40       ??_7?$RelativeConvex@VBoxV@Gu@physx@@@Gu@physx@@6B@ 0000000180141e40     GuOverlapTests.obj
 0002:00002e70       ??_7?$RelativeConvex@VConvexHullV@Gu@physx@@@Gu@physx@@6B@ 0000000180141e70     GuOverlapTests.obj
 0002:00002ea0       ??_C@_0EC@MLIJOGHA@Height?5Field?5Overlap?5test?5calle@ 0000000180141ea0     GuOverlapTests.obj
 0002:00002ef0       ??_C@_0FB@NADHJKDE@C?3?2Users?2Jungle?2source?2repos?2Ph@ 0000000180141ef0     GuOverlapTests.obj
 0002:00002f70       ??_C@_0EC@GJLDADPE@Height?5Field?5Raycast?5test?5calle@ 0000000180141f70     GuRaycastTests.obj
 0002:00002fc0       ??_C@_0FB@CDPKONJO@C?3?2Users?2Jungle?2source?2repos?2Ph@ 0000000180141fc0     GuRaycastTests.obj
 0002:00003050       __real@1e3ce508            0000000180142050     GuRaycastTests.obj
 0002:00003054       __real@28800000            0000000180142054     GuRaycastTests.obj
 0002:00003058       __real@33d6bf95            0000000180142058     GuRaycastTests.obj
 0002:0000305c       __real@3727c5ac            000000018014205c     GuRaycastTests.obj
 0002:00003060       __real@3f0147ae            0000000180142060     GuRaycastTests.obj
 0002:00003064       __real@3f7ffffe            0000000180142064     GuRaycastTests.obj
 0002:00003068       __real@3f800347            0000000180142068     GuRaycastTests.obj
 0002:0000306c       __real@41200000            000000018014206c     GuRaycastTests.obj
 0002:00003070       __real@80000000            0000000180142070     GuRaycastTests.obj
 0002:00003074       __real@b3d6bf95            0000000180142074     GuRaycastTests.obj
 0002:00003078       __real@b8d1b717            0000000180142078     GuRaycastTests.obj
 0002:0000307c       __real@c1200000            000000018014207c     GuRaycastTests.obj
 0002:000030b0       ??_7?$MeshHitCallback@UPxRaycastHit@physx@@@Gu@physx@@6B@ 00000001801420b0     GuSweepMTD.obj
 0002:000030c0       ??_7MeshMTDGenerationCallback@@6B@ 00000001801420c0     GuSweepMTD.obj
 0002:000030d0       ??_7MidPhaseQueryLocalReport@@6B@ 00000001801420d0     GuSweepMTD.obj
 0002:000030e0       __real@3f933333            00000001801420e0     GuSweepMTD.obj
 0002:000030f0       __xmm@00000000000000003f8000003f800000 00000001801420f0     GuSweepMTD.obj
 0002:00003100       __xmm@3e19999a3e19999a3e19999a3e19999a 0000000180142100     GuSweepMTD.obj
 0002:00003110       __xmm@3e8000003e8000003e8000003e800000 0000000180142110     GuSweepMTD.obj
 0002:00003140       __real@3c23d70a            0000000180142140     GuSweepSharedTests.obj
 0002:00003144       __real@42c80000            0000000180142144     GuSweepSharedTests.obj
 0002:00003150       __xmm@000000ff000000ff000000ff000000ff 0000000180142150     GuSweepSharedTests.obj
 0002:00003160       __xmm@ffffffffffffffffffffffffffffffff 0000000180142160     GuSweepSharedTests.obj
 0002:00003170       ??_C@_0EA@GNDJNJGB@Height?5Field?5Sweep?5test?5called?5@ 0000000180142170     GuSweepTests.obj
 0002:000031b0       ??_C@_0EP@ILGHEEDA@C?3?2Users?2Jungle?2source?2repos?2Ph@ 00000001801421b0     GuSweepTests.obj
 0002:00003220       ??_7?$LocalConvex@VBoxV@Gu@physx@@@Gu@physx@@6B@ 0000000180142220     GuSweepTests.obj
 0002:00003250       ??_7?$LocalConvex@VTriangleV@Gu@physx@@@Gu@physx@@6B@ 0000000180142250     GuSweepTests.obj
 0002:00003280       __xmm@00000002000000020000000200000002 0000000180142280     GuSweepTests.obj
 0002:00003290       __xmm@3eaaaa9f3eaaaa9f3eaaaa9f3eaaaa9f 0000000180142290     GuSweepTests.obj
 0002:000032c0       ??_C@_0FC@CANFCHJO@C?3?2Users?2Jungle?2source?2repos?2Ph@ 00000001801422c0     GuAABBTreeBuild.obj
 0002:00003340       ??_7PxBVHStructure@physx@@6B@ 0000000180142340     GuBVHStructure.obj
 0002:00003390       ??_C@_0P@CDPKBIIF@PxBVHStructure@ 0000000180142390     GuBVHStructure.obj
 0002:000033a0       ??_7RefCountable@Cm@physx@@6B@ 00000001801423a0     GuBVHStructure.obj
 0002:000033b0       ??_7BVHStructure@Gu@physx@@6BPxBVHStructure@2@@ 00000001801423b0     GuBVHStructure.obj
 0002:00003400       ??_7BVHStructure@Gu@physx@@6BRefCountable@Cm@2@@ 0000000180142400     GuBVHStructure.obj
 0002:00003410       ??_C@_0FB@FEGHGDNG@C?3?2Users?2Jungle?2source?2repos?2Ph@ 0000000180142410     GuBVHStructure.obj
 0002:00003468       ??_C@_0DF@GMOKOMPK@Gu?3?3BVHStructure?3?3release?3?5doub@ 0000000180142468     GuBVHStructure.obj
 0002:00003500       __real@00000000            0000000180142500     GuCCDSweepConvexMesh.obj
 0002:00003504       __real@3c343958            0000000180142504     GuCCDSweepConvexMesh.obj
 0002:00003508       __real@3ca3d70a            0000000180142508     GuCCDSweepConvexMesh.obj
 0002:0000350c       __real@3f0ccccd            000000018014250c     GuCCDSweepConvexMesh.obj
 0002:00003510       __real@3f8ccccd            0000000180142510     GuCCDSweepConvexMesh.obj
 0002:00003514       __real@b58637bd            0000000180142514     GuCCDSweepConvexMesh.obj
 0002:00003520       __xmm@000000000000000000000000fe7fffff 0000000180142520     GuCCDSweepConvexMesh.obj
 0002:00003530       __xmm@fe7ffffffe7fffff7e7fffff7e7fffff 0000000180142530     GuCCDSweepConvexMesh.obj
 0002:00003540       ??_7?$RelativeConvex@VTriangleV@Gu@physx@@@Gu@physx@@6B@ 0000000180142540     GuCCDSweepPrimitives.obj
 0002:00003590       ??_7?$RelativeConvex@VCapsuleV@Gu@physx@@@Gu@physx@@6B@ 0000000180142590     GuCCDSweepPrimitives.obj
 0002:000035c0       __real@3ba3d70a            00000001801425c0     GuCCDSweepPrimitives.obj
 0002:000035c4       __real@501502f9            00000001801425c4     GuCCDSweepPrimitives.obj
 0002:000036d0       __real@3f7fbe77            00000001801426d0     GuContactBoxBox.obj
 0002:00003720       __real@3a83126f            0000000180142720     GuContactCapsuleCapsule.obj
 0002:00003724       __real@3f7ff2e5            0000000180142724     GuContactCapsuleCapsule.obj
 0002:000037b0       __real@358637be            00000001801427b0     GuContactCapsuleMesh.obj
 0002:000037b4       __real@3eaaaaab            00000001801427b4     GuContactCapsuleMesh.obj
 0002:000037b8       __real@3f8020c5            00000001801427b8     GuContactCapsuleMesh.obj
 0002:000037bc       __real@ba83126f            00000001801427bc     GuContactCapsuleMesh.obj
 0002:00003810       ??_7ConvexMeshContactGenerationCallback@@6B@ 0000000180142810     GuContactConvexMesh.obj
 0002:00003890       __real@3ec90fdb            0000000180142890     GuContactPolygonPolygon.obj
 0002:00003894       __real@3f490fdb            0000000180142894     GuContactPolygonPolygon.obj
 0002:00003898       __real@3f96cbe4            0000000180142898     GuContactPolygonPolygon.obj
 0002:0000389c       __real@3fc90fdb            000000018014289c     GuContactPolygonPolygon.obj
 0002:000038a0       __real@3ffb53d2            00000001801428a0     GuContactPolygonPolygon.obj
 0002:000038a4       __real@4016cbe4            00000001801428a4     GuContactPolygonPolygon.obj
 0002:000038a8       __real@402feddf            00000001801428a8     GuContactPolygonPolygon.obj
 0002:00003950       ??_C@_0EM@FDEOKHDK@C?3?2Users?2Jungle?2source?2repos?2Ph@ 0000000180142950     GuContactSphereMesh.obj
 0002:000039e0       ??_C@_0FJ@CIPKCFN@C?3?2Users?2Jungle?2source?2repos?2Ph@ 00000001801429e0     GuBigConvexData.obj
 0002:00003a60       ??_7PxConvexMesh@physx@@6B@ 0000000180142a60     GuConvexMesh.obj
 0002:00003ad8       ??_7ConvexMesh@Gu@physx@@6BPxConvexMesh@2@@ 0000000180142ad8     GuConvexMesh.obj
 0002:00003b60       ??_7ConvexMesh@Gu@physx@@6BRefCountable@Cm@2@@ 0000000180142b60     GuConvexMesh.obj
 0002:00003b70       ??_C@_0FG@FIMCMNBJ@C?3?2Users?2Jungle?2source?2repos?2Ph@ 0000000180142b70     GuConvexMesh.obj
 0002:00003bc8       ??_C@_0DM@NEJKOFIP@Loading?5convex?5mesh?5failed?3?5Dep@ 0000000180142bc8     GuConvexMesh.obj
 0002:00003c08       ??_C@_0DD@GDAMDLJL@Gu?3?3ConvexMesh?3?3release?3?5double@ 0000000180142c08     GuConvexMesh.obj
 0002:00003c60       __xmm@000000000000000000000000ffffffff 0000000180142c60     GuConvexSupportTable.obj
 0002:00003c70       __xmm@0000000000000000ffffffff00000000 0000000180142c70     GuConvexSupportTable.obj
 0002:00003c80       __xmm@0000000000000000ffffffffffffffff 0000000180142c80     GuConvexSupportTable.obj
 0002:00003c90       __xmm@00000000ffffffff0000000000000000 0000000180142c90     GuConvexSupportTable.obj
 0002:00003ca0       __xmm@00000000ffffffff00000000ffffffff 0000000180142ca0     GuConvexSupportTable.obj
 0002:00003cb0       __xmm@00000000ffffffffffffffff00000000 0000000180142cb0     GuConvexSupportTable.obj
 0002:00003d40       __real@bf000000            0000000180142d40     GuDistanceSegmentSegment.obj
 0002:00003d70       __real@2b8cbccc            0000000180142d70     GuDistanceSegmentTriangle.obj
 0002:00003d80       __xmm@3f8000013f8000013f8000013f800001 0000000180142d80     GuDistanceSegmentTriangle.obj
 0002:00003d90       __xmm@b4000000b4000000b4000000b4000000 0000000180142d90     GuDistanceSegmentTriangle.obj
 0002:00003df0       __xmm@38d1b71738d1b71738d1b71738d1b717 0000000180142df0     GuGJKSimplex.obj
 0002:00003e00       __xmm@b58637bdb58637bdb58637bdb58637bd 0000000180142e00     GuGJKSimplex.obj
 0002:00003e30       ??_7PxHeightField@physx@@6B@ 0000000180142e30     GuHeightField.obj
 0002:00003ed0       ??_7HeightField@Gu@physx@@6BPxHeightField@2@@ 0000000180142ed0     GuHeightField.obj
 0002:00003f80       ??_7HeightField@Gu@physx@@6BRefCountable@Cm@2@@ 0000000180142f80     GuHeightField.obj
 0002:00003f90       ??_C@_0DL@DNGFPCEG@Gu?3?3HeightField?3?3onRefCountZero@ 0000000180142f90     GuHeightField.obj
 0002:00003fd0       ??_C@_0FD@OKEOENGN@C?3?2Users?2Jungle?2source?2repos?2Ph@ 0000000180142fd0     GuHeightField.obj
 0002:00004028       ??_C@_0CI@DMKEKGNK@Gu?3?3HeightField?3?3load?3?5PX_ALLOC@ 0000000180143028     GuHeightField.obj
 0002:00004050       ??_C@_0EG@IAMHDKKM@C?3?2Users?2Jungle?2source?2repos?2Ph@ 0000000180143050     GuHeightField.obj
 0002:000040c0       __real@3a03126f            00000001801430c0     GuHeightFieldUtil.obj
 0002:000040c4       __real@3f19999a            00000001801430c4     GuHeightFieldUtil.obj
 0002:00004130       ??_7HeightFieldTraceSegmentReport@@6B@ 0000000180143130     GuSweepsHF.obj
 0002:00004140       ??_7CapsuleTraceSegmentReport@@6B@ 0000000180143140     GuSweepsHF.obj
 0002:00004150       ??_7ConvexTraceSegmentReport@@6B@ 0000000180143150     GuSweepsHF.obj
 0002:00004160       ??_7BoxTraceSegmentReport@@6B@ 0000000180143160     GuSweepsHF.obj
 0002:00004170       __real@aedbe6ff            0000000180143170     GuSweepsHF.obj
 0002:000041a0       __real@3089705f            00000001801431a0     GuIntersectionRayBox.obj
 0002:000041a4       __real@34000000            00000001801431a4     GuIntersectionRayBox.obj
 0002:000041a8       __real@b4000000            00000001801431a8     GuIntersectionRayBox.obj
 0002:000041b0       __xmm@000000003089705f3089705f3089705f 00000001801431b0     GuIntersectionRayBox.obj
 0002:000041c0       __xmm@00000000bf800000bf800000bf800000 00000001801431c0     GuIntersectionRayBox.obj
 0002:00004210       ??_C@_0EN@HIGCCNGI@C?3?2Users?2Jungle?2source?2repos?2Ph@ 0000000180143210     GuBV4.obj
 0002:00004280       ??_C@_0FC@DPONDBAC@C?3?2Users?2Jungle?2source?2repos?2Ph@ 0000000180143280     GuBV4Build.obj
 0002:000042d4       __real@38000100            00000001801432d4     GuBV4Build.obj
 0002:000042d8       __real@3e93cd3a            00000001801432d8     GuBV4Build.obj
 0002:000042dc       __real@46fffe00            00000001801432dc     GuBV4Build.obj
 0002:000042e0       __real@be93cd3a            00000001801432e0     GuBV4Build.obj
 0002:00004310       __xmm@0000ffff0000ffff0000ffff0000ffff 0000000180143310     GuBV4_AABBSweep.obj
 0002:00004320       __xmm@3089705f3089705f3089705f3089705f 0000000180143320     GuBV4_AABBSweep.obj
 0002:00004330       __xmm@33d6bf9533d6bf9533d6bf9533d6bf95 0000000180143330     GuBV4_AABBSweep.obj
 0002:00004340       __xmm@40000000400000004000000040000000 0000000180143340     GuBV4_AABBSweep.obj
 0002:00004410       __real@40800000            0000000180143410     GuBV4_SphereOverlap.obj
 0002:00004460       __xmm@00000000000000007f7fffff00000000 0000000180143460     GuMidphaseBV4.obj
 0002:000044d0       ??_C@_0FD@EHCCILIF@Adjacency?5information?5not?5creat@ 00000001801434d0     GuMeshQuery.obj
 0002:00004530       ??_C@_0FD@OJKGLFAG@C?3?2Users?2Jungle?2source?2repos?2Ph@ 0000000180143530     GuMeshQuery.obj
 0002:00004584       __real@4cbebc20            0000000180143584     GuMeshQuery.obj
 0002:000045b0       ??_7Callback@RTree@Gu@physx@@6B@ 00000001801435b0     GuMidphaseRTree.obj
 0002:000045c8       ??_7CallbackRaycast@RTree@Gu@physx@@6B@ 00000001801435c8     GuMidphaseRTree.obj
 0002:000045c8       ??_7CallbackRefit@RTree@Gu@physx@@6B@ 00000001801435c8     GuTriangleMeshRTree.obj
 0002:000045d8       ??_7?$RayRTreeCallback@$00$0A@@@6BCallbackRaycast@RTree@Gu@physx@@@ 00000001801435d8     GuMidphaseRTree.obj
 0002:000045d8       ??_7?$RayRTreeCallback@$0A@$0A@@@6BCallbackRaycast@RTree@Gu@physx@@@ 00000001801435d8     GuMidphaseRTree.obj
 0002:000045e8       ??_7?$RayRTreeCallback@$00$0A@@@6BCallback@RTree@Gu@physx@@@ 00000001801435e8     GuMidphaseRTree.obj
 0002:000045e8       ??_7?$RayRTreeCallback@$0A@$0A@@@6BCallback@RTree@Gu@physx@@@ 00000001801435e8     GuMidphaseRTree.obj
 0002:00004600       ??_7RayMeshColliderCallback@@6B@ 0000000180143600     GuMidphaseRTree.obj
 0002:00004610       ??_7?$RayRTreeCallback@$0A@$00@@6BCallbackRaycast@RTree@Gu@physx@@@ 0000000180143610     GuMidphaseRTree.obj
 0002:00004620       ??_7?$RayRTreeCallback@$0A@$00@@6BCallback@RTree@Gu@physx@@@ 0000000180143620     GuMidphaseRTree.obj
 0002:00004638       ??_7?$RayRTreeCallback@$00$00@@6BCallbackRaycast@RTree@Gu@physx@@@ 0000000180143638     GuMidphaseRTree.obj
 0002:00004648       ??_7?$RayRTreeCallback@$00$00@@6BCallback@RTree@Gu@physx@@@ 0000000180143648     GuMidphaseRTree.obj
 0002:00004720       ??_7ConvexVsMeshOverlapCallback@@6B@ 0000000180143720     GuOverlapTestsMesh.obj
 0002:00004730       ?MN@RTreePage@Gu@physx@@2MB 0000000180143730     GuRTree.obj
 0002:00004734       ?MX@RTreePage@Gu@physx@@2MB 0000000180143734     GuRTree.obj
 0002:00004760       ??_C@_0EP@CAEFPNFP@C?3?2Users?2Jungle?2source?2repos?2Ph@ 0000000180143760     GuRTree.obj
 0002:00004820       ??_7SweepShapeMeshHitCallback@Gu@physx@@6B@ 0000000180143820     GuSweepsMesh.obj
 0002:00004830       ??_7SweepCapsuleMeshHitCallback@Gu@physx@@6B@ 0000000180143830     GuSweepsMesh.obj
 0002:00004840       ??_7SweepBoxMeshHitCallback@Gu@physx@@6B@ 0000000180143840     GuSweepsMesh.obj
 0002:00004850       ??_7SweepConvexMeshHitCallback@Gu@physx@@6B@ 0000000180143850     GuSweepsMesh.obj
 0002:00004880       ??_7PxTriangleMesh@physx@@6B@ 0000000180143880     GuTriangleMesh.obj
 0002:00004908       ??_7TriangleMesh@Gu@physx@@6BPxTriangleMesh@2@@ 0000000180143908     GuTriangleMesh.obj
 0002:000049a8       ??_7TriangleMesh@Gu@physx@@6BRefCountable@Cm@2@@ 00000001801439a8     GuTriangleMesh.obj
 0002:000049b8       ??_C@_0DF@DNLKAHAL@Gu?3?3TriangleMesh?3?3release?3?5doub@ 00000001801439b8     GuTriangleMesh.obj
 0002:000049f0       ??_C@_0FG@GGJCGCPI@C?3?2Users?2Jungle?2source?2repos?2Ph@ 00000001801439f0     GuTriangleMesh.obj
 0002:00004a50       ??_C@_0GH@IGKFPLIJ@PxTriangleMesh?3?3getVerticesForM@ 0000000180143a50     GuTriangleMesh.obj
 0002:00004ac0       ??_C@_0FF@LHAOBIMM@PxTriangleMesh?3?3refitBVH?$CI?$CJ?5is?5o@ 0000000180143ac0     GuTriangleMesh.obj
 0002:00004b40       ??_C@_0BE@CNJKIINO@PxBVH34TriangleMesh@ 0000000180143b40     GuTriangleMeshBV4.obj
 0002:00004b58       ??_7BV4TriangleMesh@Gu@physx@@6BPxTriangleMesh@2@@ 0000000180143b58     GuTriangleMeshBV4.obj
 0002:00004bf8       ??_7BV4TriangleMesh@Gu@physx@@6BRefCountable@Cm@2@@ 0000000180143bf8     GuTriangleMeshBV4.obj
 0002:00004c30       ??_C@_0BE@EIFHCCBO@PxBVH33TriangleMesh@ 0000000180143c30     GuTriangleMeshRTree.obj
 0002:00004c48       ??_7RTreeTriangleMesh@Gu@physx@@6BPxTriangleMesh@2@@ 0000000180143c48     GuTriangleMeshRTree.obj
 0002:00004ce8       ??_7RTreeTriangleMesh@Gu@physx@@6BRefCountable@Cm@2@@ 0000000180143ce8     GuTriangleMeshRTree.obj
 0002:00004cf8       ??_7?$RefitCallback@G@physx@@6B@ 0000000180143cf8     GuTriangleMeshRTree.obj
 0002:00004d08       ??_7?$RefitCallback@I@physx@@6B@ 0000000180143d08     GuTriangleMeshRTree.obj
 0002:00004d20       __xmm@38383838383838383838383838383838 0000000180143d20     GuTriangleMeshRTree.obj
 0002:00004d30       ??_C@_0EO@DPFCGKFG@C?3?2Users?2Jungle?2source?2repos?2Ph@ 0000000180143d30     GuBV32.obj
 0002:00004da0       ??_C@_0FD@LMGMGLDD@C?3?2Users?2Jungle?2source?2repos?2Ph@ 0000000180143da0     GuBV32Build.obj
 0002:00004e20       __xmm@00000000358637bd358637bd358637bd 0000000180143e20     GuPCMContactBoxBox.obj
 0002:00004e30       __xmm@3d4ccccd3d4ccccd3d4ccccd3d4ccccd 0000000180143e30     GuPCMContactBoxBox.obj
 0002:00004e40       __xmm@3f4ccccd3f4ccccd3f4ccccd3f4ccccd 0000000180143e40     GuPCMContactBoxBox.obj
 0002:00004e50       __xmm@ffffffff00000000ffffffffffffffff 0000000180143e50     GuPCMContactBoxBox.obj
 0002:00004e80       ??_7?$LocalConvex@VConvexHullNoScaleV@Gu@physx@@@Gu@physx@@6B@ 0000000180143e80     GuPCMContactBoxConvex.obj
 0002:00004eb0       __xmm@3f3504f33f3504f33f3504f33f3504f3 0000000180143eb0     GuPCMContactBoxConvex.obj
 0002:00004f00       __xmm@ffffffffffffffffffffffff00000000 0000000180143f00     GuPCMContactCapsuleCapsule.obj
 0002:00004f30       __xmm@3fa000003fa000003fa000003fa00000 0000000180143f30     GuPCMContactCapsuleConvex.obj
 0002:00004f60       ??_7PCMCapsuleVsHeightfieldContactGenerationCallback@physx@@6B@ 0000000180143f60     GuPCMContactCapsuleHeightField.obj
 0002:00004f70       __real@3f7f3b64            0000000180143f70     GuPCMContactCapsuleHeightField.obj
 0002:00004f80       __xmm@3ca3d70a3ca3d70a3ca3d70a3ca3d70a 0000000180143f80     GuPCMContactCapsuleHeightField.obj
 0002:00004f90       __xmm@3f7ef9db3f7ef9db3f7ef9db3f7ef9db 0000000180143f90     GuPCMContactCapsuleHeightField.obj
 0002:00004fd0       ??_7PCMCapsuleVsMeshContactGenerationCallback@physx@@6B@ 0000000180143fd0     GuPCMContactCapsuleMesh.obj
 0002:00005000       ??_7?$SupportLocalImpl@VTriangleV@Gu@physx@@@Gu@physx@@6B@ 0000000180144000     GuPCMContactConvexCommon.obj
 0002:00005020       ??_C@_0FF@JEHLBMLI@C?3?2Users?2Jungle?2source?2repos?2Ph@ 0000000180144020     GuPCMContactConvexCommon.obj
 0002:00005080       __xmm@3cf5c2803cf5c2803cf5c2803cf5c280 0000000180144080     GuPCMContactConvexCommon.obj
 0002:00005090       __xmm@3f7851ec3f7851ec3f7851ec3f7851ec 0000000180144090     GuPCMContactConvexCommon.obj
 0002:000050a0       __xmm@3f7ff9723f7ff9723f7ff9723f7ff972 00000001801440a0     GuPCMContactConvexCommon.obj
 0002:000050b0       __xmm@3f7fffef3f7fffef3f7fffef3f7fffef 00000001801440b0     GuPCMContactConvexCommon.obj
 0002:000050e0       ??_7?$RelativeConvex@VConvexHullNoScaleV@Gu@physx@@@Gu@physx@@6B@ 00000001801440e0     GuPCMContactConvexConvex.obj
 0002:00005130       ??_7PCMConvexVsHeightfieldContactGenerationCallback@physx@@6B@ 0000000180144130     GuPCMContactConvexHeightField.obj
 0002:00005140       __xmm@3f19999a3f19999a3f19999a3f19999a 0000000180144140     GuPCMContactConvexHeightField.obj
 0002:00005180       ??_7PCMConvexVsMeshContactGenerationCallback@physx@@6B@ 0000000180144180     GuPCMContactConvexMesh.obj
 0002:000051b0       __xmm@3f34fdf43f34fdf43f34fdf43f34fdf4 00000001801441b0     GuPCMContactGenBoxConvex.obj
 0002:000051e0       __xmm@3f80a3d73f80a3d73f80a3d73f80a3d7 00000001801441e0     GuPCMContactGenSphereCapsule.obj
 0002:000051f0       __xmm@bba3d70abba3d70abba3d70abba3d70a 00000001801441f0     GuPCMContactGenSphereCapsule.obj
 0002:000052e0       ??_7PCMSphereVsHeightfieldContactGenerationCallback@physx@@6B@ 00000001801442e0     GuPCMContactSphereHeightField.obj
 0002:00005320       ??_7PCMSphereVsMeshContactGenerationCallback@physx@@6B@ 0000000180144320     GuPCMContactSphereMesh.obj
 0002:00005370       __xmm@3727c5ac3727c5ac3727c5ac3727c5ac 0000000180144370     GuPCMContactSphereSphere.obj
 0002:000053a0       ?gPCMBoxPolygonData@Gu@physx@@3QBEB 00000001801443a0     GuPCMShapeConvex.obj
 0002:000053e0       ?invalidateThresholds@Gu@physx@@3QBMB 00000001801443e0     GuPersistentContactManifold.obj
 0002:000053f8       ?invalidateQuatThresholds@Gu@physx@@3QBMB 00000001801443f8     GuPersistentContactManifold.obj
 0002:00005410       ?invalidateThresholds2@Gu@physx@@3QBMB 0000000180144410     GuPersistentContactManifold.obj
 0002:00005420       ?invalidateQuatThresholds2@Gu@physx@@3QBMB 0000000180144420     GuPersistentContactManifold.obj
 0002:00005450       __xmm@ff7fffffff7fffffff7fffffff7fffff 0000000180144450     GuPersistentContactManifold.obj
 0002:00005460       __xmm@ffffffffffffffff00000000ffffffff 0000000180144460     GuPersistentContactManifold.obj
 0002:000054b0       __real@b727c5ac            00000001801444b0     GuSweepBoxSphere.obj
 0002:00005520       ??_C@_0FK@EPIKKIGN@C?3?2Users?2Jungle?2source?2repos?2Ph@ 0000000180144520     GuSweepCapsuleBox.obj
 0002:000055a0       __real@3f7fff58            00000001801445a0     GuSweepCapsuleTriangle.obj
 0002:000055f0       __sz_PhysXFoundation_64_dll 00000001801445f0     PhysXFoundation_64:PhysXFoundation_64.dll
 0002:00005608       ??_C@_1BK@DBDEIDLH@?$AAK?$AAE?$AAR?$AAN?$AAE?$AAL?$AA3?$AA2?$AA?4?$AAD?$AAL?$AAL@ 0000000180144608     Delayimp:delayhlp.obj
 0002:00005628       ??_C@_0BI@OMNLIJDB@AcquireSRWLockExclusive@ 0000000180144628     Delayimp:delayhlp.obj
 0002:00005640       ??_C@_0BI@HMIEPCNJ@ReleaseSRWLockExclusive@ 0000000180144640     Delayimp:delayhlp.obj
 0002:00005658       __pfnDliFailureHook2       0000000180144658     Delayimp:delayhk1.obj
 0002:00005660       __bChangeProtectionOfWholeDloadSection 0000000180144660     Delayimp:delaygv1.obj
 0002:00005670       ??_7type_info@@6B@         0000000180144670     LIBCMT:std_type_info_static.obj
 0002:000056e0       _pDefaultRawDllMain        00000001801446e0     LIBCMT:dll_dllmain.obj
 0002:000056e0       _pRawDllMain               00000001801446e0     LIBCMT:dll_dllmain.obj
 0002:000056f0       _load_config_used          00000001801446f0     LIBCMT:loadcfg.obj
 0002:00005830       _pDestructExceptionObject  0000000180144830     libvcruntime:ehhelpers.obj
 0002:00005f50       ??_C@_08EHJDFFNH@__based?$CI@ 0000000180144f50     libvcruntime:undname.obj
 0002:00005f60       ??_C@_07KOLFKCDI@__cdecl@  0000000180144f60     libvcruntime:undname.obj
 0002:00005f68       ??_C@_09IFJBGAPI@__stdcall@ 0000000180144f68     libvcruntime:undname.obj
 0002:00005f78       ??_C@_0L@NPHFGOKO@__thiscall@ 0000000180144f78     libvcruntime:undname.obj
 0002:00005f88       ??_C@_0L@JMKHOMEK@__fastcall@ 0000000180144f88     libvcruntime:undname.obj
 0002:00005f98       ??_C@_0N@BCKKPABJ@__vectorcall@ 0000000180144f98     libvcruntime:undname.obj
 0002:00005fa8       ??_C@_0BA@NAGGFLJK@__preserve_none@ 0000000180144fa8     libvcruntime:undname.obj
 0002:00005fb8       ??_C@_09HIJEGCPM@__clrcall@ 0000000180144fb8     libvcruntime:undname.obj
 0002:00005fc4       ??_C@_06GHPCKEAG@__eabi@   0000000180144fc4     libvcruntime:undname.obj
 0002:00005fd0       ??_C@_09IOPIDJLG@__swift_1@ 0000000180144fd0     libvcruntime:undname.obj
 0002:00005fe0       ??_C@_09KFNFGKHF@__swift_2@ 0000000180144fe0     libvcruntime:undname.obj
 0002:00005ff0       ??_C@_09LMMOFLDE@__swift_3@ 0000000180144ff0     libvcruntime:undname.obj
 0002:00006000       ??_C@_07JOMMBBKO@__ptr64@  0000000180145000     libvcruntime:undname.obj
 0002:00006008       ??_C@_0L@PILCLIHE@__restrict@ 0000000180145008     libvcruntime:undname.obj
 0002:00006018       ??_C@_0M@GFIIJFMG@__unaligned@ 0000000180145018     libvcruntime:undname.obj
 0002:00006028       ??_C@_09DHDLOLLB@restrict?$CI@ 0000000180145028     libvcruntime:undname.obj
 0002:00006032       ??_C@_00CNPNBAHC@@         0000000180145032     libvcruntime:undname.obj
 0002:00006034       ??_C@_04NIHEBCM@?5new@     0000000180145034     libvcruntime:undname.obj
 0002:00006040       ??_C@_07FPCDHGMM@?5delete@ 0000000180145040     libvcruntime:undname.obj
 0002:00006048       ??_C@_01NEMOKFLO@?$DN@     0000000180145048     libvcruntime:undname.obj
 0002:0000604c       ??_C@_02GPIOPFAK@?$DO?$DO@ 000000018014504c     libvcruntime:undname.obj
 0002:00006050       ??_C@_02FODMEDOG@?$DM?$DM@ 0000000180145050     libvcruntime:undname.obj
 0002:00006054       ??_C@_01DCLJPIOD@?$CB@     0000000180145054     libvcruntime:undname.obj
 0002:00006058       ??_C@_02EGOFBIJA@?$DN?$DN@ 0000000180145058     libvcruntime:undname.obj
 0002:0000605c       ??_C@_02FDNJECIE@?$CB?$DN@ 000000018014505c     libvcruntime:undname.obj
 0002:00006060       ??_C@_02GPECMEKF@?$FL?$FN@ 0000000180145060     libvcruntime:undname.obj
 0002:00006068       ??_C@_08LHJFAFGD@operator@ 0000000180145068     libvcruntime:undname.obj
 0002:00006074       ??_C@_02HBOOOICD@?9?$DO@   0000000180145074     libvcruntime:undname.obj
 0002:00006078       ??_C@_01NBENCBCI@?$CK@     0000000180145078     libvcruntime:undname.obj
 0002:0000607c       ??_C@_02ECNGHCIF@?$CL?$CL@ 000000018014507c     libvcruntime:undname.obj
 0002:00006080       ??_C@_02BAABKJLB@?9?9@     0000000180145080     libvcruntime:undname.obj
 0002:00006084       ??_C@_01JOAMLHOP@?9@       0000000180145084     libvcruntime:undname.obj
 0002:00006088       ??_C@_01MIFGBAGJ@?$CL@     0000000180145088     libvcruntime:undname.obj
 0002:0000608c       ??_C@_01HNPIGOCE@?$CG@     000000018014508c     libvcruntime:undname.obj
 0002:00006090       ??_C@_03MNHNFDLC@?9?$DO?$CK@ 0000000180145090     libvcruntime:undname.obj
 0002:00006094       ??_C@_01KMDKNFGN@?1@       0000000180145094     libvcruntime:undname.obj
 0002:00006098       ??_C@_01FGNFDNOH@?$CF@     0000000180145098     libvcruntime:undname.obj
 0002:0000609c       ??_C@_01MNNFJEPP@?$DM@     000000018014509c     libvcruntime:undname.obj
 0002:000060a0       ??_C@_02EHCHHCKH@?$DM?$DN@ 00000001801450a0     libvcruntime:undname.obj
 0002:000060a4       ??_C@_01PPODPGHN@?$DO@     00000001801450a4     libvcruntime:undname.obj
 0002:000060a8       ??_C@_02EEKDKGMJ@?$DO?$DN@ 00000001801450a8     libvcruntime:undname.obj
 0002:000060ac       ??_C@_01IHBHIGKO@?0@       00000001801450ac     libvcruntime:undname.obj
 0002:000060b0       ??_C@_02HCKGKOFO@?$CI?$CJ@ 00000001801450b0     libvcruntime:undname.obj
 0002:000060b4       ??_C@_01PJKLJHI@?$HO@      00000001801450b4     libvcruntime:undname.obj
 0002:000060b8       ??_C@_01JKBOJNNK@?$FO@     00000001801450b8     libvcruntime:undname.obj
 0002:000060bc       ??_C@_01DNKMNLPK@?$HM@     00000001801450bc     libvcruntime:undname.obj
 0002:000060c0       ??_C@_02PPKAJPJL@?$CG?$CG@ 00000001801450c0     libvcruntime:undname.obj
 0002:000060c4       ??_C@_02NONPIBCD@?$HM?$HM@ 00000001801450c4     libvcruntime:undname.obj
 0002:000060c8       ??_C@_02FPIMKNGF@?$CK?$DN@ 00000001801450c8     libvcruntime:undname.obj
 0002:000060cc       ??_C@_02FOEOMHFC@?$CL?$DN@ 00000001801450cc     libvcruntime:undname.obj
 0002:000060d0       ??_C@_02FKMDLLOA@?9?$DN@   00000001801450d0     libvcruntime:undname.obj
 0002:000060d4       ??_C@_02FJEHGPIO@?1?$DN@   00000001801450d4     libvcruntime:undname.obj
 0002:000060d8       ??_C@_02FENAOKFI@?$CF?$DN@ 00000001801450d8     libvcruntime:undname.obj
 0002:000060dc       ??_C@_03IKFCCPFF@?$DO?$DO?$DN@ 00000001801450dc     libvcruntime:undname.obj
 0002:000060e0       ??_C@_03CDNPDDLA@?$DM?$DM?$DN@ 00000001801450e0     libvcruntime:undname.obj
 0002:000060e4       ??_C@_02FGJGFEAB@?$CG?$DN@ 00000001801450e4     libvcruntime:undname.obj
 0002:000060e8       ??_C@_02DHLNPPGH@?$HM?$DN@ 00000001801450e8     libvcruntime:undname.obj
 0002:000060ec       ??_C@_02MHEGNOJ@?$FO?$DN@  00000001801450ec     libvcruntime:undname.obj
 0002:000060f0       ??_C@_09IFPLHPGF@?$GAvftable?8@ 00000001801450f0     libvcruntime:undname.obj
 0002:00006100       ??_C@_09BLBHBJP@?$GAvbtable?8@ 0000000180145100     libvcruntime:undname.obj
 0002:00006110       ??_C@_07FEEIOKP@?$GAvcall?8@ 0000000180145110     libvcruntime:undname.obj
 0002:00006118       ??_C@_08LLFFHHDJ@?$GAtypeof?8@ 0000000180145118     libvcruntime:undname.obj
 0002:00006128       ??_C@_0BF@KDPPACIK@?$GAlocal?5static?5guard?8@ 0000000180145128     libvcruntime:undname.obj
 0002:00006140       ??_C@_08OBABFOLI@?$GAstring?8@ 0000000180145140     libvcruntime:undname.obj
 0002:00006150       ??_C@_0BD@JDLKDPAB@?$GAvbase?5destructor?8@ 0000000180145150     libvcruntime:undname.obj
 0002:00006168       ??_C@_0BN@DEGPLNFK@?$GAvector?5deleting?5destructor?8@ 0000000180145168     libvcruntime:undname.obj
 0002:00006188       ??_C@_0BO@OBMKPJIG@?$GAdefault?5constructor?5closure?8@ 0000000180145188     libvcruntime:undname.obj
 0002:000061a8       ??_C@_0BN@IMDCHIKM@?$GAscalar?5deleting?5destructor?8@ 00000001801451a8     libvcruntime:undname.obj
 0002:000061c8       ??_C@_0BO@PFGOCPJJ@?$GAvector?5constructor?5iterator?8@ 00000001801451c8     libvcruntime:undname.obj
 0002:000061e8       ??_C@_0BN@LFPFMEDL@?$GAvector?5destructor?5iterator?8@ 00000001801451e8     libvcruntime:undname.obj
 0002:00006208       ??_C@_0CE@IKBNEHA@?$GAvector?5vbase?5constructor?5itera@ 0000000180145208     libvcruntime:undname.obj
 0002:00006230       ??_C@_0BL@NILFHHPC@?$GAvirtual?5displacement?5map?8@ 0000000180145230     libvcruntime:undname.obj
 0002:00006250       ??_C@_0CB@JONCMFFK@?$GAeh?5vector?5constructor?5iterator@ 0000000180145250     libvcruntime:undname.obj
 0002:00006278       ??_C@_0CA@GCEOPDGL@?$GAeh?5vector?5destructor?5iterator?8@ 0000000180145278     libvcruntime:undname.obj
 0002:00006298       ??_C@_0CH@OOJPLCPH@?$GAeh?5vector?5vbase?5constructor?5it@ 0000000180145298     libvcruntime:undname.obj
 0002:000062c0       ??_C@_0BL@LLKPOHJI@?$GAcopy?5constructor?5closure?8@ 00000001801452c0     libvcruntime:undname.obj
 0002:000062e0       ??_C@_0BA@KBCDOMBN@?$GAudt?5returning?8@ 00000001801452e0     libvcruntime:undname.obj
 0002:000062f0       ??_C@_03KLGMFNMG@?$GAEH@   00000001801452f0     libvcruntime:undname.obj
 0002:000062f4       ??_C@_05KHLCHHI@?$GARTTI@  00000001801452f4     libvcruntime:undname.obj
 0002:00006300       ??_C@_0BA@KKLDJDLB@?$GAlocal?5vftable?8@ 0000000180145300     libvcruntime:undname.obj
 0002:00006310       ??_C@_0CE@IIHCMGGL@?$GAlocal?5vftable?5constructor?5clos@ 0000000180145310     libvcruntime:undname.obj
 0002:00006334       ??_C@_06FHBGPFGH@?5new?$FL?$FN@ 0000000180145334     libvcruntime:undname.obj
 0002:00006340       ??_C@_09LBNFPBCA@?5delete?$FL?$FN@ 0000000180145340     libvcruntime:undname.obj
 0002:00006350       ??_C@_0P@HJKNJFNN@?$GAomni?5callsig?8@ 0000000180145350     libvcruntime:undname.obj
 0002:00006360       ??_C@_0BL@CNOONJFP@?$GAplacement?5delete?5closure?8@ 0000000180145360     libvcruntime:undname.obj
 0002:00006380       ??_C@_0BN@CKNJLHMB@?$GAplacement?5delete?$FL?$FN?5closure?8@ 0000000180145380     libvcruntime:undname.obj
 0002:000063a0       ??_C@_0CG@CFDHKGGD@?$GAmanaged?5vector?5constructor?5ite@ 00000001801453a0     libvcruntime:undname.obj
 0002:000063c8       ??_C@_0CF@IMGKMJNO@?$GAmanaged?5vector?5destructor?5iter@ 00000001801453c8     libvcruntime:undname.obj
 0002:000063f0       ??_C@_0CG@HLDDJMAG@?$GAeh?5vector?5copy?5constructor?5ite@ 00000001801453f0     libvcruntime:undname.obj
 0002:00006418       ??_C@_0CM@FCBBDIGB@?$GAeh?5vector?5vbase?5copy?5construct@ 0000000180145418     libvcruntime:undname.obj
 0002:00006448       ??_C@_0BL@CLIPGLGB@?$GAdynamic?5initializer?5for?5?8@ 0000000180145448     libvcruntime:undname.obj
 0002:00006468       ??_C@_0CB@PDBIFEP@?$GAdynamic?5atexit?5destructor?5for?5@ 0000000180145468     libvcruntime:undname.obj
 0002:00006490       ??_C@_0CD@CGAJBKEJ@?$GAvector?5copy?5constructor?5iterat@ 0000000180145490     libvcruntime:undname.obj
 0002:000064b8       ??_C@_0CJ@GJELGAMM@?$GAvector?5vbase?5copy?5constructor?5@ 00000001801454b8     libvcruntime:undname.obj
 0002:000064e8       ??_C@_0CL@FGIJHLCE@?$GAmanaged?5vector?5copy?5constructo@ 00000001801454e8     libvcruntime:undname.obj
 0002:00006518       ??_C@_0BM@PMGGMLDN@?$GAlocal?5static?5thread?5guard?8@ 0000000180145518     libvcruntime:undname.obj
 0002:00006538       ??_C@_0N@BDNMDMOL@operator?5?$CC?$CC?5@ 0000000180145538     libvcruntime:undname.obj
 0002:00006548       ??_C@_0BC@GGEBGALA@operator?5co_await@ 0000000180145548     libvcruntime:undname.obj
 0002:00006560       ??_C@_0M@GAAIMMOH@operator?$DM?$DN?$DO@ 0000000180145560     libvcruntime:undname.obj
 0002:00006570       ??_C@_0BC@DAFEJGAK@?5Type?5Descriptor?8@ 0000000180145570     libvcruntime:undname.obj
 0002:00006588       ??_C@_0BM@LDKODKLH@?5Base?5Class?5Descriptor?5at?5?$CI@ 0000000180145588     libvcruntime:undname.obj
 0002:000065a8       ??_C@_0BD@LGICGFMM@?5Base?5Class?5Array?8@ 00000001801455a8     libvcruntime:undname.obj
 0002:000065c0       ??_C@_0BN@MECKDCOJ@?5Class?5Hierarchy?5Descriptor?8@ 00000001801455c0     libvcruntime:undname.obj
 0002:000065e0       ??_C@_0BK@CFCOFLF@?5Complete?5Object?5Locator?8@ 00000001801455e0     libvcruntime:undname.obj
 0002:00006600       ??_C@_0BG@JNJLAMPM@?$GAanonymous?5namespace?8@ 0000000180145600     libvcruntime:undname.obj
 0002:00006618       ??_C@_04HEJADOOB@CV?3?5@   0000000180145618     libvcruntime:undname.obj
 0002:00006620       ??_C@_02MOLJINC@?3?3@      0000000180145620     libvcruntime:undname.obj
 0002:00006628       ??_C@_0BE@JAEOCHPE@template?9parameter?9@ 0000000180145628     libvcruntime:undname.obj
 0002:00006640       ??_C@_0BF@LNLGBBNL@?$GAtemplate?9parameter?9@ 0000000180145640     libvcruntime:undname.obj
 0002:00006658       ??_C@_0O@KHGCOMHP@generic?9type?9@ 0000000180145658     libvcruntime:undname.obj
 0002:00006668       ??_C@_0P@ODDENDLM@?$GAgeneric?9type?9@ 0000000180145668     libvcruntime:undname.obj
 0002:00006678       ??_C@_02OHHJMEON@?8?8@     0000000180145678     libvcruntime:undname.obj
 0002:00006680       ??_C@_0BN@IBLMMFAP@?$GAnon?9type?9template?9parameter@ 0000000180145680     libvcruntime:undname.obj
 0002:000066a0       ??_C@_03DLDNIBIK@?$CFlf@   00000001801456a0     libvcruntime:undname.obj
 0002:000066a4       ??_C@_04OFALKAJ@?$DP?$DP_C@ 00000001801456a4     libvcruntime:undname.obj
 0002:000066ac       ??_C@_03KHICJKCI@?4?4?4@   00000001801456ac     libvcruntime:undname.obj
 0002:000066b0       ??_C@_04HIBGFPH@NULL@      00000001801456b0     libvcruntime:undname.obj
 0002:000066b8       ??_C@_02DPKJAMEF@?$CFd@    00000001801456b8     libvcruntime:undname.obj
 0002:000066c0       ??_C@_0BK@IHCCFNEL@?$GAtemplate?9type?9parameter?9@ 00000001801456c0     libvcruntime:undname.obj
 0002:000066e0       ??_C@_0BK@OFCNNNKO@?$GAgeneric?9class?9parameter?9@ 00000001801456e0     libvcruntime:undname.obj
 0002:00006700       ??_C@_0BL@NGJBLFIL@?$GAgeneric?9method?9parameter?9@ 0000000180145700     libvcruntime:undname.obj
 0002:00006720       ??_C@_07OHNGEDJK@nullptr@  0000000180145720     libvcruntime:undname.obj
 0002:00006728       ??_C@_06COJIGPIB@lambda@   0000000180145728     libvcruntime:undname.obj
 0002:00006730       ??_C@_0BE@EODMJLIF@?$GAtemplate?9parameter@ 0000000180145730     libvcruntime:undname.obj
 0002:00006744       ??_C@_03OPGICMGF@?$HN?8?5@ 0000000180145744     libvcruntime:undname.obj
 0002:00006748       ??_C@_02IGFCGPIL@?$HN?8@   0000000180145748     libvcruntime:undname.obj
 0002:00006750       ??_C@_0N@CBHHHENL@?$GAvtordispex?$HL@ 0000000180145750     libvcruntime:undname.obj
 0002:00006760       ??_C@_0L@GHPFDFH@?$GAvtordisp?$HL@ 0000000180145760     libvcruntime:undname.obj
 0002:00006770       ??_C@_0L@HNGCOGAE@?$GAadjustor?$HL@ 0000000180145770     libvcruntime:undname.obj
 0002:00006780       ??_C@_0CB@KJDOOODE@?$GAlocal?5static?5destructor?5helper@ 0000000180145780     libvcruntime:undname.obj
 0002:000067a8       ??_C@_0DB@ILEFOCIJ@?$GAtemplate?5static?5data?5member?5co@ 00000001801457a8     libvcruntime:undname.obj
 0002:000067e0       ??_C@_0DA@HGFJFBBE@?$GAtemplate?5static?5data?5member?5de@ 00000001801457e0     libvcruntime:undname.obj
 0002:00006810       ??_C@_07PGOEDBHP@static?5@ 0000000180145810     libvcruntime:undname.obj
 0002:00006818       ??_C@_08NIEOINHE@virtual?5@ 0000000180145818     libvcruntime:undname.obj
 0002:00006828       ??_C@_09LAPHOOG@private?3?5@ 0000000180145828     libvcruntime:undname.obj
 0002:00006838       ??_C@_0M@GAIFPFIP@protected?3?5@ 0000000180145838     libvcruntime:undname.obj
 0002:00006848       ??_C@_08GPDDCMKI@public?3?5@ 0000000180145848     libvcruntime:undname.obj
 0002:00006858       ??_C@_08KJLFOPNE@?$FLthunk?$FN?3@ 0000000180145858     libvcruntime:undname.obj
 0002:00006868       ??_C@_0M@DHNBOJMP@extern?5?$CCC?$CC?5@ 0000000180145868     libvcruntime:undname.obj
 0002:00006874       ??_C@_02KCKGHPCA@?$CJ?5@   0000000180145874     libvcruntime:undname.obj
 0002:00006878       ??_C@_05CIHEBHNO@char?5@   0000000180145878     libvcruntime:undname.obj
 0002:00006880       ??_C@_06EHJMALKF@short?5@  0000000180145880     libvcruntime:undname.obj
 0002:00006888       ??_C@_04LAHKHJMA@int?5@    0000000180145888     libvcruntime:undname.obj
 0002:00006890       ??_C@_05CJIMAING@long?5@   0000000180145890     libvcruntime:undname.obj
 0002:00006898       ??_C@_09EBBEKKIH@unsigned?5@ 0000000180145898     libvcruntime:undname.obj
 0002:000068a4       ??_C@_05BEFAKPML@void?5@   00000001801458a4     libvcruntime:undname.obj
 0002:000068b0       ??_C@_09GAIEOBLP@volatile?5@ 00000001801458b0     libvcruntime:undname.obj
 0002:000068c0       ??_C@_08PABEKFH@volatile@  00000001801458c0     libvcruntime:undname.obj
 0002:000068d0       ??_C@_0BA@LKIJLKPP@std?3?3nullptr_t?5@ 00000001801458d0     libvcruntime:undname.obj
 0002:000068e0       ??_C@_0P@GCOCNKDM@std?3?3nullptr_t@ 00000001801458e0     libvcruntime:undname.obj
 0002:000068f0       ??_C@_0L@EGPHHEKN@?$DMellipsis?$DO@ 00000001801458f0     libvcruntime:undname.obj
 0002:000068fc       ??_C@_04EENFHACM@?0?4?4?4@ 00000001801458fc     libvcruntime:undname.obj
 0002:00006908       ??_C@_0M@ELJOJFFH@?0?$DMellipsis?$DO@ 0000000180145908     libvcruntime:undname.obj
 0002:00006918       ??_C@_09DNHFEOJI@?5noexcept@ 0000000180145918     libvcruntime:undname.obj
 0002:00006924       ??_C@_03PBJBJNON@cpu@      0000000180145924     libvcruntime:undname.obj
 0002:00006928       ??_C@_03DCBBJBAA@amp@      0000000180145928     libvcruntime:undname.obj
 0002:0000692c       ??_C@_02KEGNLNML@?0?5@     000000018014592c     libvcruntime:undname.obj
 0002:00006930       ??_C@_04ENMBGAPA@char@     0000000180145930     libvcruntime:undname.obj
 0002:00006938       ??_C@_05BFKKPKCG@short@    0000000180145938     libvcruntime:undname.obj
 0002:00006940       ??_C@_03JBIPMCLC@int@      0000000180145940     libvcruntime:undname.obj
 0002:00006944       ??_C@_04GOKPGOLB@long@     0000000180145944     libvcruntime:undname.obj
 0002:0000694c       ??_C@_06BNJCAIGJ@double@   000000018014594c     libvcruntime:undname.obj
 0002:00006954       ??_C@_06EBGKOKIG@__int8@   0000000180145954     libvcruntime:undname.obj
 0002:00006960       ??_C@_07ICFHOGAF@__int16@  0000000180145960     libvcruntime:undname.obj
 0002:00006968       ??_C@_07OFLPPHGP@__int32@  0000000180145968     libvcruntime:undname.obj
 0002:00006970       ??_C@_07LFCOJCAC@__int64@  0000000180145970     libvcruntime:undname.obj
 0002:00006978       ??_C@_08GAHOLHEO@__int128@ 0000000180145978     libvcruntime:undname.obj
 0002:00006988       ??_C@_09EEKGDCPH@?$DMunknown?$DO@ 0000000180145988     libvcruntime:undname.obj
 0002:00006998       ??_C@_07CFHGOPCN@char8_t@  0000000180145998     libvcruntime:undname.obj
 0002:000069a0       ??_C@_08HBIPOFJB@char16_t@ 00000001801459a0     libvcruntime:undname.obj
 0002:000069b0       ??_C@_08IECNCBKG@char32_t@ 00000001801459b0     libvcruntime:undname.obj
 0002:000069c0       ??_C@_07CLGGIAMF@wchar_t@  00000001801459c0     libvcruntime:undname.obj
 0002:000069c8       ??_C@_04HAPDLBFF@auto@     00000001801459c8     libvcruntime:undname.obj
 0002:000069d0       ??_C@_0P@LHCGKIGK@decltype?$CIauto?$CJ@ 00000001801459d0     libvcruntime:undname.obj
 0002:000069e0       ??_C@_05PCNBGHCF@this?5@   00000001801459e0     libvcruntime:undname.obj
 0002:000069e8       ??_C@_06GCICPBLB@__w64?5@  00000001801459e8     libvcruntime:undname.obj
 0002:000069f0       ??_C@_07NFANNNEC@UNKNOWN@  00000001801459f0     libvcruntime:undname.obj
 0002:000069f8       ??_C@_07EDHNAJHC@signed?5@ 00000001801459f8     libvcruntime:undname.obj
 0002:00006a00       ??_C@_05BNCCCJPP@const@    0000000180145a00     libvcruntime:undname.obj
 0002:00006a08       ??_C@_09EFNPDFFP@?5volatile@ 0000000180145a08     libvcruntime:undname.obj
 0002:00006a18       ??_C@_0P@GCIFDJCJ@?$GAunknown?5ecsu?8@ 0000000180145a18     libvcruntime:undname.obj
 0002:00006a28       ??_C@_06MOJHIBMG@union?5@  0000000180145a28     libvcruntime:undname.obj
 0002:00006a30       ??_C@_07DIBCDNGL@struct?5@ 0000000180145a30     libvcruntime:undname.obj
 0002:00006a38       ??_C@_06LJBABKPM@class?5@  0000000180145a38     libvcruntime:undname.obj
 0002:00006a40       ??_C@_08KOFANOFK@coclass?5@ 0000000180145a40     libvcruntime:undname.obj
 0002:00006a50       ??_C@_0N@DLIEFKNA@cointerface?5@ 0000000180145a50     libvcruntime:undname.obj
 0002:00006a60       ??_C@_05LJGMCFOG@enum?5@   0000000180145a60     libvcruntime:undname.obj
 0002:00006a68       ??_C@_06LIJLOJAG@const?5@  0000000180145a68     libvcruntime:undname.obj
 0002:00006a70       ??_C@_02KJPKDIBN@?$CG?5@   0000000180145a70     libvcruntime:undname.obj
 0002:00006a74       ??_C@_03PCKGMOPB@?$CG?$CG?5@ 0000000180145a74     libvcruntime:undname.obj
 0002:00006a78       ??_C@_0M@EALIELKG@cli?3?3array?$DM@ 0000000180145a78     libvcruntime:undname.obj
 0002:00006a88       ??_C@_0O@GKABPPIF@cli?3?3pin_ptr?$DM@ 0000000180145a88     libvcruntime:undname.obj
 0002:00006a98       ??_C@_02GOGNNPBN@?$CJ?$FL@ 0000000180145a98     libvcruntime:undname.obj
 0002:00006a9c       ??_C@_06EEGAIFAK@?$HLflat?$HN@ 0000000180145a9c     libvcruntime:undname.obj
 0002:00006aa4       ??_C@_05JIBOFOHK@?$HLfor?5@ 0000000180145aa4     libvcruntime:undname.obj
 0002:00006aac       ??_C@_02MDINNEEG@s?5@      0000000180145aac     libvcruntime:undname.obj
 0002:00006ab8       ??_7DNameNode@@6B@         0000000180145ab8     libvcruntime:undname.obj
 0002:00006ae0       ??_7charNode@@6B@          0000000180145ae0     libvcruntime:undname.obj
 0002:00006b08       ??_7pcharNode@@6B@         0000000180145b08     libvcruntime:undname.obj
 0002:00006b30       ??_7pDNameNode@@6B@        0000000180145b30     libvcruntime:undname.obj
 0002:00006b58       ??_7DNameStatusNode@@6B@   0000000180145b58     libvcruntime:undname.obj
 0002:00006b80       ??_7pairNode@@6B@          0000000180145b80     libvcruntime:undname.obj
 0002:00006ca0       ??_C@_04OKOHEJBO@?5?$DP?$DP?5@ 0000000180145ca0     libvcruntime:undname.obj
 0002:00006cb0       ?nodes@?1??make@DNameStatusNode@@SAPEBV2@W4DNameStatus@@@Z@4QBV2@B 0000000180145cb0     libvcruntime:undname.obj
 0002:00006cf0       ?s_negLengthTab@FH4@@3QBCB 0000000180145cf0     libvcruntime:risctrnsctrl.obj
 0002:00006d00       ?s_shiftTab@FH4@@3QBEB     0000000180145d00     libvcruntime:risctrnsctrl.obj
 0002:00006e60       ??_C@_1DM@KHCHBNEB@?$AAa?$AAp?$AAi?$AA?9?$AAm?$AAs?$AA?9?$AAw?$AAi?$AAn?$AA?9?$AAc?$AAo?$AAr?$AAe@ 0000000180145e60     libvcruntime:winapi_downlevel.obj
 0002:00006ea0       ??_C@_1DK@LPPGFMPP@?$AAa?$AAp?$AAi?$AA?9?$AAm?$AAs?$AA?9?$AAw?$AAi?$AAn?$AA?9?$AAc?$AAo?$AAr?$AAe@ 0000000180145ea0     libvcruntime:winapi_downlevel.obj
 0002:00006ee0       ??_C@_1BC@GDMECMAK@?$AAk?$AAe?$AAr?$AAn?$AAe?$AAl?$AA3?$AA2@ 0000000180145ee0     libvcruntime:winapi_downlevel.obj
 0002:00006ef8       ??_C@_1BA@PFFKHIOG@?$AAa?$AAp?$AAi?$AA?9?$AAm?$AAs?$AA?9@ 0000000180145ef8     libvcruntime:winapi_downlevel.obj
 0002:00006f10       ??_C@_08KNHFBNJ@FlsAlloc@  0000000180145f10     libvcruntime:winapi_downlevel.obj
 0002:00006f28       ??_C@_07PEJMOBNF@FlsFree@  0000000180145f28     libvcruntime:winapi_downlevel.obj
 0002:00006f38       ??_C@_0M@GDNOONDI@FlsGetValue@ 0000000180145f38     libvcruntime:winapi_downlevel.obj
 0002:00006f50       ??_C@_0M@JCPCPOEF@FlsSetValue@ 0000000180145f50     libvcruntime:winapi_downlevel.obj
 0002:00006f68       ??_C@_0BM@HCFOFFN@InitializeCriticalSectionEx@ 0000000180145f68     libvcruntime:winapi_downlevel.obj
 0002:00006f90       ??_7exception@std@@6B@     0000000180145f90     libvcruntime:frame.obj
 0002:00006fa0       ??_C@_0BC@EOODALEL@Unknown?5exception@ 0000000180145fa0     libvcruntime:frame.obj
 0002:00006fc0       ??_7bad_exception@std@@6B@ 0000000180145fc0     libvcruntime:frame.obj
 0002:00006fd0       ??_C@_0O@DPKOEFFH@bad?5exception@ 0000000180145fd0     libvcruntime:frame.obj
 0002:00007320       ??_C@_05FFFCHCED@acosf@    0000000180146320     libucrt:acosf.obj
 0002:00007328       __real@3b81ce6b            0000000180146328     libucrt:acosf.obj
 0002:00007330       __real@3c91a62633145c07    0000000180146330     libucrt:acosf.obj
 0002:00007338       __real@3d678bdd            0000000180146338     libucrt:acosf.obj
 0002:0000733c       __real@3e3c94dc            000000018014633c     libucrt:acosf.obj
 0002:00007340       __real@3f561f0d            0000000180146340     libucrt:acosf.obj
 0002:00007344       __real@3f8d6fa5            0000000180146344     libucrt:acosf.obj
 0002:00007348       __real@3ff921fb54442d18    0000000180146348     libucrt:acosf.obj
 0002:00007350       __real@400921fb54442d18    0000000180146350     libucrt:acosf.obj
 0002:00007358       __real@40490fdb            0000000180146358     libucrt:acosf.obj
 0002:0000735c       __real@bc5b3fe1            000000018014635c     libucrt:acosf.obj
 0002:00007360       __acrt_exception_action_table 0000000180146360     libucrt:exception_filter.obj
 0002:00007420       __acrt_signal_action_table_count 0000000180146420     libucrt:exception_filter.obj
 0002:00007428       __acrt_signal_action_first_fpe_index 0000000180146428     libucrt:exception_filter.obj
 0002:00007430       __acrt_signal_action_fpe_count 0000000180146430     libucrt:exception_filter.obj
 0002:00007488       ??_C@_1BI@BGOHAHKC@?$AAm?$AAs?$AAc?$AAo?$AAr?$AAe?$AAe?$AA?4?$AAd?$AAl?$AAl@ 0000000180146488     libucrt:exit.obj
 0002:000074a0       ??_C@_0P@MIGLKIOC@CorExitProcess@ 00000001801464a0     libucrt:exit.obj
 0002:00007600       ?standard_lookup_table_spectre@__crt_stdio_output@@3V?$spectre_mitigated_lookup_table@Ustate_transition_pair@__crt_stdio_output@@$0IA@@1@B 0000000180146600     libucrt:output.obj
 0002:00007700       ?format_validation_lookup_table_spectre@__crt_stdio_output@@3V?$spectre_mitigated_lookup_table@Ustate_transition_pair@__crt_stdio_output@@$0IA@@1@B 0000000180146700     libucrt:output.obj
 0002:00007800       ??_C@_1O@CEDCILHN@?$AA?$CI?$AAn?$AAu?$AAl?$AAl?$AA?$CJ@ 0000000180146800     libucrt:output.obj
 0002:00007810       ??_C@_06OJHGLDPL@?$CInull?$CJ@ 0000000180146810     libucrt:output.obj
 0002:00007990       ??_C@_04LAGPAAHP@sinf@     0000000180146990     libucrt:sincos_special.obj
 0002:00007998       ??_C@_04OBBKPIAC@cosf@     0000000180146998     libucrt:sincos_special.obj
 0002:000079a0       ??_C@_04MHPLPEIA@tanf@     00000001801469a0     libucrt:sincos_special.obj
 0002:000079b0       __Lcosfarray               00000001801469b0     libucrt:lsincosf_array.obj
 0002:000079e0       __Lsinfarray               00000001801469e0     libucrt:lsincosf_array.obj
 0002:00007a00       __L_2_by_pi_bits           0000000180146a00     libucrt:l2_by_pi_bits.obj
 0002:00007cd8       ??_C@_1M@HPNHIDJI@?$AAj?$AAa?$AA?9?$AAJ?$AAP@ 0000000180146cd8     libucrt:mbctype.obj
 0002:00007ce8       ??_C@_1M@BIBDDEMK@?$AAz?$AAh?$AA?9?$AAC?$AAN@ 0000000180146ce8     libucrt:mbctype.obj
 0002:00007cf8       ??_C@_1M@JLOOOEGK@?$AAk?$AAo?$AA?9?$AAK?$AAR@ 0000000180146cf8     libucrt:mbctype.obj
 0002:00007d08       ??_C@_1M@CLNBBOPM@?$AAz?$AAh?$AA?9?$AAT?$AAW@ 0000000180146d08     libucrt:mbctype.obj
 0002:00007dd0       ??_C@_1EA@JGEFHKEI@?$AAa?$AAp?$AAi?$AA?9?$AAm?$AAs?$AA?9?$AAw?$AAi?$AAn?$AA?9?$AAc?$AAo?$AAr?$AAe@ 0000000180146dd0     libucrt:winapi_thunks.obj
 0002:00007e10       ??_C@_1DI@KMEPCBPN@?$AAa?$AAp?$AAi?$AA?9?$AAm?$AAs?$AA?9?$AAw?$AAi?$AAn?$AA?9?$AAc?$AAo?$AAr?$AAe@ 0000000180146e10     libucrt:winapi_thunks.obj
 0002:00007e48       ??_C@_1DI@IJCEHOCB@?$AAa?$AAp?$AAi?$AA?9?$AAm?$AAs?$AA?9?$AAw?$AAi?$AAn?$AA?9?$AAc?$AAo?$AAr?$AAe@ 0000000180146e48     libucrt:winapi_thunks.obj
 0002:00007e80       ??_C@_1EI@MPIAOHOC@?$AAa?$AAp?$AAi?$AA?9?$AAm?$AAs?$AA?9?$AAw?$AAi?$AAn?$AA?9?$AAc?$AAo?$AAr?$AAe@ 0000000180146e80     libucrt:winapi_thunks.obj
 0002:00007ed0       ??_C@_1FK@FPHCKFIE@?$AAa?$AAp?$AAi?$AA?9?$AAm?$AAs?$AA?9?$AAw?$AAi?$AAn?$AA?9?$AAc?$AAo?$AAr?$AAe@ 0000000180146ed0     libucrt:winapi_thunks.obj
 0002:00007f30       ??_C@_1EM@DILCGIIO@?$AAa?$AAp?$AAi?$AA?9?$AAm?$AAs?$AA?9?$AAw?$AAi?$AAn?$AA?9?$AAc?$AAo?$AAr?$AAe@ 0000000180146f30     libucrt:winapi_thunks.obj
 0002:00007f80       ??_C@_1DM@LNCGDDPN@?$AAa?$AAp?$AAi?$AA?9?$AAm?$AAs?$AA?9?$AAw?$AAi?$AAn?$AA?9?$AAc?$AAo?$AAr?$AAe@ 0000000180146f80     libucrt:winapi_thunks.obj
 0002:00007fc0       ??_C@_1DO@FPAPJEMD@?$AAa?$AAp?$AAi?$AA?9?$AAm?$AAs?$AA?9?$AAw?$AAi?$AAn?$AA?9?$AAc?$AAo?$AAr?$AAe@ 0000000180146fc0     libucrt:winapi_thunks.obj
 0002:00008000       ??_C@_1DK@NDHNAHIO@?$AAa?$AAp?$AAi?$AA?9?$AAm?$AAs?$AA?9?$AAw?$AAi?$AAn?$AA?9?$AAc?$AAo?$AAr?$AAe@ 0000000180147000     libucrt:winapi_thunks.obj
 0002:00008040       ??_C@_1DM@KGHDGBCM@?$AAa?$AAp?$AAi?$AA?9?$AAm?$AAs?$AA?9?$AAw?$AAi?$AAn?$AA?9?$AAc?$AAo?$AAr?$AAe@ 0000000180147040     libucrt:winapi_thunks.obj
 0002:00008080       ??_C@_1EO@IJIOEFOH@?$AAa?$AAp?$AAi?$AA?9?$AAm?$AAs?$AA?9?$AAw?$AAi?$AAn?$AA?9?$AAr?$AAt?$AAc?$AAo@ 0000000180147080     libucrt:winapi_thunks.obj
 0002:000080d0       ??_C@_1FG@HHGEKANL@?$AAa?$AAp?$AAi?$AA?9?$AAm?$AAs?$AA?9?$AAw?$AAi?$AAn?$AA?9?$AAs?$AAe?$AAc?$AAu@ 00000001801470d0     libucrt:winapi_thunks.obj
 0002:00008130       ??_C@_1EG@DBIOJECG@?$AAe?$AAx?$AAt?$AA?9?$AAm?$AAs?$AA?9?$AAw?$AAi?$AAn?$AA?9?$AAn?$AAt?$AAu?$AAs@ 0000000180147130     libucrt:winapi_thunks.obj
 0002:00008180       ??_C@_1EO@FIHMJCLF@?$AAe?$AAx?$AAt?$AA?9?$AAm?$AAs?$AA?9?$AAw?$AAi?$AAn?$AA?9?$AAn?$AAt?$AAu?$AAs@ 0000000180147180     libucrt:winapi_thunks.obj
 0002:000081d0       ??_C@_1BC@DNHGCMLG@?$AAa?$AAd?$AAv?$AAa?$AAp?$AAi?$AA3?$AA2@ 00000001801471d0     libucrt:winapi_thunks.obj
 0002:000081e8       ??_C@_1BG@CJPGBMEF@?$AAk?$AAe?$AAr?$AAn?$AAe?$AAl?$AAb?$AAa?$AAs?$AAe@ 00000001801471e8     libucrt:winapi_thunks.obj
 0002:00008200       ??_C@_1M@OAIMIKLP@?$AAn?$AAt?$AAd?$AAl?$AAl@ 0000000180147200     libucrt:winapi_thunks.obj
 0002:00008210       ??_C@_1EG@DPGNFKGC@?$AAa?$AAp?$AAi?$AA?9?$AAm?$AAs?$AA?9?$AAw?$AAi?$AAn?$AA?9?$AAa?$AAp?$AAp?$AAm@ 0000000180147210     libucrt:winapi_thunks.obj
 0002:00008258       ??_C@_1O@BCCLBEOE@?$AAu?$AAs?$AAe?$AAr?$AA3?$AA2@ 0000000180147258     libucrt:winapi_thunks.obj
 0002:00008268       ??_C@_1BA@IAIFMGEF@?$AAe?$AAx?$AAt?$AA?9?$AAm?$AAs?$AA?9@ 0000000180147268     libucrt:winapi_thunks.obj
 0002:00008280       ??_C@_0BA@FHFNEAED@AreFileApisANSI@ 0000000180147280     libucrt:winapi_thunks.obj
 0002:000082a0       ??_C@_0O@KKBNKAPF@LCMapStringEx@ 00000001801472a0     libucrt:winapi_thunks.obj
 0002:000082b8       ??_C@_0BB@HBDEELFH@LocaleNameToLCID@ 00000001801472b8     libucrt:winapi_thunks.obj
 0002:000082d0       ??_C@_0CF@OJOFEIGO@AppPolicyGetProcessTerminationM@ 00000001801472d0     libucrt:winapi_thunks.obj
 0002:00008300       __lc_time_c                0000000180147300     libucrt:nlsdata.obj
 0002:000085c0       ??_C@_03KOEHGMDN@Sun@      00000001801475c0     libucrt:nlsdata.obj
 0002:000085c4       ??_C@_03PDAGKDH@Mon@       00000001801475c4     libucrt:nlsdata.obj
 0002:000085c8       ??_C@_03NAGEINEP@Tue@      00000001801475c8     libucrt:nlsdata.obj
 0002:000085cc       ??_C@_03MHOMLAJA@Wed@      00000001801475cc     libucrt:nlsdata.obj
 0002:000085d0       ??_C@_03IOFIKPDN@Thu@      00000001801475d0     libucrt:nlsdata.obj
 0002:000085d4       ??_C@_03IDIOELNC@Fri@      00000001801475d4     libucrt:nlsdata.obj
 0002:000085d8       ??_C@_03FEFJNEK@Sat@       00000001801475d8     libucrt:nlsdata.obj
 0002:000085dc       ??_C@_06OOPIFAJ@Sunday@    00000001801475dc     libucrt:nlsdata.obj
 0002:000085e4       ??_C@_06JLEDEDGH@Monday@   00000001801475e4     libucrt:nlsdata.obj
 0002:000085f0       ??_C@_07BAAGCFCM@Tuesday@  00000001801475f0     libucrt:nlsdata.obj
 0002:000085f8       ??_C@_09DLIGFAKA@Wednesday@ 00000001801475f8     libucrt:nlsdata.obj
 0002:00008608       ??_C@_08HACCIKIA@Thursday@ 0000000180147608     libucrt:nlsdata.obj
 0002:00008614       ??_C@_06JECMNKMI@Friday@   0000000180147614     libucrt:nlsdata.obj
 0002:00008620       ??_C@_08INBOOONO@Saturday@ 0000000180147620     libucrt:nlsdata.obj
 0002:0000862c       ??_C@_03JIHJHPIE@Jan@      000000018014762c     libucrt:nlsdata.obj
 0002:00008630       ??_C@_03HJBDCHOM@Feb@      0000000180147630     libucrt:nlsdata.obj
 0002:00008634       ??_C@_03ODNJBKGA@Mar@      0000000180147634     libucrt:nlsdata.obj
 0002:00008638       ??_C@_03LEOLGMJP@Apr@      0000000180147638     libucrt:nlsdata.obj
 0002:0000863c       ??_C@_03CNMDKL@May@        000000018014763c     libucrt:nlsdata.obj
 0002:00008640       ??_C@_03IDFGHECI@Jun@      0000000180147640     libucrt:nlsdata.obj
 0002:00008644       ??_C@_03LBGABGKK@Jul@      0000000180147644     libucrt:nlsdata.obj
 0002:00008648       ??_C@_03IFJFEIGA@Aug@      0000000180147648     libucrt:nlsdata.obj
 0002:0000864c       ??_C@_03GGCAPAJC@Sep@      000000018014764c     libucrt:nlsdata.obj
 0002:00008650       ??_C@_03BMAOKBAD@Oct@      0000000180147650     libucrt:nlsdata.obj
 0002:00008654       ??_C@_03JPJOFNIA@Nov@      0000000180147654     libucrt:nlsdata.obj
 0002:00008658       ??_C@_03MKABNOCG@Dec@      0000000180147658     libucrt:nlsdata.obj
 0002:00008660       ??_C@_07CGJPFGJA@January@  0000000180147660     libucrt:nlsdata.obj
 0002:00008668       ??_C@_08GNJGEPFN@February@ 0000000180147668     libucrt:nlsdata.obj
 0002:00008674       ??_C@_05HPCKOFNC@March@    0000000180147674     libucrt:nlsdata.obj
 0002:0000867c       ??_C@_05DMJDNLEJ@April@    000000018014767c     libucrt:nlsdata.obj
 0002:00008684       ??_C@_04CNLMGBGM@June@     0000000180147684     libucrt:nlsdata.obj
 0002:0000868c       ??_C@_04MIEPOIFP@July@     000000018014768c     libucrt:nlsdata.obj
 0002:00008694       ??_C@_06LBBHFDDG@August@   0000000180147694     libucrt:nlsdata.obj
 0002:000086a0       ??_C@_09BHHEALKD@September@ 00000001801476a0     libucrt:nlsdata.obj
 0002:000086b0       ??_C@_07JJNFCEND@October@  00000001801476b0     libucrt:nlsdata.obj
 0002:000086b8       ??_C@_08HCHEGEOA@November@ 00000001801476b8     libucrt:nlsdata.obj
 0002:000086c8       ??_C@_08EDHMEBNP@December@ 00000001801476c8     libucrt:nlsdata.obj
 0002:000086d4       ??_C@_02DEDBPAFC@AM@       00000001801476d4     libucrt:nlsdata.obj
 0002:000086d8       ??_C@_02CJNFDJBF@PM@       00000001801476d8     libucrt:nlsdata.obj
 0002:000086e0       ??_C@_08BPBNCDIB@MM?1dd?1yy@ 00000001801476e0     libucrt:nlsdata.obj
 0002:000086f0       ??_C@_0BE@CKGJFCPC@dddd?0?5MMMM?5dd?0?5yyyy@ 00000001801476f0     libucrt:nlsdata.obj
 0002:00008708       ??_C@_08JCCMCCIL@HH?3mm?3ss@ 0000000180147708     libucrt:nlsdata.obj
 0002:00008718       ??_C@_17MBGCMIPB@?$AAS?$AAu?$AAn@ 0000000180147718     libucrt:nlsdata.obj
 0002:00008720       ??_C@_17KBOMKBF@?$AAM?$AAo?$AAn@ 0000000180147720     libucrt:nlsdata.obj
 0002:00008728       ??_C@_17BMKGEGOJ@?$AAT?$AAu?$AAe@ 0000000180147728     libucrt:nlsdata.obj
 0002:00008730       ??_C@_17CJEDCEPE@?$AAW?$AAe?$AAd@ 0000000180147730     libucrt:nlsdata.obj
 0002:00008738       ??_C@_17PDPHAADD@?$AAT?$AAh?$AAu@ 0000000180147738     libucrt:nlsdata.obj
 0002:00008740       ??_C@_17HFOLPPLP@?$AAF?$AAr?$AAi@ 0000000180147740     libucrt:nlsdata.obj
 0002:00008748       ??_C@_17GGIBDPIH@?$AAS?$AAa?$AAt@ 0000000180147748     libucrt:nlsdata.obj
 0002:00008750       ??_C@_1O@IHNHDHPB@?$AAS?$AAu?$AAn?$AAd?$AAa?$AAy@ 0000000180147750     libucrt:nlsdata.obj
 0002:00008760       ??_C@_1O@MMNBFLIA@?$AAM?$AAo?$AAn?$AAd?$AAa?$AAy@ 0000000180147760     libucrt:nlsdata.obj
 0002:00008770       ??_C@_1BA@ENFBFFEK@?$AAT?$AAu?$AAe?$AAs?$AAd?$AAa?$AAy@ 0000000180147770     libucrt:nlsdata.obj
 0002:00008780       ??_C@_1BE@EBOGMDOH@?$AAW?$AAe?$AAd?$AAn?$AAe?$AAs?$AAd?$AAa?$AAy@ 0000000180147780     libucrt:nlsdata.obj
 0002:00008798       ??_C@_1BC@HHMNLIHE@?$AAT?$AAh?$AAu?$AAr?$AAs?$AAd?$AAa?$AAy@ 0000000180147798     libucrt:nlsdata.obj
 0002:000087b0       ??_C@_1O@PDICJHAG@?$AAF?$AAr?$AAi?$AAd?$AAa?$AAy@ 00000001801477b0     libucrt:nlsdata.obj
 0002:000087c0       ??_C@_1BC@ENMNNPAJ@?$AAS?$AAa?$AAt?$AAu?$AAr?$AAd?$AAa?$AAy@ 00000001801477c0     libucrt:nlsdata.obj
 0002:000087d8       ??_C@_17DKNBKCHM@?$AAJ?$AAa?$AAn@ 00000001801477d8     libucrt:nlsdata.obj
 0002:000087e0       ??_C@_17LMDJEKJN@?$AAF?$AAe?$AAb@ 00000001801477e0     libucrt:nlsdata.obj
 0002:000087e8       ??_C@_17CKNLEDEC@?$AAM?$AAa?$AAr@ 00000001801477e8     libucrt:nlsdata.obj
 0002:000087f0       ??_C@_17LFPOIHDD@?$AAA?$AAp?$AAr@ 00000001801477f0     libucrt:nlsdata.obj
 0002:000087f8       ??_C@_17PNNKMEED@?$AAM?$AAa?$AAy@ 00000001801477f8     libucrt:nlsdata.obj
 0002:00008800       ??_C@_17KCJGOCPB@?$AAJ?$AAu?$AAn@ 0000000180147800     libucrt:nlsdata.obj
 0002:00008808       ??_C@_17IJPCKHK@?$AAJ?$AAu?$AAl@ 0000000180147808     libucrt:nlsdata.obj
 0002:00008810       ??_C@_17ICPELBCN@?$AAA?$AAu?$AAg@ 0000000180147810     libucrt:nlsdata.obj
 0002:00008818       ??_C@_17HCHCOKMG@?$AAS?$AAe?$AAp@ 0000000180147818     libucrt:nlsdata.obj
 0002:00008820       ??_C@_17FNLKOI@?$AAO?$AAc?$AAt@ 0000000180147820     libucrt:nlsdata.obj
 0002:00008828       ??_C@_17BBDMLCIG@?$AAN?$AAo?$AAv@ 0000000180147828     libucrt:nlsdata.obj
 0002:00008830       ??_C@_17EGKACKIF@?$AAD?$AAe?$AAc@ 0000000180147830     libucrt:nlsdata.obj
 0002:00008838       ??_C@_1BA@EFMEIEBA@?$AAJ?$AAa?$AAn?$AAu?$AAa?$AAr?$AAy@ 0000000180147838     libucrt:nlsdata.obj
 0002:00008848       ??_C@_1BC@JGDDFFAM@?$AAF?$AAe?$AAb?$AAr?$AAu?$AAa?$AAr?$AAy@ 0000000180147848     libucrt:nlsdata.obj
 0002:00008860       ??_C@_1M@IKEENEDF@?$AAM?$AAa?$AAr?$AAc?$AAh@ 0000000180147860     libucrt:nlsdata.obj
 0002:00008870       ??_C@_1M@GJNLMHFD@?$AAA?$AAp?$AAr?$AAi?$AAl@ 0000000180147870     libucrt:nlsdata.obj
 0002:00008880       ??_C@_19EPFLPGAP@?$AAJ?$AAu?$AAn?$AAe@ 0000000180147880     libucrt:nlsdata.obj
 0002:00008890       ??_C@_19BIFMLPCD@?$AAJ?$AAu?$AAl?$AAy@ 0000000180147890     libucrt:nlsdata.obj
 0002:000088a0       ??_C@_1O@PAHLKOAC@?$AAA?$AAu?$AAg?$AAu?$AAs?$AAt@ 00000001801478a0     libucrt:nlsdata.obj
 0002:000088b0       ??_C@_1BE@DKAAMBJL@?$AAS?$AAe?$AAp?$AAt?$AAe?$AAm?$AAb?$AAe?$AAr@ 00000001801478b0     libucrt:nlsdata.obj
 0002:000088c8       ??_C@_1BA@EPANDLNG@?$AAO?$AAc?$AAt?$AAo?$AAb?$AAe?$AAr@ 00000001801478c8     libucrt:nlsdata.obj
 0002:000088d8       ??_C@_1BC@BGLIFPF@?$AAN?$AAo?$AAv?$AAe?$AAm?$AAb?$AAe?$AAr@ 00000001801478d8     libucrt:nlsdata.obj
 0002:000088f0       ??_C@_1BC@FEMKIFH@?$AAD?$AAe?$AAc?$AAe?$AAm?$AAb?$AAe?$AAr@ 00000001801478f0     libucrt:nlsdata.obj
 0002:00008904       ??_C@_15ODEHAHHF@?$AAA?$AAM@ 0000000180147904     libucrt:nlsdata.obj
 0002:0000890c       ??_C@_15CLMNNGEL@?$AAP?$AAM@ 000000018014790c     libucrt:nlsdata.obj
 0002:00008918       ??_C@_1BC@IEBCMHCM@?$AAM?$AAM?$AA?1?$AAd?$AAd?$AA?1?$AAy?$AAy@ 0000000180147918     libucrt:nlsdata.obj
 0002:00008930       ??_C@_1CI@KNAKOEBC@?$AAd?$AAd?$AAd?$AAd?$AA?0?$AA?5?$AAM?$AAM?$AAM?$AAM?$AA?5?$AAd?$AAd?$AA?0?$AA?5@ 0000000180147930     libucrt:nlsdata.obj
 0002:00008958       ??_C@_1BC@GDGBMEMK@?$AAH?$AAH?$AA?3?$AAm?$AAm?$AA?3?$AAs?$AAs@ 0000000180147958     libucrt:nlsdata.obj
 0002:00008970       ??_C@_1M@BMHNFIME@?$AAe?$AAn?$AA?9?$AAU?$AAS@ 0000000180147970     libucrt:nlsdata.obj
 0002:00008a00       ??_C@_03OEIAHPBN@INF@      0000000180147a00     libucrt:cvt.obj
 0002:00008a04       ??_C@_03OJHLLCGB@inf@      0000000180147a04     libucrt:cvt.obj
 0002:00008a08       ??_C@_03LKNCIKJB@NAN@      0000000180147a08     libucrt:cvt.obj
 0002:00008a0c       ??_C@_03LHCJEHON@nan@      0000000180147a0c     libucrt:cvt.obj
 0002:00008a10       ??_C@_09OFJJIMPC@NAN?$CISNAN?$CJ@ 0000000180147a10     libucrt:cvt.obj
 0002:00008a20       ??_C@_09IPFBKMDL@nan?$CIsnan?$CJ@ 0000000180147a20     libucrt:cvt.obj
 0002:00008a30       ??_C@_08IKHNHAJ@NAN?$CIIND?$CJ@ 0000000180147a30     libucrt:cvt.obj
 0002:00008a40       ??_C@_08OFCDMILK@nan?$CIind?$CJ@ 0000000180147a40     libucrt:cvt.obj
 0002:00008a4c       ??_C@_05KLBDPFGC@e?$CL000@ 0000000180147a4c     libucrt:cvt.obj
 0002:00008a60       __newctype                 0000000180147a60     libucrt:ctype.obj
 0002:00008d60       __newclmap                 0000000180147d60     libucrt:ctype.obj
 0002:00008ee0       __newcumap                 0000000180147ee0     libucrt:ctype.obj
 0002:00009070       ??_C@_05HGHHAHAP@log10@    0000000180148070     libucrt:fpexcept.obj
 0002:00009ec0       ??_C@_15EMKDOKLE@?$AAa?$AAr@ 0000000180148ec0     libucrt:lcidtoname_downlevel.obj
 0002:00009ec8       ??_C@_15KNPADPLH@?$AAb?$AAg@ 0000000180148ec8     libucrt:lcidtoname_downlevel.obj
 0002:00009ed0       ??_C@_15EDMHLDMO@?$AAc?$AAa@ 0000000180148ed0     libucrt:lcidtoname_downlevel.obj
 0002:00009ed8       ??_C@_1O@BPEAJADD@?$AAz?$AAh?$AA?9?$AAC?$AAH?$AAS@ 0000000180148ed8     libucrt:lcidtoname_downlevel.obj
 0002:00009ee8       ??_C@_15LJNHCMNK@?$AAc?$AAs@ 0000000180148ee8     libucrt:lcidtoname_downlevel.obj
 0002:00009ef0       ??_C@_15FOMCIDHG@?$AAd?$AAa@ 0000000180148ef0     libucrt:lcidtoname_downlevel.obj
 0002:00009ef8       ??_C@_15NBKABECB@?$AAd?$AAe@ 0000000180148ef8     libucrt:lcidtoname_downlevel.obj
 0002:00009f00       ??_C@_15GHPEIIAO@?$AAe?$AAl@ 0000000180148f00     libucrt:lcidtoname_downlevel.obj
 0002:00009f08       ??_C@_15MNPNEAIF@?$AAe?$AAn@ 0000000180148f08     libucrt:lcidtoname_downlevel.obj
 0002:00009f10       ??_C@_15GPIOMPMH@?$AAe?$AAs@ 0000000180148f10     libucrt:lcidtoname_downlevel.obj
 0002:00009f18       ??_C@_15NGLOAKJC@?$AAf?$AAi@ 0000000180148f18     libucrt:lcidtoname_downlevel.obj
 0002:00009f20       ??_C@_15FBKGNKAM@?$AAf?$AAr@ 0000000180148f20     libucrt:lcidtoname_downlevel.obj
 0002:00009f28       ??_C@_15KGGCNEFK@?$AAh?$AAe@ 0000000180148f28     libucrt:lcidtoname_downlevel.obj
 0002:00009f30       ??_C@_15PGHLIDMF@?$AAh?$AAu@ 0000000180148f30     libucrt:lcidtoname_downlevel.obj
 0002:00009f38       ??_C@_15BIEMAPLM@?$AAi?$AAs@ 0000000180148f38     libucrt:lcidtoname_downlevel.obj
 0002:00009f40       ??_C@_15IFJLDHAF@?$AAi?$AAt@ 0000000180148f40     libucrt:lcidtoname_downlevel.obj
 0002:00009f48       ??_C@_15GEMIOCAG@?$AAj?$AAa@ 0000000180148f48     libucrt:lcidtoname_downlevel.obj
 0002:00009f50       ??_C@_15EPELEGJA@?$AAk?$AAo@ 0000000180148f50     libucrt:lcidtoname_downlevel.obj
 0002:00009f58       ??_C@_15NDDHIMN@?$AAn?$AAl@ 0000000180148f58     libucrt:lcidtoname_downlevel.obj
 0002:00009f60       ??_C@_15BPIGNHCD@?$AAn?$AAo@ 0000000180148f60     libucrt:lcidtoname_downlevel.obj
 0002:00009f68       ??_C@_15DEOPBLCG@?$AAp?$AAl@ 0000000180148f68     libucrt:lcidtoname_downlevel.obj
 0002:00009f70       ??_C@_15KBECGEFG@?$AAp?$AAt@ 0000000180148f70     libucrt:lcidtoname_downlevel.obj
 0002:00009f78       ??_C@_15GLJCBFMD@?$AAr?$AAo@ 0000000180148f78     libucrt:lcidtoname_downlevel.obj
 0002:00009f80       ??_C@_15FEDGKCDI@?$AAr?$AAu@ 0000000180148f80     libucrt:lcidtoname_downlevel.obj
 0002:00009f88       ??_C@_15GLKMLLHM@?$AAh?$AAr@ 0000000180148f88     libucrt:lcidtoname_downlevel.obj
 0002:00009f90       ??_C@_15CPKMFBDB@?$AAs?$AAk@ 0000000180148f90     libucrt:lcidtoname_downlevel.obj
 0002:00009f98       ??_C@_15BAAIOGMK@?$AAs?$AAq@ 0000000180148f98     libucrt:lcidtoname_downlevel.obj
 0002:00009fa0       ??_C@_15INNPNOHD@?$AAs?$AAv@ 0000000180148fa0     libucrt:lcidtoname_downlevel.obj
 0002:00009fa8       ??_C@_15CABMMOGH@?$AAt?$AAh@ 0000000180148fa8     libucrt:lcidtoname_downlevel.obj
 0002:00009fb0       ??_C@_15BPLIHJJM@?$AAt?$AAr@ 0000000180148fb0     libucrt:lcidtoname_downlevel.obj
 0002:00009fb8       ??_C@_15NEOEKKDJ@?$AAu?$AAr@ 0000000180148fb8     libucrt:lcidtoname_downlevel.obj
 0002:00009fc0       ??_C@_15NFICGAJK@?$AAi?$AAd@ 0000000180148fc0     libucrt:lcidtoname_downlevel.obj
 0002:00009fc8       ??_C@_15PJPFLCCM@?$AAu?$AAk@ 0000000180148fc8     libucrt:lcidtoname_downlevel.obj
 0002:00009fd0       ??_C@_15HPJPHDM@?$AAb?$AAe@ 0000000180148fd0     libucrt:lcidtoname_downlevel.obj
 0002:00009fd8       ??_C@_15LCHLGJII@?$AAs?$AAl@ 0000000180148fd8     libucrt:lcidtoname_downlevel.obj
 0002:00009fe0       ??_C@_15PCFJPHHO@?$AAe?$AAt@ 0000000180148fe0     libucrt:lcidtoname_downlevel.obj
 0002:00009fe8       ??_C@_15HPFPGODN@?$AAl?$AAv@ 0000000180148fe8     libucrt:lcidtoname_downlevel.obj
 0002:00009ff0       ??_C@_15NFFGKGLG@?$AAl?$AAt@ 0000000180148ff0     libucrt:lcidtoname_downlevel.obj
 0002:00009ff8       ??_C@_15BDAKCCHN@?$AAf?$AAa@ 0000000180148ff8     libucrt:lcidtoname_downlevel.obj
 0002:0000a000       ??_C@_15NFGIAIAJ@?$AAv?$AAi@ 0000000180149000     libucrt:lcidtoname_downlevel.obj
 0002:0000a008       ??_C@_15LMKNDMHN@?$AAh?$AAy@ 0000000180149008     libucrt:lcidtoname_downlevel.obj
 0002:0000a010       ??_C@_15IJBHMCFL@?$AAa?$AAz@ 0000000180149010     libucrt:lcidtoname_downlevel.obj
 0002:0000a018       ??_C@_15EKOFJABL@?$AAe?$AAu@ 0000000180149018     libucrt:lcidtoname_downlevel.obj
 0002:0000a020       ??_C@_15BGHADCNK@?$AAm?$AAk@ 0000000180149020     libucrt:lcidtoname_downlevel.obj
 0002:0000a028       ??_C@_15JDNICKHM@?$AAa?$AAf@ 0000000180149028     libucrt:lcidtoname_downlevel.obj
 0002:0000a030       ??_C@_15KPJEDBKD@?$AAk?$AAa@ 0000000180149030     libucrt:lcidtoname_downlevel.obj
 0002:0000a038       ??_C@_15PDNFFFEO@?$AAf?$AAo@ 0000000180149038     libucrt:lcidtoname_downlevel.obj
 0002:0000a040       ??_C@_15OMLEGLOC@?$AAh?$AAi@ 0000000180149040     libucrt:lcidtoname_downlevel.obj
 0002:0000a048       ??_C@_15IDNNENKK@?$AAm?$AAs@ 0000000180149048     libucrt:lcidtoname_downlevel.obj
 0002:0000a050       ??_C@_15MACJNBMH@?$AAk?$AAk@ 0000000180149050     libucrt:lcidtoname_downlevel.obj
 0002:0000a058       ??_C@_15DKDJEOND@?$AAk?$AAy@ 0000000180149058     libucrt:lcidtoname_downlevel.obj
 0002:0000a060       ??_C@_15DFGDLJBG@?$AAs?$AAw@ 0000000180149060     libucrt:lcidtoname_downlevel.obj
 0002:0000a068       ??_C@_15BBFAICNG@?$AAu?$AAz@ 0000000180149068     libucrt:lcidtoname_downlevel.obj
 0002:0000a070       ??_C@_15DKNDCGEA@?$AAt?$AAt@ 0000000180149070     libucrt:lcidtoname_downlevel.obj
 0002:0000a078       ??_C@_15MGIFMDPL@?$AAp?$AAa@ 0000000180149078     libucrt:lcidtoname_downlevel.obj
 0002:0000a080       ??_C@_15HCNDBBA@?$AAg?$AAu@ 0000000180149080     libucrt:lcidtoname_downlevel.obj
 0002:0000a088       ??_C@_15FNBEIBON@?$AAt?$AAa@ 0000000180149088     libucrt:lcidtoname_downlevel.obj
 0002:0000a090       ??_C@_15NCHGBGLK@?$AAt?$AAe@ 0000000180149090     libucrt:lcidtoname_downlevel.obj
 0002:0000a098       ??_C@_15PHPHCBPF@?$AAk?$AAn@ 0000000180149098     libucrt:lcidtoname_downlevel.obj
 0002:0000a0a0       ??_C@_15DLGBCKMP@?$AAm?$AAr@ 00000001801490a0     libucrt:lcidtoname_downlevel.obj
 0002:0000a0a8       ??_C@_15EABBLBFF@?$AAs?$AAa@ 00000001801490a8     libucrt:lcidtoname_downlevel.obj
 0002:0000a0b0       ??_C@_15CBKOMCOI@?$AAm?$AAn@ 00000001801490b0     libucrt:lcidtoname_downlevel.obj
 0002:0000a0b8       ??_C@_15CKDMCJAF@?$AAg?$AAl@ 00000001801490b8     libucrt:lcidtoname_downlevel.obj
 0002:0000a0c0       ??_C@_17CNJFBPG@?$AAk?$AAo?$AAk@ 00000001801490c0     libucrt:lcidtoname_downlevel.obj
 0002:0000a0c8       ??_C@_17FFBJICPL@?$AAs?$AAy?$AAr@ 00000001801490c8     libucrt:lcidtoname_downlevel.obj
 0002:0000a0d0       ??_C@_17KPNDCPAF@?$AAd?$AAi?$AAv@ 00000001801490d0     libucrt:lcidtoname_downlevel.obj
 0002:0000a0d8       ??_C@_11LOCGONAA@@         00000001801490d8     libucrt:lcidtoname_downlevel.obj
 0002:0000a0e0       ??_C@_1M@OKAHONE@?$AAa?$AAr?$AA?9?$AAS?$AAA@ 00000001801490e0     libucrt:lcidtoname_downlevel.obj
 0002:0000a0f0       ??_C@_1M@FFFIGIGK@?$AAb?$AAg?$AA?9?$AAB?$AAG@ 00000001801490f0     libucrt:lcidtoname_downlevel.obj
 0002:0000a100       ??_C@_1M@BJNKEDC@?$AAc?$AAa?$AA?9?$AAE?$AAS@ 0000000180149100     libucrt:lcidtoname_downlevel.obj
 0002:0000a110       ??_C@_1M@IJJHFJHA@?$AAc?$AAs?$AA?9?$AAC?$AAZ@ 0000000180149110     libucrt:lcidtoname_downlevel.obj
 0002:0000a120       ??_C@_1M@CLPEOBGI@?$AAd?$AAa?$AA?9?$AAD?$AAK@ 0000000180149120     libucrt:lcidtoname_downlevel.obj
 0002:0000a130       ??_C@_1M@MCMADGCB@?$AAd?$AAe?$AA?9?$AAD?$AAE@ 0000000180149130     libucrt:lcidtoname_downlevel.obj
 0002:0000a140       ??_C@_1M@OOCKEMAM@?$AAe?$AAl?$AA?9?$AAG?$AAR@ 0000000180149140     libucrt:lcidtoname_downlevel.obj
 0002:0000a150       ??_C@_1M@DDNJFGID@?$AAf?$AAi?$AA?9?$AAF?$AAI@ 0000000180149150     libucrt:lcidtoname_downlevel.obj
 0002:0000a160       ??_C@_1M@GLIPPMAC@?$AAf?$AAr?$AA?9?$AAF?$AAR@ 0000000180149160     libucrt:lcidtoname_downlevel.obj
 0002:0000a170       ??_C@_1M@GFMCHPE@?$AAh?$AAe?$AA?9?$AAI?$AAL@ 0000000180149170     libucrt:lcidtoname_downlevel.obj
 0002:0000a180       ??_C@_1M@MHLPGNKM@?$AAh?$AAu?$AA?9?$AAH?$AAU@ 0000000180149180     libucrt:lcidtoname_downlevel.obj
 0002:0000a190       ??_C@_1M@LPDDNNPN@?$AAi?$AAs?$AA?9?$AAI?$AAS@ 0000000180149190     libucrt:lcidtoname_downlevel.obj
 0002:0000a1a0       ??_C@_1M@MADIPODN@?$AAi?$AAt?$AA?9?$AAI?$AAT@ 00000001801491a0     libucrt:lcidtoname_downlevel.obj
 0002:0000a1b0       ??_C@_1M@IHBJJGG@?$AAn?$AAl?$AA?9?$AAN?$AAL@ 00000001801491b0     libucrt:lcidtoname_downlevel.obj
 0002:0000a1c0       ??_C@_1M@EANAGDL@?$AAn?$AAb?$AA?9?$AAN?$AAO@ 00000001801491c0     libucrt:lcidtoname_downlevel.obj
 0002:0000a1d0       ??_C@_1M@NEIEMEGP@?$AAp?$AAl?$AA?9?$AAP?$AAL@ 00000001801491d0     libucrt:lcidtoname_downlevel.obj
 0002:0000a1e0       ??_C@_1M@BOCFIGEP@?$AAp?$AAt?$AA?9?$AAB?$AAR@ 00000001801491e0     libucrt:lcidtoname_downlevel.obj
 0002:0000a1f0       ??_C@_1M@IMPFOPBG@?$AAr?$AAo?$AA?9?$AAR?$AAO@ 00000001801491f0     libucrt:lcidtoname_downlevel.obj
 0002:0000a200       ??_C@_1M@IDNNEJMM@?$AAr?$AAu?$AA?9?$AAR?$AAU@ 0000000180149200     libucrt:lcidtoname_downlevel.obj
 0002:0000a210       ??_C@_1M@LILEEOGM@?$AAh?$AAr?$AA?9?$AAH?$AAR@ 0000000180149210     libucrt:lcidtoname_downlevel.obj
 0002:0000a220       ??_C@_1M@FKIFEHPB@?$AAs?$AAk?$AA?9?$AAS?$AAK@ 0000000180149220     libucrt:lcidtoname_downlevel.obj
 0002:0000a230       ??_C@_1M@LJMAMNPJ@?$AAs?$AAq?$AA?9?$AAA?$AAL@ 0000000180149230     libucrt:lcidtoname_downlevel.obj
 0002:0000a240       ??_C@_1M@GIAKDKJK@?$AAs?$AAv?$AA?9?$AAS?$AAE@ 0000000180149240     libucrt:lcidtoname_downlevel.obj
 0002:0000a250       ??_C@_1M@MKJKIKCL@?$AAt?$AAh?$AA?9?$AAT?$AAH@ 0000000180149250     libucrt:lcidtoname_downlevel.obj
 0002:0000a260       ??_C@_1M@MFLCCMPB@?$AAt?$AAr?$AA?9?$AAT?$AAR@ 0000000180149260     libucrt:lcidtoname_downlevel.obj
 0002:0000a270       ??_C@_1M@OIJHDKJN@?$AAu?$AAr?$AA?9?$AAP?$AAK@ 0000000180149270     libucrt:lcidtoname_downlevel.obj
 0002:0000a280       ??_C@_1M@LHIPCIEK@?$AAi?$AAd?$AA?9?$AAI?$AAD@ 0000000180149280     libucrt:lcidtoname_downlevel.obj
 0002:0000a290       ??_C@_1M@MFMOBGI@?$AAu?$AAk?$AA?9?$AAU?$AAA@ 0000000180149290     libucrt:lcidtoname_downlevel.obj
 0002:0000a2a0       ??_C@_1M@OBGLJIPL@?$AAb?$AAe?$AA?9?$AAB?$AAY@ 00000001801492a0     libucrt:lcidtoname_downlevel.obj
 0002:0000a2b0       ??_C@_1M@BCFAJEAD@?$AAs?$AAl?$AA?9?$AAS?$AAI@ 00000001801492b0     libucrt:lcidtoname_downlevel.obj
 0002:0000a2c0       ??_C@_1M@FKFFEDDN@?$AAe?$AAt?$AA?9?$AAE?$AAE@ 00000001801492c0     libucrt:lcidtoname_downlevel.obj
 0002:0000a2d0       ??_C@_1M@KGKKAACI@?$AAl?$AAv?$AA?9?$AAL?$AAV@ 00000001801492d0     libucrt:lcidtoname_downlevel.obj
 0002:0000a2e0       ??_C@_1M@IFGBIJO@?$AAl?$AAt?$AA?9?$AAL?$AAT@ 00000001801492e0     libucrt:lcidtoname_downlevel.obj
 0002:0000a2f0       ??_C@_1M@FGEAHEDM@?$AAf?$AAa?$AA?9?$AAI?$AAR@ 00000001801492f0     libucrt:lcidtoname_downlevel.obj
 0002:0000a300       ??_C@_1M@KBMAIBFN@?$AAv?$AAi?$AA?9?$AAV?$AAN@ 0000000180149300     libucrt:lcidtoname_downlevel.obj
 0002:0000a310       ??_C@_1M@GPCBKDJK@?$AAh?$AAy?$AA?9?$AAA?$AAM@ 0000000180149310     libucrt:lcidtoname_downlevel.obj
 0002:0000a320       ??_C@_1BG@BECMDDJB@?$AAa?$AAz?$AA?9?$AAA?$AAZ?$AA?9?$AAL?$AAa?$AAt?$AAn@ 0000000180149320     libucrt:lcidtoname_downlevel.obj
 0002:0000a338       ??_C@_1M@MAOFCAEA@?$AAe?$AAu?$AA?9?$AAE?$AAS@ 0000000180149338     libucrt:lcidtoname_downlevel.obj
 0002:0000a348       ??_C@_1M@IGHABKPI@?$AAm?$AAk?$AA?9?$AAM?$AAK@ 0000000180149348     libucrt:lcidtoname_downlevel.obj
 0002:0000a358       ??_C@_1M@IAIGNEJG@?$AAt?$AAn?$AA?9?$AAZ?$AAA@ 0000000180149358     libucrt:lcidtoname_downlevel.obj
 0002:0000a368       ??_C@_1M@IIJCOJFA@?$AAx?$AAh?$AA?9?$AAZ?$AAA@ 0000000180149368     libucrt:lcidtoname_downlevel.obj
 0002:0000a378       ??_C@_1M@LGPJHNJH@?$AAz?$AAu?$AA?9?$AAZ?$AAA@ 0000000180149378     libucrt:lcidtoname_downlevel.obj
 0002:0000a388       ??_C@_1M@HOKAOIO@?$AAa?$AAf?$AA?9?$AAZ?$AAA@ 0000000180149388     libucrt:lcidtoname_downlevel.obj
 0002:0000a398       ??_C@_1M@DPCLHLIE@?$AAk?$AAa?$AA?9?$AAG?$AAE@ 0000000180149398     libucrt:lcidtoname_downlevel.obj
 0002:0000a3a8       ??_C@_1M@BLKMHJBI@?$AAf?$AAo?$AA?9?$AAF?$AAO@ 00000001801493a8     libucrt:lcidtoname_downlevel.obj
 0002:0000a3b8       ??_C@_1M@LGGJAPPB@?$AAh?$AAi?$AA?9?$AAI?$AAN@ 00000001801493b8     libucrt:lcidtoname_downlevel.obj
 0002:0000a3c8       ??_C@_1M@FIKPIHFE@?$AAm?$AAt?$AA?9?$AAM?$AAT@ 00000001801493c8     libucrt:lcidtoname_downlevel.obj
 0002:0000a3d8       ??_C@_1M@HEGGPBFA@?$AAs?$AAe?$AA?9?$AAN?$AAO@ 00000001801493d8     libucrt:lcidtoname_downlevel.obj
 0002:0000a3e8       ??_C@_1M@EIBJEEPA@?$AAm?$AAs?$AA?9?$AAM?$AAY@ 00000001801493e8     libucrt:lcidtoname_downlevel.obj
 0002:0000a3f8       ??_C@_1M@FHLBGMPP@?$AAk?$AAk?$AA?9?$AAK?$AAZ@ 00000001801493f8     libucrt:lcidtoname_downlevel.obj
 0002:0000a408       ??_C@_1M@NGJJLCGI@?$AAk?$AAy?$AA?9?$AAK?$AAG@ 0000000180149408     libucrt:lcidtoname_downlevel.obj
 0002:0000a418       ??_C@_1M@GIENNBFC@?$AAs?$AAw?$AA?9?$AAK?$AAE@ 0000000180149418     libucrt:lcidtoname_downlevel.obj
 0002:0000a428       ??_C@_1BG@NDGMJIMJ@?$AAu?$AAz?$AA?9?$AAU?$AAZ?$AA?9?$AAL?$AAa?$AAt?$AAn@ 0000000180149428     libucrt:lcidtoname_downlevel.obj
 0002:0000a440       ??_C@_1M@IDCCIHBC@?$AAt?$AAt?$AA?9?$AAR?$AAU@ 0000000180149440     libucrt:lcidtoname_downlevel.obj
 0002:0000a450       ??_C@_1M@LOICPMOJ@?$AAb?$AAn?$AA?9?$AAI?$AAN@ 0000000180149450     libucrt:lcidtoname_downlevel.obj
 0002:0000a460       ??_C@_1M@KPKKNEAH@?$AAp?$AAa?$AA?9?$AAI?$AAN@ 0000000180149460     libucrt:lcidtoname_downlevel.obj
 0002:0000a470       ??_C@_1M@PJGPPBOG@?$AAg?$AAu?$AA?9?$AAI?$AAN@ 0000000180149470     libucrt:lcidtoname_downlevel.obj
 0002:0000a480       ??_C@_1M@KMKMOPHI@?$AAt?$AAa?$AA?9?$AAI?$AAN@ 0000000180149480     libucrt:lcidtoname_downlevel.obj
 0002:0000a490       ??_C@_1M@KFEHEPAC@?$AAt?$AAe?$AA?9?$AAI?$AAN@ 0000000180149490     libucrt:lcidtoname_downlevel.obj
 0002:0000a4a0       ??_C@_1M@CDCLMGHI@?$AAk?$AAn?$AA?9?$AAI?$AAN@ 00000001801494a0     libucrt:lcidtoname_downlevel.obj
 0002:0000a4b0       ??_C@_1M@MIODLDKF@?$AAm?$AAl?$AA?9?$AAI?$AAN@ 00000001801494b0     libucrt:lcidtoname_downlevel.obj
 0002:0000a4c0       ??_C@_1M@PBIEACPO@?$AAm?$AAr?$AA?9?$AAI?$AAN@ 00000001801494c0     libucrt:lcidtoname_downlevel.obj
 0002:0000a4d0       ??_C@_1M@NIDEAGPH@?$AAs?$AAa?$AA?9?$AAI?$AAN@ 00000001801494d0     libucrt:lcidtoname_downlevel.obj
 0002:0000a4e0       ??_C@_1M@FHIHCBIO@?$AAm?$AAn?$AA?9?$AAM?$AAN@ 00000001801494e0     libucrt:lcidtoname_downlevel.obj
 0002:0000a4f0       ??_C@_1M@JAIJPENP@?$AAc?$AAy?$AA?9?$AAG?$AAB@ 00000001801494f0     libucrt:lcidtoname_downlevel.obj
 0002:0000a500       ??_C@_1M@PHGFBEPN@?$AAg?$AAl?$AA?9?$AAE?$AAS@ 0000000180149500     libucrt:lcidtoname_downlevel.obj
 0002:0000a510       ??_C@_1O@KPIPDNCP@?$AAk?$AAo?$AAk?$AA?9?$AAI?$AAN@ 0000000180149510     libucrt:lcidtoname_downlevel.obj
 0002:0000a520       ??_C@_1O@KNHJLDJA@?$AAs?$AAy?$AAr?$AA?9?$AAS?$AAY@ 0000000180149520     libucrt:lcidtoname_downlevel.obj
 0002:0000a530       ??_C@_1O@MKEKBLAH@?$AAd?$AAi?$AAv?$AA?9?$AAM?$AAV@ 0000000180149530     libucrt:lcidtoname_downlevel.obj
 0002:0000a540       ??_C@_1O@OHDCKDDF@?$AAq?$AAu?$AAz?$AA?9?$AAB?$AAO@ 0000000180149540     libucrt:lcidtoname_downlevel.obj
 0002:0000a550       ??_C@_1M@LEPJNLFD@?$AAn?$AAs?$AA?9?$AAZ?$AAA@ 0000000180149550     libucrt:lcidtoname_downlevel.obj
 0002:0000a560       ??_C@_1M@OMLEIIJB@?$AAm?$AAi?$AA?9?$AAN?$AAZ@ 0000000180149560     libucrt:lcidtoname_downlevel.obj
 0002:0000a570       ??_C@_1M@PMPEAILG@?$AAa?$AAr?$AA?9?$AAI?$AAQ@ 0000000180149570     libucrt:lcidtoname_downlevel.obj
 0002:0000a580       ??_C@_1M@CNKPNOEE@?$AAd?$AAe?$AA?9?$AAC?$AAH@ 0000000180149580     libucrt:lcidtoname_downlevel.obj
 0002:0000a590       ??_C@_1M@LKMGMLKO@?$AAe?$AAn?$AA?9?$AAG?$AAB@ 0000000180149590     libucrt:lcidtoname_downlevel.obj
 0002:0000a5a0       ??_C@_1M@PGKJFFGL@?$AAe?$AAs?$AA?9?$AAM?$AAX@ 00000001801495a0     libucrt:lcidtoname_downlevel.obj
 0002:0000a5b0       ??_C@_1M@DNNANBDC@?$AAf?$AAr?$AA?9?$AAB?$AAE@ 00000001801495b0     libucrt:lcidtoname_downlevel.obj
 0002:0000a5c0       ??_C@_1M@HLGMDFHM@?$AAi?$AAt?$AA?9?$AAC?$AAH@ 00000001801495c0     libucrt:lcidtoname_downlevel.obj
 0002:0000a5d0       ??_C@_1M@CLLBGJH@?$AAn?$AAl?$AA?9?$AAB?$AAE@ 00000001801495d0     libucrt:lcidtoname_downlevel.obj
 0002:0000a5e0       ??_C@_1M@BODBOGLF@?$AAn?$AAn?$AA?9?$AAN?$AAO@ 00000001801495e0     libucrt:lcidtoname_downlevel.obj
 0002:0000a5f0       ??_C@_1M@HFFAHKAD@?$AAp?$AAt?$AA?9?$AAP?$AAT@ 00000001801495f0     libucrt:lcidtoname_downlevel.obj
 0002:0000a600       ??_C@_1BG@LNOAKHIE@?$AAs?$AAr?$AA?9?$AAS?$AAP?$AA?9?$AAL?$AAa?$AAt?$AAn@ 0000000180149600     libucrt:lcidtoname_downlevel.obj
 0002:0000a618       ??_C@_1M@HBMHBGAK@?$AAs?$AAv?$AA?9?$AAF?$AAI@ 0000000180149618     libucrt:lcidtoname_downlevel.obj
 0002:0000a628       ??_C@_1BG@DGCJGJBE@?$AAa?$AAz?$AA?9?$AAA?$AAZ?$AA?9?$AAC?$AAy?$AAr?$AAl@ 0000000180149628     libucrt:lcidtoname_downlevel.obj
 0002:0000a640       ??_C@_1M@KEJDAAHB@?$AAs?$AAe?$AA?9?$AAS?$AAE@ 0000000180149640     libucrt:lcidtoname_downlevel.obj
 0002:0000a650       ??_C@_1M@HEIBJJAD@?$AAm?$AAs?$AA?9?$AAB?$AAN@ 0000000180149650     libucrt:lcidtoname_downlevel.obj
 0002:0000a660       ??_C@_1BG@PBGJMCEM@?$AAu?$AAz?$AA?9?$AAU?$AAZ?$AA?9?$AAC?$AAy?$AAr?$AAl@ 0000000180149660     libucrt:lcidtoname_downlevel.obj
 0002:0000a678       ??_C@_1O@LAOBCMDF@?$AAq?$AAu?$AAz?$AA?9?$AAE?$AAC@ 0000000180149678     libucrt:lcidtoname_downlevel.obj
 0002:0000a688       ??_C@_1M@POEEMAIO@?$AAa?$AAr?$AA?9?$AAE?$AAG@ 0000000180149688     libucrt:lcidtoname_downlevel.obj
 0002:0000a698       ??_C@_1M@EFAKDEDL@?$AAz?$AAh?$AA?9?$AAH?$AAK@ 0000000180149698     libucrt:lcidtoname_downlevel.obj
 0002:0000a6a8       ??_C@_1M@HKKIJHGI@?$AAd?$AAe?$AA?9?$AAA?$AAT@ 00000001801496a8     libucrt:lcidtoname_downlevel.obj
 0002:0000a6b8       ??_C@_1M@KBFBEHJF@?$AAe?$AAn?$AA?9?$AAA?$AAU@ 00000001801496b8     libucrt:lcidtoname_downlevel.obj
 0002:0000a6c8       ??_C@_1M@MNPLFAAH@?$AAe?$AAs?$AA?9?$AAE?$AAS@ 00000001801496c8     libucrt:lcidtoname_downlevel.obj
 0002:0000a6d8       ??_C@_1M@HJOOJFMA@?$AAf?$AAr?$AA?9?$AAC?$AAA@ 00000001801496d8     libucrt:lcidtoname_downlevel.obj
 0002:0000a6e8       ??_C@_1BG@JPOFPNAB@?$AAs?$AAr?$AA?9?$AAS?$AAP?$AA?9?$AAC?$AAy?$AAr?$AAl@ 00000001801496e8     libucrt:lcidtoname_downlevel.obj
 0002:0000a700       ??_C@_1M@LNFOCMOB@?$AAs?$AAe?$AA?9?$AAF?$AAI@ 0000000180149700     libucrt:lcidtoname_downlevel.obj
 0002:0000a710       ??_C@_1O@MGJBOAMB@?$AAq?$AAu?$AAz?$AA?9?$AAP?$AAE@ 0000000180149710     libucrt:lcidtoname_downlevel.obj
 0002:0000a720       ??_C@_1M@GJINLBOK@?$AAa?$AAr?$AA?9?$AAL?$AAY@ 0000000180149720     libucrt:lcidtoname_downlevel.obj
 0002:0000a730       ??_C@_1M@GGMNHJNL@?$AAz?$AAh?$AA?9?$AAS?$AAG@ 0000000180149730     libucrt:lcidtoname_downlevel.obj
 0002:0000a740       ??_C@_1M@HOIKODND@?$AAd?$AAe?$AA?9?$AAL?$AAU@ 0000000180149740     libucrt:lcidtoname_downlevel.obj
 0002:0000a750       ??_C@_1M@DDOCCGFG@?$AAe?$AAn?$AA?9?$AAC?$AAA@ 0000000180149750     libucrt:lcidtoname_downlevel.obj
 0002:0000a760       ??_C@_1M@BNOEMJLF@?$AAe?$AAs?$AA?9?$AAG?$AAT@ 0000000180149760     libucrt:lcidtoname_downlevel.obj
 0002:0000a770       ??_C@_1M@EOGNKEK@?$AAf?$AAr?$AA?9?$AAC?$AAH@ 0000000180149770     libucrt:lcidtoname_downlevel.obj
 0002:0000a780       ??_C@_1M@FLIDJFHL@?$AAh?$AAr?$AA?9?$AAB?$AAA@ 0000000180149780     libucrt:lcidtoname_downlevel.obj
 0002:0000a790       ??_C@_1O@FMCELNAJ@?$AAs?$AAm?$AAj?$AA?9?$AAN?$AAO@ 0000000180149790     libucrt:lcidtoname_downlevel.obj
 0002:0000a7a0       ??_C@_1M@JHGLJMGJ@?$AAa?$AAr?$AA?9?$AAD?$AAZ@ 00000001801497a0     libucrt:lcidtoname_downlevel.obj
 0002:0000a7b0       ??_C@_1M@JKKFDCNP@?$AAz?$AAh?$AA?9?$AAM?$AAO@ 00000001801497b0     libucrt:lcidtoname_downlevel.obj
 0002:0000a7c0       ??_C@_1M@GEEFALPE@?$AAd?$AAe?$AA?9?$AAL?$AAI@ 00000001801497c0     libucrt:lcidtoname_downlevel.obj
 0002:0000a7d0       ??_C@_1M@IGEOFBG@?$AAe?$AAn?$AA?9?$AAN?$AAZ@ 00000001801497d0     libucrt:lcidtoname_downlevel.obj
 0002:0000a7e0       ??_C@_1M@KDBONEHP@?$AAe?$AAs?$AA?9?$AAC?$AAR@ 00000001801497e0     libucrt:lcidtoname_downlevel.obj
 0002:0000a7f0       ??_C@_1M@FHMDOHNN@?$AAf?$AAr?$AA?9?$AAL?$AAU@ 00000001801497f0     libucrt:lcidtoname_downlevel.obj
 0002:0000a800       ??_C@_1BG@NFKKMAFG@?$AAb?$AAs?$AA?9?$AAB?$AAA?$AA?9?$AAL?$AAa?$AAt?$AAn@ 0000000180149800     libucrt:lcidtoname_downlevel.obj
 0002:0000a818       ??_C@_1O@IMNBEMCI@?$AAs?$AAm?$AAj?$AA?9?$AAS?$AAE@ 0000000180149818     libucrt:lcidtoname_downlevel.obj
 0002:0000a828       ??_C@_1M@DHHMBNDP@?$AAa?$AAr?$AA?9?$AAM?$AAA@ 0000000180149828     libucrt:lcidtoname_downlevel.obj
 0002:0000a838       ??_C@_1M@BNBLJCGH@?$AAe?$AAn?$AA?9?$AAI?$AAE@ 0000000180149838     libucrt:lcidtoname_downlevel.obj
 0002:0000a848       ??_C@_1M@GEPAFMDL@?$AAe?$AAs?$AA?9?$AAP?$AAA@ 0000000180149848     libucrt:lcidtoname_downlevel.obj
 0002:0000a858       ??_C@_1M@OJONDMDL@?$AAf?$AAr?$AA?9?$AAM?$AAC@ 0000000180149858     libucrt:lcidtoname_downlevel.obj
 0002:0000a868       ??_C@_1BG@OBCNFJB@?$AAs?$AAr?$AA?9?$AAB?$AAA?$AA?9?$AAL?$AAa?$AAt?$AAn@ 0000000180149868     libucrt:lcidtoname_downlevel.obj
 0002:0000a880       ??_C@_1O@KEMEEGPO@?$AAs?$AAm?$AAa?$AA?9?$AAN?$AAO@ 0000000180149880     libucrt:lcidtoname_downlevel.obj
 0002:0000a890       ??_C@_1M@ELMGFODK@?$AAa?$AAr?$AA?9?$AAT?$AAN@ 0000000180149890     libucrt:lcidtoname_downlevel.obj
 0002:0000a8a0       ??_C@_1M@BHDLHFAF@?$AAe?$AAn?$AA?9?$AAZ?$AAA@ 00000001801498a0     libucrt:lcidtoname_downlevel.obj
 0002:0000a8b0       ??_C@_1M@BMGIGLIF@?$AAe?$AAs?$AA?9?$AAD?$AAO@ 00000001801498b0     libucrt:lcidtoname_downlevel.obj
 0002:0000a8c0       ??_C@_1BG@CMBHIPBE@?$AAs?$AAr?$AA?9?$AAB?$AAA?$AA?9?$AAC?$AAy?$AAr?$AAl@ 00000001801498c0     libucrt:lcidtoname_downlevel.obj
 0002:0000a8d8       ??_C@_1O@HEDBLHNP@?$AAs?$AAm?$AAa?$AA?9?$AAS?$AAE@ 00000001801498d8     libucrt:lcidtoname_downlevel.obj
 0002:0000a8e8       ??_C@_1M@DAGCADIM@?$AAa?$AAr?$AA?9?$AAO?$AAM@ 00000001801498e8     libucrt:lcidtoname_downlevel.obj
 0002:0000a8f8       ??_C@_1M@FODLMICG@?$AAe?$AAn?$AA?9?$AAJ?$AAM@ 00000001801498f8     libucrt:lcidtoname_downlevel.obj
 0002:0000a908       ??_C@_1M@DNMLCIHB@?$AAe?$AAs?$AA?9?$AAV?$AAE@ 0000000180149908     libucrt:lcidtoname_downlevel.obj
 0002:0000a918       ??_C@_1O@EOKHMKJK@?$AAs?$AAm?$AAs?$AA?9?$AAF?$AAI@ 0000000180149918     libucrt:lcidtoname_downlevel.obj
 0002:0000a928       ??_C@_1M@CAFJMKOF@?$AAa?$AAr?$AA?9?$AAY?$AAE@ 0000000180149928     libucrt:lcidtoname_downlevel.obj
 0002:0000a938       ??_C@_1M@CBFHIJLI@?$AAe?$AAn?$AA?9?$AAC?$AAB@ 0000000180149938     libucrt:lcidtoname_downlevel.obj
 0002:0000a948       ??_C@_1M@BGNFLDN@?$AAe?$AAs?$AA?9?$AAC?$AAO@ 0000000180149948     libucrt:lcidtoname_downlevel.obj
 0002:0000a958       ??_C@_1O@JMPHMAMC@?$AAs?$AAm?$AAn?$AA?9?$AAF?$AAI@ 0000000180149958     libucrt:lcidtoname_downlevel.obj
 0002:0000a968       ??_C@_1M@JLANABKE@?$AAa?$AAr?$AA?9?$AAS?$AAY@ 0000000180149968     libucrt:lcidtoname_downlevel.obj
 0002:0000a978       ??_C@_1M@HPKGCFGN@?$AAe?$AAn?$AA?9?$AAB?$AAZ@ 0000000180149978     libucrt:lcidtoname_downlevel.obj
 0002:0000a988       ??_C@_1M@OLJCMLGM@?$AAe?$AAs?$AA?9?$AAP?$AAE@ 0000000180149988     libucrt:lcidtoname_downlevel.obj
 0002:0000a998       ??_C@_1M@MKKGFKLE@?$AAa?$AAr?$AA?9?$AAJ?$AAO@ 0000000180149998     libucrt:lcidtoname_downlevel.obj
 0002:0000a9a8       ??_C@_1M@EKPGLDNI@?$AAe?$AAn?$AA?9?$AAT?$AAT@ 00000001801499a8     libucrt:lcidtoname_downlevel.obj
 0002:0000a9b8       ??_C@_1M@OONGHFHE@?$AAe?$AAs?$AA?9?$AAA?$AAR@ 00000001801499b8     libucrt:lcidtoname_downlevel.obj
 0002:0000a9c8       ??_C@_1M@OOJFGBHE@?$AAa?$AAr?$AA?9?$AAL?$AAB@ 00000001801499c8     libucrt:lcidtoname_downlevel.obj
 0002:0000a9d8       ??_C@_1M@GCEJHNEG@?$AAe?$AAn?$AA?9?$AAZ?$AAW@ 00000001801499d8     libucrt:lcidtoname_downlevel.obj
 0002:0000a9e8       ??_C@_1M@JNOCAHJI@?$AAe?$AAs?$AA?9?$AAE?$AAC@ 00000001801499e8     libucrt:lcidtoname_downlevel.obj
 0002:0000a9f8       ??_C@_1M@JEFHPGGB@?$AAa?$AAr?$AA?9?$AAK?$AAW@ 00000001801499f8     libucrt:lcidtoname_downlevel.obj
 0002:0000aa08       ??_C@_1M@MLKIBJOJ@?$AAe?$AAn?$AA?9?$AAP?$AAH@ 0000000180149a08     libucrt:lcidtoname_downlevel.obj
 0002:0000aa18       ??_C@_1M@BDNIPEND@?$AAe?$AAs?$AA?9?$AAC?$AAL@ 0000000180149a18     libucrt:lcidtoname_downlevel.obj
 0002:0000aa28       ??_C@_1M@MPNMEKBD@?$AAa?$AAr?$AA?9?$AAA?$AAE@ 0000000180149a28     libucrt:lcidtoname_downlevel.obj
 0002:0000aa38       ??_C@_1M@KBJALCPI@?$AAe?$AAs?$AA?9?$AAU?$AAY@ 0000000180149a38     libucrt:lcidtoname_downlevel.obj
 0002:0000aa48       ??_C@_1M@LLCCOAGA@?$AAa?$AAr?$AA?9?$AAB?$AAH@ 0000000180149a48     libucrt:lcidtoname_downlevel.obj
 0002:0000aa58       ??_C@_1M@PBFNCDEL@?$AAe?$AAs?$AA?9?$AAP?$AAY@ 0000000180149a58     libucrt:lcidtoname_downlevel.obj
 0002:0000aa68       ??_C@_1M@EDGINPNP@?$AAa?$AAr?$AA?9?$AAQ?$AAA@ 0000000180149a68     libucrt:lcidtoname_downlevel.obj
 0002:0000aa78       ??_C@_1M@MKDBIIJI@?$AAe?$AAs?$AA?9?$AAB?$AAO@ 0000000180149a78     libucrt:lcidtoname_downlevel.obj
 0002:0000aa88       ??_C@_1M@CPKKEBLD@?$AAe?$AAs?$AA?9?$AAS?$AAV@ 0000000180149a88     libucrt:lcidtoname_downlevel.obj
 0002:0000aa98       ??_C@_1M@NDBGMMJL@?$AAe?$AAs?$AA?9?$AAH?$AAN@ 0000000180149a98     libucrt:lcidtoname_downlevel.obj
 0002:0000aaa8       ??_C@_1M@JIJIBHDP@?$AAe?$AAs?$AA?9?$AAN?$AAI@ 0000000180149aa8     libucrt:lcidtoname_downlevel.obj
 0002:0000aab8       ??_C@_1M@CGFMKEEK@?$AAe?$AAs?$AA?9?$AAP?$AAR@ 0000000180149ab8     libucrt:lcidtoname_downlevel.obj
 0002:0000aac8       ??_C@_1O@ICJHKIIK@?$AAz?$AAh?$AA?9?$AAC?$AAH?$AAT@ 0000000180149ac8     libucrt:lcidtoname_downlevel.obj
 0002:0000aad8       ??_C@_15CLNEJCE@?$AAs?$AAr@ 0000000180149ad8     libucrt:lcidtoname_downlevel.obj
 0002:0000b920       ??_C@_1M@KAHEKEIG@?$AAa?$AAf?$AA?9?$AAz?$AAa@ 000000018014a920     libucrt:lcidtoname_downlevel.obj
 0002:0000b930       ??_C@_1M@GIECOABL@?$AAa?$AAr?$AA?9?$AAa?$AAe@ 000000018014a930     libucrt:lcidtoname_downlevel.obj
 0002:0000b940       ??_C@_1M@BMLMEKGI@?$AAa?$AAr?$AA?9?$AAb?$AAh@ 000000018014a940     libucrt:lcidtoname_downlevel.obj
 0002:0000b950       ??_C@_1M@DAPFDGGB@?$AAa?$AAr?$AA?9?$AAd?$AAz@ 000000018014a950     libucrt:lcidtoname_downlevel.obj
 0002:0000b960       ??_C@_1M@FJNKGKIG@?$AAa?$AAr?$AA?9?$AAe?$AAg@ 000000018014a960     libucrt:lcidtoname_downlevel.obj
 0002:0000b970       ??_C@_1M@FLGKKCLO@?$AAa?$AAr?$AA?9?$AAi?$AAq@ 000000018014a970     libucrt:lcidtoname_downlevel.obj
 0002:0000b980       ??_C@_1M@GNDIPALM@?$AAa?$AAr?$AA?9?$AAj?$AAo@ 000000018014a980     libucrt:lcidtoname_downlevel.obj
 0002:0000b990       ??_C@_1M@DDMJFMGJ@?$AAa?$AAr?$AA?9?$AAk?$AAw@ 000000018014a990     libucrt:lcidtoname_downlevel.obj
 0002:0000b9a0       ??_C@_1M@EJALMLHM@?$AAa?$AAr?$AA?9?$AAl?$AAb@ 000000018014a9a0     libucrt:lcidtoname_downlevel.obj
 0002:0000b9b0       ??_C@_1M@MOBDBLOC@?$AAa?$AAr?$AA?9?$AAl?$AAy@ 000000018014a9b0     libucrt:lcidtoname_downlevel.obj
 0002:0000b9c0       ??_C@_1M@JAOCLHDH@?$AAa?$AAr?$AA?9?$AAm?$AAa@ 000000018014a9c0     libucrt:lcidtoname_downlevel.obj
 0002:0000b9d0       ??_C@_1M@JHPMKJIE@?$AAa?$AAr?$AA?9?$AAo?$AAm@ 000000018014a9d0     libucrt:lcidtoname_downlevel.obj
 0002:0000b9e0       ??_C@_1M@OEPGHFNH@?$AAa?$AAr?$AA?9?$AAq?$AAa@ 000000018014a9e0     libucrt:lcidtoname_downlevel.obj
 0002:0000b9f0       ??_C@_1M@KJDONENM@?$AAa?$AAr?$AA?9?$AAs?$AAa@ 000000018014a9f0     libucrt:lcidtoname_downlevel.obj
 0002:0000ba00       ??_C@_1M@DMJDKLKM@?$AAa?$AAr?$AA?9?$AAs?$AAy@ 000000018014aa00     libucrt:lcidtoname_downlevel.obj
 0002:0000ba10       ??_C@_1M@OMFIPEDC@?$AAa?$AAr?$AA?9?$AAt?$AAn@ 000000018014aa10     libucrt:lcidtoname_downlevel.obj
 0002:0000ba20       ??_C@_1M@IHMHGAON@?$AAa?$AAr?$AA?9?$AAy?$AAe@ 000000018014aa20     libucrt:lcidtoname_downlevel.obj
 0002:0000ba30       ??_C@_1BG@KDCPGJGB@?$AAa?$AAz?$AA?9?$AAa?$AAz?$AA?9?$AAc?$AAy?$AAr?$AAl@ 000000018014aa30     libucrt:lcidtoname_downlevel.obj
 0002:0000ba48       ??_C@_1BG@IBCKDDOE@?$AAa?$AAz?$AA?9?$AAa?$AAz?$AA?9?$AAl?$AAa?$AAt?$AAn@ 000000018014aa48     libucrt:lcidtoname_downlevel.obj
 0002:0000ba60       ??_C@_1M@EGPFDCPD@?$AAb?$AAe?$AA?9?$AAb?$AAy@ 000000018014aa60     libucrt:lcidtoname_downlevel.obj
 0002:0000ba70       ??_C@_1M@PCMGMCGC@?$AAb?$AAg?$AA?9?$AAb?$AAg@ 000000018014aa70     libucrt:lcidtoname_downlevel.obj
 0002:0000ba80       ??_C@_1M@BJBMFGOB@?$AAb?$AAn?$AA?9?$AAi?$AAn@ 000000018014aa80     libucrt:lcidtoname_downlevel.obj
 0002:0000ba90       ??_C@_1BG@EAKMMACD@?$AAb?$AAs?$AA?9?$AAb?$AAa?$AA?9?$AAl?$AAa?$AAt?$AAn@ 000000018014aa90     libucrt:lcidtoname_downlevel.obj
 0002:0000baa8       ??_C@_1M@KGADAODK@?$AAc?$AAa?$AA?9?$AAe?$AAs@ 000000018014aaa8     libucrt:lcidtoname_downlevel.obj
 0002:0000bab8       ??_C@_1M@COAJPDHI@?$AAc?$AAs?$AA?9?$AAc?$AAz@ 000000018014aab8     libucrt:lcidtoname_downlevel.obj
 0002:0000bac8       ??_C@_1M@DHBHFONH@?$AAc?$AAy?$AA?9?$AAg?$AAb@ 000000018014aac8     libucrt:lcidtoname_downlevel.obj
 0002:0000bad8       ??_C@_1M@IMGKELGA@?$AAd?$AAa?$AA?9?$AAd?$AAk@ 000000018014aad8     libucrt:lcidtoname_downlevel.obj
 0002:0000bae8       ??_C@_1M@NNDGDNGA@?$AAd?$AAe?$AA?9?$AAa?$AAt@ 000000018014aae8     libucrt:lcidtoname_downlevel.obj
 0002:0000baf8       ??_C@_1M@IKDBHEEM@?$AAd?$AAe?$AA?9?$AAc?$AAh@ 000000018014aaf8     libucrt:lcidtoname_downlevel.obj
 0002:0000bb08       ??_C@_1M@GFFOJMCJ@?$AAd?$AAe?$AA?9?$AAd?$AAe@ 000000018014ab08     libucrt:lcidtoname_downlevel.obj
 0002:0000bb18       ??_C@_1M@MDNLKBPM@?$AAd?$AAe?$AA?9?$AAl?$AAi@ 000000018014ab18     libucrt:lcidtoname_downlevel.obj
 0002:0000bb28       ??_C@_1M@NJBEEJNL@?$AAd?$AAe?$AA?9?$AAl?$AAu@ 000000018014ab28     libucrt:lcidtoname_downlevel.obj
 0002:0000bb38       ??_C@_1O@GNNELBAP@?$AAd?$AAi?$AAv?$AA?9?$AAm?$AAv@ 000000018014ab38     libucrt:lcidtoname_downlevel.obj
 0002:0000bb48       ??_C@_1M@EJLEOGAE@?$AAe?$AAl?$AA?9?$AAg?$AAr@ 000000018014ab48     libucrt:lcidtoname_downlevel.obj
 0002:0000bb58       ??_C@_1M@GMPONJN@?$AAe?$AAn?$AA?9?$AAa?$AAu@ 000000018014ab58     libucrt:lcidtoname_downlevel.obj
 0002:0000bb68       ??_C@_1M@NIDIIPGF@?$AAe?$AAn?$AA?9?$AAb?$AAz@ 000000018014ab68     libucrt:lcidtoname_downlevel.obj
 0002:0000bb78       ??_C@_1M@JEHMIMFO@?$AAe?$AAn?$AA?9?$AAc?$AAa@ 000000018014ab78     libucrt:lcidtoname_downlevel.obj
 0002:0000bb88       ??_C@_1M@IGMJCDLA@?$AAe?$AAn?$AA?9?$AAc?$AAb@ 000000018014ab88     libucrt:lcidtoname_downlevel.obj
 0002:0000bb98       ??_C@_1M@BNFIGBKG@?$AAe?$AAn?$AA?9?$AAg?$AAb@ 000000018014ab98     libucrt:lcidtoname_downlevel.obj
 0002:0000bba8       ??_C@_1M@LKIFDIGP@?$AAe?$AAn?$AA?9?$AAi?$AAe@ 000000018014aba8     libucrt:lcidtoname_downlevel.obj
 0002:0000bbb8       ??_C@_1M@PJKFGCCO@?$AAe?$AAn?$AA?9?$AAj?$AAm@ 000000018014abb8     libucrt:lcidtoname_downlevel.obj
 0002:0000bbc8       ??_C@_1M@KPPKEPBO@?$AAe?$AAn?$AA?9?$AAn?$AAz@ 000000018014abc8     libucrt:lcidtoname_downlevel.obj
 0002:0000bbd8       ??_C@_1M@GMDGLDOB@?$AAe?$AAn?$AA?9?$AAp?$AAh@ 000000018014abd8     libucrt:lcidtoname_downlevel.obj
 0002:0000bbe8       ??_C@_1M@ONGIBJNA@?$AAe?$AAn?$AA?9?$AAt?$AAt@ 000000018014abe8     libucrt:lcidtoname_downlevel.obj
 0002:0000bbf8       ??_C@_1M@LLODPCMM@?$AAe?$AAn?$AA?9?$AAu?$AAs@ 000000018014abf8     libucrt:lcidtoname_downlevel.obj
 0002:0000bc08       ??_C@_1M@LAKFNPAN@?$AAe?$AAn?$AA?9?$AAz?$AAa@ 000000018014ac08     libucrt:lcidtoname_downlevel.obj
 0002:0000bc18       ??_C@_1M@MFNHNHEO@?$AAe?$AAn?$AA?9?$AAz?$AAw@ 000000018014ac18     libucrt:lcidtoname_downlevel.obj
 0002:0000bc28       ??_C@_1M@EJEINPHM@?$AAe?$AAs?$AA?9?$AAa?$AAr@ 000000018014ac28     libucrt:lcidtoname_downlevel.obj
 0002:0000bc38       ??_C@_1M@GNKPCCJA@?$AAe?$AAs?$AA?9?$AAb?$AAo@ 000000018014ac38     libucrt:lcidtoname_downlevel.obj
 0002:0000bc48       ??_C@_1M@LEEGFONL@?$AAe?$AAs?$AA?9?$AAc?$AAl@ 000000018014ac48     libucrt:lcidtoname_downlevel.obj
 0002:0000bc58       ??_C@_1M@KGPDPBDF@?$AAe?$AAs?$AA?9?$AAc?$AAo@ 000000018014ac58     libucrt:lcidtoname_downlevel.obj
 0002:0000bc68       ??_C@_1M@EIAHOHH@?$AAe?$AAs?$AA?9?$AAc?$AAr@ 000000018014ac68     libucrt:lcidtoname_downlevel.obj
 0002:0000bc78       ??_C@_1M@LLPGMBIN@?$AAe?$AAs?$AA?9?$AAd?$AAo@ 000000018014ac78     libucrt:lcidtoname_downlevel.obj
 0002:0000bc88       ??_C@_1M@DKHMKNJA@?$AAe?$AAs?$AA?9?$AAe?$AAc@ 000000018014ac88     libucrt:lcidtoname_downlevel.obj
 0002:0000bc98       ??_C@_1M@GKGFPKAP@?$AAe?$AAs?$AA?9?$AAe?$AAs@ 000000018014ac98     libucrt:lcidtoname_downlevel.obj
 0002:0000bca8       ??_C@_1M@LKHKGDLN@?$AAe?$AAs?$AA?9?$AAg?$AAt@ 000000018014aca8     libucrt:lcidtoname_downlevel.obj
 0002:0000bcb8       ??_C@_1M@HEIIGGJD@?$AAe?$AAs?$AA?9?$AAh?$AAn@ 000000018014acb8     libucrt:lcidtoname_downlevel.obj
 0002:0000bcc8       ??_C@_1M@FBDHPPGD@?$AAe?$AAs?$AA?9?$AAm?$AAx@ 000000018014acc8     libucrt:lcidtoname_downlevel.obj
 0002:0000bcd8       ??_C@_1M@DPAGLNDH@?$AAe?$AAs?$AA?9?$AAn?$AAi@ 000000018014acd8     libucrt:lcidtoname_downlevel.obj
 0002:0000bce8       ??_C@_1M@MDGOPGDD@?$AAe?$AAs?$AA?9?$AAp?$AAa@ 000000018014ace8     libucrt:lcidtoname_downlevel.obj
 0002:0000bcf8       ??_C@_1M@EMAMGBGE@?$AAe?$AAs?$AA?9?$AAp?$AAe@ 000000018014acf8     libucrt:lcidtoname_downlevel.obj
 0002:0000bd08       ??_C@_1M@IBMCAOEC@?$AAe?$AAs?$AA?9?$AAp?$AAr@ 000000018014ad08     libucrt:lcidtoname_downlevel.obj
 0002:0000bd18       ??_C@_1M@FGMDIJED@?$AAe?$AAs?$AA?9?$AAp?$AAy@ 000000018014ad18     libucrt:lcidtoname_downlevel.obj
 0002:0000bd28       ??_C@_1M@IIDEOLLL@?$AAe?$AAs?$AA?9?$AAs?$AAv@ 000000018014ad28     libucrt:lcidtoname_downlevel.obj
 0002:0000bd38       ??_C@_1M@GAOBIPA@?$AAe?$AAs?$AA?9?$AAu?$AAy@ 000000018014ad38     libucrt:lcidtoname_downlevel.obj
 0002:0000bd48       ??_C@_1M@JKFFICHJ@?$AAe?$AAs?$AA?9?$AAv?$AAe@ 000000018014ad48     libucrt:lcidtoname_downlevel.obj
 0002:0000bd58       ??_C@_1M@PNMLOJDF@?$AAe?$AAt?$AA?9?$AAe?$AAe@ 000000018014ad58     libucrt:lcidtoname_downlevel.obj
 0002:0000bd68       ??_C@_1M@GHHLIKEI@?$AAe?$AAu?$AA?9?$AAe?$AAs@ 000000018014ad68     libucrt:lcidtoname_downlevel.obj
 0002:0000bd78       ??_C@_1M@PBNONODE@?$AAf?$AAa?$AA?9?$AAi?$AAr@ 000000018014ad78     libucrt:lcidtoname_downlevel.obj
 0002:0000bd88       ??_C@_1M@JEEHPMIL@?$AAf?$AAi?$AA?9?$AAf?$AAi@ 000000018014ad88     libucrt:lcidtoname_downlevel.obj
 0002:0000bd98       ??_C@_1M@LMDCNDBA@?$AAf?$AAo?$AA?9?$AAf?$AAo@ 000000018014ad98     libucrt:lcidtoname_downlevel.obj
 0002:0000bda8       ??_C@_1M@JKEOHLDK@?$AAf?$AAr?$AA?9?$AAb?$AAe@ 000000018014ada8     libucrt:lcidtoname_downlevel.obj
 0002:0000bdb8       ??_C@_1M@NOHADPMI@?$AAf?$AAr?$AA?9?$AAc?$AAa@ 000000018014adb8     libucrt:lcidtoname_downlevel.obj
 0002:0000bdc8       ??_C@_1M@KDHIHAEC@?$AAf?$AAr?$AA?9?$AAc?$AAh@ 000000018014adc8     libucrt:lcidtoname_downlevel.obj
 0002:0000bdd8       ??_C@_1M@MMBBFGAK@?$AAf?$AAr?$AA?9?$AAf?$AAr@ 000000018014add8     libucrt:lcidtoname_downlevel.obj
 0002:0000bde8       ??_C@_1M@PAFNENNF@?$AAf?$AAr?$AA?9?$AAl?$AAu@ 000000018014ade8     libucrt:lcidtoname_downlevel.obj
 0002:0000bdf8       ??_C@_1M@EOHDJGDD@?$AAf?$AAr?$AA?9?$AAm?$AAc@ 000000018014adf8     libucrt:lcidtoname_downlevel.obj
 0002:0000be08       ??_C@_1M@FAPLLOPF@?$AAg?$AAl?$AA?9?$AAe?$AAs@ 000000018014ae08     libucrt:lcidtoname_downlevel.obj
 0002:0000be18       ??_C@_1M@FOPBFLOO@?$AAg?$AAu?$AA?9?$AAi?$AAn@ 000000018014ae18     libucrt:lcidtoname_downlevel.obj
 0002:0000be28       ??_C@_1M@KBMCINPM@?$AAh?$AAe?$AA?9?$AAi?$AAl@ 000000018014ae28     libucrt:lcidtoname_downlevel.obj
 0002:0000be38       ??_C@_1M@BBPHKFPJ@?$AAh?$AAi?$AA?9?$AAi?$AAn@ 000000018014ae38     libucrt:lcidtoname_downlevel.obj
 0002:0000be48       ??_C@_1M@PMBNDPHD@?$AAh?$AAr?$AA?9?$AAb?$AAa@ 000000018014ae48     libucrt:lcidtoname_downlevel.obj
 0002:0000be58       ??_C@_1M@BPCKOEGE@?$AAh?$AAr?$AA?9?$AAh?$AAr@ 000000018014ae58     libucrt:lcidtoname_downlevel.obj
 0002:0000be68       ??_C@_1M@GACBMHKE@?$AAh?$AAu?$AA?9?$AAh?$AAu@ 000000018014ae68     libucrt:lcidtoname_downlevel.obj
 0002:0000be78       ??_C@_1M@MILPAJJC@?$AAh?$AAy?$AA?9?$AAa?$AAm@ 000000018014ae78     libucrt:lcidtoname_downlevel.obj
 0002:0000be88       ??_C@_1M@BABBICEC@?$AAi?$AAd?$AA?9?$AAi?$AAd@ 000000018014ae88     libucrt:lcidtoname_downlevel.obj
 0002:0000be98       ??_C@_1M@BIKNHHPF@?$AAi?$AAs?$AA?9?$AAi?$AAs@ 000000018014ae98     libucrt:lcidtoname_downlevel.obj
 0002:0000bea8       ??_C@_1M@NMPCJPHE@?$AAi?$AAt?$AA?9?$AAc?$AAh@ 000000018014aea8     libucrt:lcidtoname_downlevel.obj
 0002:0000beb8       ??_C@_1M@GHKGFEDF@?$AAi?$AAt?$AA?9?$AAi?$AAt@ 000000018014aeb8     libucrt:lcidtoname_downlevel.obj
 0002:0000bec8       ??_C@_1M@NIEJCJJA@?$AAj?$AAa?$AA?9?$AAj?$AAp@ 000000018014aec8     libucrt:lcidtoname_downlevel.obj
 0002:0000bed8       ??_C@_1M@JILFNBIM@?$AAk?$AAa?$AA?9?$AAg?$AAe@ 000000018014aed8     libucrt:lcidtoname_downlevel.obj
 0002:0000bee8       ??_C@_1M@PACPMGPH@?$AAk?$AAk?$AA?9?$AAk?$AAz@ 000000018014aee8     libucrt:lcidtoname_downlevel.obj
 0002:0000bef8       ??_C@_1M@IELFGMHA@?$AAk?$AAn?$AA?9?$AAi?$AAn@ 000000018014aef8     libucrt:lcidtoname_downlevel.obj
 0002:0000bf08       ??_C@_1O@IBBJHCH@?$AAk?$AAo?$AAk?$AA?9?$AAi?$AAn@ 000000018014af08     libucrt:lcidtoname_downlevel.obj
 0002:0000bf18       ??_C@_1M@DMHAEOGC@?$AAk?$AAo?$AA?9?$AAk?$AAr@ 000000018014af18     libucrt:lcidtoname_downlevel.obj
 0002:0000bf28       ??_C@_1M@HBAHBIGA@?$AAk?$AAy?$AA?9?$AAk?$AAg@ 000000018014af28     libucrt:lcidtoname_downlevel.obj
 0002:0000bf38       ??_C@_1M@KPMILCJG@?$AAl?$AAt?$AA?9?$AAl?$AAt@ 000000018014af38     libucrt:lcidtoname_downlevel.obj
 0002:0000bf48       ??_C@_1M@BDEKKCA@?$AAl?$AAv?$AA?9?$AAl?$AAv@ 000000018014af48     libucrt:lcidtoname_downlevel.obj
 0002:0000bf58       ??_C@_1M@ELCKCCJJ@?$AAm?$AAi?$AA?9?$AAn?$AAz@ 000000018014af58     libucrt:lcidtoname_downlevel.obj
 0002:0000bf68       ??_C@_1M@CBOOLAPA@?$AAm?$AAk?$AA?9?$AAm?$AAk@ 000000018014af68     libucrt:lcidtoname_downlevel.obj
 0002:0000bf78       ??_C@_1M@GPHNBJKN@?$AAm?$AAl?$AA?9?$AAi?$AAn@ 000000018014af78     libucrt:lcidtoname_downlevel.obj
 0002:0000bf88       ??_C@_1M@PABJILIG@?$AAm?$AAn?$AA?9?$AAm?$AAn@ 000000018014af88     libucrt:lcidtoname_downlevel.obj
 0002:0000bf98       ??_C@_1M@FGBKKIPG@?$AAm?$AAr?$AA?9?$AAi?$AAn@ 000000018014af98     libucrt:lcidtoname_downlevel.obj
 0002:0000bfa8       ??_C@_1M@NDBPDDAL@?$AAm?$AAs?$AA?9?$AAb?$AAn@ 000000018014afa8     libucrt:lcidtoname_downlevel.obj
 0002:0000bfb8       ??_C@_1M@OPIHOOPI@?$AAm?$AAs?$AA?9?$AAm?$AAy@ 000000018014afb8     libucrt:lcidtoname_downlevel.obj
 0002:0000bfc8       ??_C@_1M@PPDBCNFM@?$AAm?$AAt?$AA?9?$AAm?$AAt@ 000000018014afc8     libucrt:lcidtoname_downlevel.obj
 0002:0000bfd8       ??_C@_1M@KDJDKMDD@?$AAn?$AAb?$AA?9?$AAn?$AAo@ 000000018014afd8     libucrt:lcidtoname_downlevel.obj
 0002:0000bfe8       ??_C@_1M@KFCFLMJP@?$AAn?$AAl?$AA?9?$AAb?$AAe@ 000000018014afe8     libucrt:lcidtoname_downlevel.obj
 0002:0000bff8       ??_C@_1M@KPOPDDGO@?$AAn?$AAl?$AA?9?$AAn?$AAl@ 000000018014aff8     libucrt:lcidtoname_downlevel.obj
 0002:0000c008       ??_C@_1M@LJKPEMLN@?$AAn?$AAn?$AA?9?$AAn?$AAo@ 000000018014b008     libucrt:lcidtoname_downlevel.obj
 0002:0000c018       ??_C@_1M@BDGHHBFL@?$AAn?$AAs?$AA?9?$AAz?$AAa@ 000000018014b018     libucrt:lcidtoname_downlevel.obj
 0002:0000c028       ??_C@_1M@IDEHOAP@?$AAp?$AAa?$AA?9?$AAi?$AAn@ 000000018014b028     libucrt:lcidtoname_downlevel.obj
 0002:0000c038       ??_C@_1M@HDBKGOGH@?$AAp?$AAl?$AA?9?$AAp?$AAl@ 000000018014b038     libucrt:lcidtoname_downlevel.obj
 0002:0000c048       ??_C@_1M@LJLLCMEH@?$AAp?$AAt?$AA?9?$AAb?$AAr@ 000000018014b048     libucrt:lcidtoname_downlevel.obj
 0002:0000c058       ??_C@_1M@NCMONAAL@?$AAp?$AAt?$AA?9?$AAp?$AAt@ 000000018014b058     libucrt:lcidtoname_downlevel.obj
 0002:0000c068       ??_C@_1O@EAKMAJDN@?$AAq?$AAu?$AAz?$AA?9?$AAb?$AAo@ 000000018014b068     libucrt:lcidtoname_downlevel.obj
 0002:0000c078       ??_C@_1O@BHHPIGDN@?$AAq?$AAu?$AAz?$AA?9?$AAe?$AAc@ 000000018014b078     libucrt:lcidtoname_downlevel.obj
 0002:0000c088       ??_C@_1O@GBAPEKMJ@?$AAq?$AAu?$AAz?$AA?9?$AAp?$AAe@ 000000018014b088     libucrt:lcidtoname_downlevel.obj
 0002:0000c098       ??_C@_1M@CLGLEFBO@?$AAr?$AAo?$AA?9?$AAr?$AAo@ 000000018014b098     libucrt:lcidtoname_downlevel.obj
 0002:0000c0a8       ??_C@_1M@CEEDODME@?$AAr?$AAu?$AA?9?$AAr?$AAu@ 000000018014b0a8     libucrt:lcidtoname_downlevel.obj
 0002:0000c0b8       ??_C@_1M@HPKKKMPP@?$AAs?$AAa?$AA?9?$AAi?$AAn@ 000000018014b0b8     libucrt:lcidtoname_downlevel.obj
 0002:0000c0c8       ??_C@_1M@BKMAIGOJ@?$AAs?$AAe?$AA?9?$AAf?$AAi@ 000000018014b0c8     libucrt:lcidtoname_downlevel.obj
 0002:0000c0d8       ??_C@_1M@NDPIFLFI@?$AAs?$AAe?$AA?9?$AAn?$AAo@ 000000018014b0d8     libucrt:lcidtoname_downlevel.obj
 0002:0000c0e8       ??_C@_1M@DANKKHJ@?$AAs?$AAe?$AA?9?$AAs?$AAe@ 000000018014b0e8     libucrt:lcidtoname_downlevel.obj
 0002:0000c0f8       ??_C@_1M@PNBLONPJ@?$AAs?$AAk?$AA?9?$AAs?$AAk@ 000000018014b0f8     libucrt:lcidtoname_downlevel.obj
 0002:0000c108       ??_C@_1M@LFMODOAL@?$AAs?$AAl?$AA?9?$AAs?$AAi@ 000000018014b108     libucrt:lcidtoname_downlevel.obj
 0002:0000c118       ??_C@_1O@DFKOMPG@?$AAs?$AAm?$AAa?$AA?9?$AAn?$AAo@ 000000018014b118     libucrt:lcidtoname_downlevel.obj
 0002:0000c128       ??_C@_1O@NDKPBNNH@?$AAs?$AAm?$AAa?$AA?9?$AAs?$AAe@ 000000018014b128     libucrt:lcidtoname_downlevel.obj
 0002:0000c138       ??_C@_1O@PLLKBHAB@?$AAs?$AAm?$AAj?$AA?9?$AAn?$AAo@ 000000018014b138     libucrt:lcidtoname_downlevel.obj
 0002:0000c148       ??_C@_1O@CLEPOGCA@?$AAs?$AAm?$AAj?$AA?9?$AAs?$AAe@ 000000018014b148     libucrt:lcidtoname_downlevel.obj
 0002:0000c158       ??_C@_1O@DLGJGKMK@?$AAs?$AAm?$AAn?$AA?9?$AAf?$AAi@ 000000018014b158     libucrt:lcidtoname_downlevel.obj
 0002:0000c168       ??_C@_1O@OJDJGAJC@?$AAs?$AAm?$AAs?$AA?9?$AAf?$AAi@ 000000018014b168     libucrt:lcidtoname_downlevel.obj
 0002:0000c178       ??_C@_1M@BOFOGHPB@?$AAs?$AAq?$AA?9?$AAa?$AAl@ 000000018014b178     libucrt:lcidtoname_downlevel.obj
 0002:0000c188       ??_C@_1BG@LJBBIPGB@?$AAs?$AAr?$AA?9?$AAb?$AAa?$AA?9?$AAc?$AAy?$AAr?$AAl@ 000000018014b188     libucrt:lcidtoname_downlevel.obj
 0002:0000c1a0       ??_C@_1BG@JLBENFOE@?$AAs?$AAr?$AA?9?$AAb?$AAa?$AA?9?$AAl?$AAa?$AAt?$AAn@ 000000018014b1a0     libucrt:lcidtoname_downlevel.obj
 0002:0000c1b8       ??_C@_1BG@KODPNHE@?$AAs?$AAr?$AA?9?$AAs?$AAp?$AA?9?$AAc?$AAy?$AAr?$AAl@ 000000018014b1b8     libucrt:lcidtoname_downlevel.obj
 0002:0000c1d0       ??_C@_1BG@CIOGKHPB@?$AAs?$AAr?$AA?9?$AAs?$AAp?$AA?9?$AAl?$AAa?$AAt?$AAn@ 000000018014b1d0     libucrt:lcidtoname_downlevel.obj
 0002:0000c1e8       ??_C@_1M@NGFJLMAC@?$AAs?$AAv?$AA?9?$AAf?$AAi@ 000000018014b1e8     libucrt:lcidtoname_downlevel.obj
 0002:0000c1f8       ??_C@_1M@MPJEJAJC@?$AAs?$AAv?$AA?9?$AAs?$AAe@ 000000018014b1f8     libucrt:lcidtoname_downlevel.obj
 0002:0000c208       ??_C@_1M@MPNDHLFK@?$AAs?$AAw?$AA?9?$AAk?$AAe@ 000000018014b208     libucrt:lcidtoname_downlevel.obj
 0002:0000c218       ??_C@_1O@KOHBJJI@?$AAs?$AAy?$AAr?$AA?9?$AAs?$AAy@ 000000018014b218     libucrt:lcidtoname_downlevel.obj
 0002:0000c228       ??_C@_1M@LDCEFHA@?$AAt?$AAa?$AA?9?$AAi?$AAn@ 000000018014b228     libucrt:lcidtoname_downlevel.obj
 0002:0000c238       ??_C@_1M@CNJOFAK@?$AAt?$AAe?$AA?9?$AAi?$AAn@ 000000018014b238     libucrt:lcidtoname_downlevel.obj
 0002:0000c248       ??_C@_1M@GNAECACD@?$AAt?$AAh?$AA?9?$AAt?$AAh@ 000000018014b248     libucrt:lcidtoname_downlevel.obj
 0002:0000c258       ??_C@_1M@CHBIHOJO@?$AAt?$AAn?$AA?9?$AAz?$AAa@ 000000018014b258     libucrt:lcidtoname_downlevel.obj
 0002:0000c268       ??_C@_1M@GCCMIGPJ@?$AAt?$AAr?$AA?9?$AAt?$AAr@ 000000018014b268     libucrt:lcidtoname_downlevel.obj
 0002:0000c278       ??_C@_1M@CELMCNBK@?$AAt?$AAt?$AA?9?$AAr?$AAu@ 000000018014b278     libucrt:lcidtoname_downlevel.obj
 0002:0000c288       ??_C@_1M@KLMCELGA@?$AAu?$AAk?$AA?9?$AAu?$AAa@ 000000018014b288     libucrt:lcidtoname_downlevel.obj
 0002:0000c298       ??_C@_1M@EPAJJAJF@?$AAu?$AAr?$AA?9?$AAp?$AAk@ 000000018014b298     libucrt:lcidtoname_downlevel.obj
 0002:0000c2a8       ??_C@_1BG@GEGPMCDJ@?$AAu?$AAz?$AA?9?$AAu?$AAz?$AA?9?$AAc?$AAy?$AAr?$AAl@ 000000018014b2a8     libucrt:lcidtoname_downlevel.obj
 0002:0000c2c0       ??_C@_1BG@EGGKJILM@?$AAu?$AAz?$AA?9?$AAu?$AAz?$AA?9?$AAl?$AAa?$AAt?$AAn@ 000000018014b2c0     libucrt:lcidtoname_downlevel.obj
 0002:0000c2d8       ??_C@_1M@GFOCLFF@?$AAv?$AAi?$AA?9?$AAv?$AAn@ 000000018014b2d8     libucrt:lcidtoname_downlevel.obj
 0002:0000c2e8       ??_C@_1M@CPAMEDFI@?$AAx?$AAh?$AA?9?$AAz?$AAa@ 000000018014b2e8     libucrt:lcidtoname_downlevel.obj
 0002:0000c2f8       ??_C@_1O@EBKIFIGN@?$AAz?$AAh?$AA?9?$AAc?$AAh?$AAs@ 000000018014b2f8     libucrt:lcidtoname_downlevel.obj
 0002:0000c308       ??_C@_1O@NMHPGANE@?$AAz?$AAh?$AA?9?$AAc?$AAh?$AAt@ 000000018014b308     libucrt:lcidtoname_downlevel.obj
 0002:0000c318       ??_C@_1M@LPINJOMC@?$AAz?$AAh?$AA?9?$AAc?$AAn@ 000000018014b318     libucrt:lcidtoname_downlevel.obj
 0002:0000c328       ??_C@_1M@OCJEJODD@?$AAz?$AAh?$AA?9?$AAh?$AAk@ 000000018014b328     libucrt:lcidtoname_downlevel.obj
 0002:0000c338       ??_C@_1M@DNDLJINH@?$AAz?$AAh?$AA?9?$AAm?$AAo@ 000000018014b338     libucrt:lcidtoname_downlevel.obj
 0002:0000c348       ??_C@_1M@MBFDNDND@?$AAz?$AAh?$AA?9?$AAs?$AAg@ 000000018014b348     libucrt:lcidtoname_downlevel.obj
 0002:0000c358       ??_C@_1M@IMEPLEPE@?$AAz?$AAh?$AA?9?$AAt?$AAw@ 000000018014b358     libucrt:lcidtoname_downlevel.obj
 0002:0000c368       ??_C@_1M@BBGHNHJP@?$AAz?$AAu?$AA?9?$AAz?$AAa@ 000000018014b368     libucrt:lcidtoname_downlevel.obj
 0002:0000c3a0       ?large_power_data@?1??multiply_by_power_of_ten@__crt_strtox@@YA_NAEAUbig_integer@2@I@Z@4QBIB 000000018014b3a0     libucrt:cfout.obj
 0002:0000ccb0       ?large_power_indices@?1??multiply_by_power_of_ten@__crt_strtox@@YA_NAEAUbig_integer@2@I@Z@4QBUunpack_index@?1??12@YA_N0I@Z@B 000000018014bcb0     libucrt:cfout.obj
 0002:0000cd48       ?small_powers_of_ten@?1??multiply_by_power_of_ten@__crt_strtox@@YA_NAEAUbig_integer@2@I@Z@4QBIB 000000018014bd48     libucrt:cfout.obj
 0002:0000cd6c       ??_C@_01GBGANLPD@0@        000000018014bd6c     libucrt:cfout.obj
 0002:0000cd70       ??_C@_05DNEBIAHO@1?$CDINF@ 000000018014bd70     libucrt:cfout.obj
 0002:0000cd78       ??_C@_06IMKFLFPG@1?$CDQNAN@ 000000018014bd78     libucrt:cfout.obj
 0002:0000cd80       ??_C@_06PGGFOGJG@1?$CDSNAN@ 000000018014bd80     libucrt:cfout.obj
 0002:0000cd88       ??_C@_05PHHOCPM@1?$CDIND@  000000018014bd88     libucrt:cfout.obj
 0002:0000cd90       __real@3ff0000000000000    000000018014bd90     libucrt:ceil.obj
 0002:0000cff0       ??_C@_1BA@BALFACEM@?$AAC?$AAO?$AAN?$AAO?$AAU?$AAT?$AA$@ 000000018014bff0     libucrt:initcon.obj
 0002:0000d000       __log10_256_lead           000000018014c000     libucrt:log10_256_lead_tail_table.obj
 0002:0000d810       __log10_256_tail           000000018014c810     libucrt:log10_256_lead_tail_table.obj
 0002:0000e020       __log_F_inv_qword          000000018014d020     libucrt:log_f_inv_qword_table.obj
 0002:0000ea00       ??_R4type_info@@6B@        000000018014da00     LIBCMT:std_type_info_static.obj
 0002:0000ea28       ??_R3type_info@@8          000000018014da28     LIBCMT:std_type_info_static.obj
 0002:0000ea40       ??_R2type_info@@8          000000018014da40     LIBCMT:std_type_info_static.obj
 0002:0000ea50       ??_R1A@?0A@EA@type_info@@8 000000018014da50     LIBCMT:std_type_info_static.obj
 0002:0000ea78       ??_R4DNameNode@@6B@        000000018014da78     libvcruntime:undname.obj
 0002:0000eaa0       ??_R3DNameNode@@8          000000018014daa0     libvcruntime:undname.obj
 0002:0000eab8       ??_R2DNameNode@@8          000000018014dab8     libvcruntime:undname.obj
 0002:0000eac8       ??_R1A@?0A@EA@DNameNode@@8 000000018014dac8     libvcruntime:undname.obj
 0002:0000eaf0       ??_R4charNode@@6B@         000000018014daf0     libvcruntime:undname.obj
 0002:0000eb18       ??_R3charNode@@8           000000018014db18     libvcruntime:undname.obj
 0002:0000eb30       ??_R2charNode@@8           000000018014db30     libvcruntime:undname.obj
 0002:0000eb48       ??_R1A@?0A@EA@charNode@@8  000000018014db48     libvcruntime:undname.obj
 0002:0000eb70       ??_R4pcharNode@@6B@        000000018014db70     libvcruntime:undname.obj
 0002:0000eb98       ??_R3pcharNode@@8          000000018014db98     libvcruntime:undname.obj
 0002:0000ebb0       ??_R2pcharNode@@8          000000018014dbb0     libvcruntime:undname.obj
 0002:0000ebc8       ??_R1A@?0A@EA@pcharNode@@8 000000018014dbc8     libvcruntime:undname.obj
 0002:0000ebf0       ??_R4pDNameNode@@6B@       000000018014dbf0     libvcruntime:undname.obj
 0002:0000ec18       ??_R3pDNameNode@@8         000000018014dc18     libvcruntime:undname.obj
 0002:0000ec30       ??_R2pDNameNode@@8         000000018014dc30     libvcruntime:undname.obj
 0002:0000ec48       ??_R1A@?0A@EA@pDNameNode@@8 000000018014dc48     libvcruntime:undname.obj
 0002:0000ec70       ??_R4DNameStatusNode@@6B@  000000018014dc70     libvcruntime:undname.obj
 0002:0000ec98       ??_R3DNameStatusNode@@8    000000018014dc98     libvcruntime:undname.obj
 0002:0000ecb0       ??_R2DNameStatusNode@@8    000000018014dcb0     libvcruntime:undname.obj
 0002:0000ecc8       ??_R1A@?0A@EA@DNameStatusNode@@8 000000018014dcc8     libvcruntime:undname.obj
 0002:0000ecf0       ??_R4pairNode@@6B@         000000018014dcf0     libvcruntime:undname.obj
 0002:0000ed18       ??_R3pairNode@@8           000000018014dd18     libvcruntime:undname.obj
 0002:0000ed30       ??_R2pairNode@@8           000000018014dd30     libvcruntime:undname.obj
 0002:0000ed48       ??_R1A@?0A@EA@pairNode@@8  000000018014dd48     libvcruntime:undname.obj
 0002:0000ed70       ??_R4exception@std@@6B@    000000018014dd70     libvcruntime:frame.obj
 0002:0000ed98       ??_R3exception@std@@8      000000018014dd98     libvcruntime:frame.obj
 0002:0000edb0       ??_R2exception@std@@8      000000018014ddb0     libvcruntime:frame.obj
 0002:0000edc0       ??_R1A@?0A@EA@exception@std@@8 000000018014ddc0     libvcruntime:frame.obj
 0002:0000ede8       ??_R4bad_exception@std@@6B@ 000000018014dde8     libvcruntime:frame.obj
 0002:0000ee10       ??_R3bad_exception@std@@8  000000018014de10     libvcruntime:frame.obj
 0002:0000ee28       ??_R2bad_exception@std@@8  000000018014de28     libvcruntime:frame.obj
 0002:0000ee40       ??_R1A@?0A@EA@bad_exception@std@@8 000000018014de40     libvcruntime:frame.obj
 0002:0000ee64       __volatile_metadata        000000018014de64     <linker-defined>
 0002:0000f4b0       __rtc_iaa                  000000018014e4b0     LIBCMT:initsect.obj
 0002:0000f4b8       __rtc_izz                  000000018014e4b8     LIBCMT:initsect.obj
 0002:0000f4c0       __rtc_taa                  000000018014e4c0     LIBCMT:initsect.obj
 0002:0000f4c8       __rtc_tzz                  000000018014e4c8     LIBCMT:initsect.obj
 0002:0001bdc0       _TI2?AVbad_exception@std@@ 000000018015adc0     libvcruntime:frame.obj
 0002:0001bde0       _CTA2?AVbad_exception@std@@ 000000018015ade0     libvcruntime:frame.obj
 0002:0001bdf8       _CT??_R0?AVbad_exception@std@@@8??0bad_exception@std@@QEAA@AEBV01@@Z24 000000018015adf8     libvcruntime:frame.obj
 0002:0001be20       _CT??_R0?AVexception@std@@@8??0exception@std@@QEAA@AEBV01@@Z24 000000018015ae20     libvcruntime:frame.obj
 0002:0001be44       __DELAY_IMPORT_DESCRIPTOR_physxfoundation_64_dll 000000018015ae44     PhysXFoundation_64:PhysXFoundation_64.dll
 0002:0001be64       __NULL_DELAY_IMPORT_DESCRIPTOR 000000018015ae64     PhysXFoundation_64:PhysXFoundation_64.dll
 0002:0001bf08       \177PhysXFoundation_64_NULL_THUNK_DATA_DLN 000000018015af08     PhysXFoundation_64:PhysXFoundation_64.dll
 0002:0001c230       \177PhysXFoundation_64_NULL_THUNK_DATA_DLB 000000018015b230     PhysXFoundation_64:PhysXFoundation_64.dll
 0002:0002649c       __IMPORT_DESCRIPTOR_KERNEL32 000000018016549c     kernel32:KERNEL32.dll
 0002:000264b0       __NULL_IMPORT_DESCRIPTOR   00000001801654b0     kernel32:KERNEL32.dll
 0003:00000000       __pfnDliNotifyHook2        0000000180166000     CmWindowsDelayLoadHook.obj
 0003:00000020       ?gGeomMTDMethodTable@@3PAY06P6A_NAEAVPxVec3@physx@@AEAMAEBVPxGeometry@2@AEBVPxTransform@2@23@ZA 0000000180166020     GuMTD.obj
 0003:000001b0       ?gGeomOverlapMethodTable@@3PAY06P6A_NAEBVPxGeometry@physx@@AEBVPxTransform@2@01PEAUTriggerCache@Gu@2@@ZA 00000001801661b0     GuOverlapTests.obj
 0003:00000338       ?gRaycastMap@@3PAP6AIAEBVPxGeometry@physx@@AEBVPxTransform@2@AEBVPxVec3@2@2MV?$PxFlags@W4Enum@PxHitFlag@physx@@G@2@IPEIAUPxRaycastHit@2@@ZA 0000000180166338     GuRaycastTests.obj
 0003:00000370       ?gGeomSweepFuncs@@3UGeomSweepFuncs@Gu@physx@@A 0000000180166370     GuSweepTests.obj
 0003:00000490       ?g_SweepMethodTable@Gu@physx@@3PAY06P6AMAEBUCCDShape@12@0AEBVPxTransform@2@111MAEAVPxVec3@2@2MAEAIM@ZA 0000000180166490     GuCCDSweepPrimitives.obj
 0003:00000618       ?g_TriangleSweepMethodTable@Gu@physx@@3PAP6AMAEBVGeometryUnion@12@0AEBVPxTransform@2@111MAEAVPxVec3@2@2AEBVFastVertex2ShapeScaling@Cm@2@AEAVTriangleV@12@M@ZA 0000000180166618     GuCCDSweepPrimitives.obj
 0003:00000a14       _fltused                   0000000180166a14     LIBCMT:fltused.obj
 0003:00000a20       __isa_available            0000000180166a20     LIBCMT:cpu_disp.obj
 0003:00000a24       __isa_enabled              0000000180166a24     LIBCMT:cpu_disp.obj
 0003:00000a28       __memset_fast_string_threshold 0000000180166a28     LIBCMT:cpu_disp.obj
 0003:00000a30       __memset_nt_threshold      0000000180166a30     LIBCMT:cpu_disp.obj
 0003:00000a38       __isa_inverted             0000000180166a38     LIBCMT:cpu_disp.obj
 0003:00000a40       __scrt_native_dllmain_reason 0000000180166a40     LIBCMT:utility.obj
 0003:00000a80       __security_cookie          0000000180166a80     LIBCMT:gs_cookie.obj
 0003:00000ac0       __security_cookie_complement 0000000180166ac0     LIBCMT:gs_cookie.obj
 0003:00000af0       __abort_behavior           0000000180166af0     libucrt:abort.obj
 0003:00000b20       __acrt_initial_multibyte_data 0000000180166b20     libucrt:mbctype.obj
 0003:00001060       __acrt_initial_locale_data 0000000180167060     libucrt:nlsdata.obj
 0003:000011b8       __acrt_initial_locale_pointers 00000001801671b8     libucrt:nlsdata.obj
 0003:000011c8       __acrt_wide_c_locale_string 00000001801671c8     libucrt:nlsdata.obj
 0003:000011d0       _iob                       00000001801671d0     libucrt:_file.obj
 0003:000012e0       __globallocalestatus       00000001801672e0     libucrt:glstatus.obj
 0003:000012f0       __acrt_lconv_c             00000001801672f0     libucrt:localeconv.obj
 0003:00001388       __acrt_lconv_static_decimal 0000000180167388     libucrt:localeconv.obj
 0003:0000138c       __acrt_lconv_static_W_decimal 000000018016738c     libucrt:localeconv.obj
 0003:00001390       _lookuptrailbytes          0000000180167390     libucrt:read.obj
 0003:000014a0       ??_R0?AVCollection@Cm@physx@@@8 00000001801674a0     CmCollection.obj
 0003:000014d0       ??_R0D@8                   00000001801674d0     CmRenderOutput.obj
 0003:000014e8       ??_R0?AUPxDebugText@physx@@@8 00000001801674e8     CmRenderOutput.obj
 0003:00001510       ??_R0?AUPxDebugTriangle@physx@@@8 0000000180167510     CmRenderOutput.obj
 0003:00001540       ??_R0?AUPxDebugLine@physx@@@8 0000000180167540     CmRenderOutput.obj
 0003:00001568       ??_R0?AUPxDebugPoint@physx@@@8 0000000180167568     CmRenderOutput.obj
 0003:00001598       ??_R0?AVBVHStructure@Gu@physx@@@8 0000000180167598     GuMeshFactory.obj
 0003:000015c8       ??_R0?AVHeightField@Gu@physx@@@8 00000001801675c8     GuMeshFactory.obj
 0003:000015f8       ??_R0?AVConvexMesh@Gu@physx@@@8 00000001801675f8     GuMeshFactory.obj
 0003:00001628       ??_R0?AVBV32Tree@Gu@physx@@@8 0000000180167628     GuMeshFactory.obj
 0003:00001650       ??_R0?AVBV4TriangleData@Gu@physx@@@8 0000000180167650     GuMeshFactory.obj
 0003:00001680       ??_R0?AVRTreeTriangleData@Gu@physx@@@8 0000000180167680     GuMeshFactory.obj
 0003:000016b8       ??_R0?AVBV4TriangleMesh@Gu@physx@@@8 00000001801676b8     GuMeshFactory.obj
 0003:000016e8       ??_R0?AVRTreeTriangleMesh@Gu@physx@@@8 00000001801676e8     GuMeshFactory.obj
 0003:00001720       ??_R0E@8                   0000000180167720     GuMeshFactory.obj
 0003:00001738       ??_R0G@8                   0000000180167738     GuMeshFactory.obj
 0003:00001750       ??_R0I@8                   0000000180167750     GuMeshFactory.obj
 0003:00001768       ??_R0?AVMutexImpl@shdfnd@physx@@@8 0000000180167768     GuMeshFactory.obj
 0003:00001798       ??_R0PEAVGuMeshFactoryListener@physx@@@8 0000000180167798     GuMeshFactory.obj
 0003:000017d0       ??_R0?AVAABBTreeBuildNode@Gu@physx@@@8 00000001801677d0     GuAABBTreeBuild.obj
 0003:00001808       ??_R0?AUSlab@NodeAllocator@Gu@physx@@@8 0000000180167808     GuAABBTreeBuild.obj
 0003:00001840       ??_R0PEBUBVHNode@Gu@physx@@@8 0000000180167840     GuBVHStructure.obj
 0003:00001868       ??_R0?AVBigConvexData@physx@@@8 0000000180167868     GuConvexMesh.obj
 0003:00001898       ??_R0?AVIndTri16@Gu@physx@@@8 0000000180167898     GuBV4.obj
 0003:000018c0       ??_R0?AVIndTri32@Gu@physx@@@8 00000001801678c0     GuBV4.obj
 0003:000018f0       ??_R0?AU?$BVDataPackedT@VQuantizedAABB@Gu@physx@@@Gu@physx@@@8 00000001801678f0     GuBV4Build.obj
 0003:00001940       ??_R0?AUSlab@BV4BuildParams@@@8 0000000180167940     GuBV4Build.obj
 0003:00001970       ??_R0?AVAABBTreeNode@Gu@physx@@@8 0000000180167970     GuBV4Build.obj
 0003:000019a0       ??_R0?AUBV32Data@Gu@physx@@@8 00000001801679a0     GuBV32Build.obj
 0003:000019c8       ??_R0?AUBV32Node@@@8       00000001801679c8     GuBV32Build.obj
 0003:000019e8       ??_R0?AUSortedTriangle@Gu@physx@@@8 00000001801679e8     GuPCMContactConvexCommon.obj
 0003:00001a18       ??_R0?AVbad_exception@std@@@8 0000000180167a18     libvcruntime:frame.obj
 0003:00001a40       ??_R0?AVexception@std@@@8  0000000180167a40     libvcruntime:frame.obj
 0003:00001a68       ??_R0?AVtype_info@@@8      0000000180167a68     LIBCMT:std_type_info_static.obj
 0003:00001a88       ??_R0?AVDNameNode@@@8      0000000180167a88     libvcruntime:undname.obj
 0003:00001aa8       ??_R0?AVcharNode@@@8       0000000180167aa8     libvcruntime:undname.obj
 0003:00001ac8       ??_R0?AVpcharNode@@@8      0000000180167ac8     libvcruntime:undname.obj
 0003:00001ae8       ??_R0?AVpDNameNode@@@8     0000000180167ae8     libvcruntime:undname.obj
 0003:00001b10       ??_R0?AVDNameStatusNode@@@8 0000000180167b10     libvcruntime:undname.obj
 0003:00001b38       ??_R0?AVpairNode@@@8       0000000180167b38     libvcruntime:undname.obj
 0003:00001b58       __imp_PxGetFoundation      0000000180167b58     PhysXFoundation_64:PhysXFoundation_64.dll
 0003:00001b60       __imp_?deallocate@TempAllocator@shdfnd@physx@@QEAAXPEAX@Z 0000000180167b60     PhysXFoundation_64:PhysXFoundation_64.dll
 0003:00001b68       __imp_?getAllocator@shdfnd@physx@@YAAEAVPxAllocatorCallback@2@XZ 0000000180167b68     PhysXFoundation_64:PhysXFoundation_64.dll
 0003:00001b70       __imp_?getInstance@Foundation@shdfnd@physx@@SAAEAV123@XZ 0000000180167b70     PhysXFoundation_64:PhysXFoundation_64.dll
 0003:00001b78       __imp_?error@Foundation@shdfnd@physx@@QEAAXW4Enum@PxErrorCode@3@PEBDH1ZZ 0000000180167b78     PhysXFoundation_64:PhysXFoundation_64.dll
 0003:00001b80       __imp_?vsnprintf@shdfnd@physx@@YAHPEAD_KPEBD0@Z 0000000180167b80     PhysXFoundation_64:PhysXFoundation_64.dll
 0003:00001b88       __imp_??0MutexImpl@shdfnd@physx@@QEAA@XZ 0000000180167b88     PhysXFoundation_64:PhysXFoundation_64.dll
 0003:00001b90       __imp_??1MutexImpl@shdfnd@physx@@QEAA@XZ 0000000180167b90     PhysXFoundation_64:PhysXFoundation_64.dll
 0003:00001b98       __imp_?lock@MutexImpl@shdfnd@physx@@QEAAXXZ 0000000180167b98     PhysXFoundation_64:PhysXFoundation_64.dll
 0003:00001ba0       __imp_?unlock@MutexImpl@shdfnd@physx@@QEAAXXZ 0000000180167ba0     PhysXFoundation_64:PhysXFoundation_64.dll
 0003:00001ba8       __imp_?getSize@MutexImpl@shdfnd@physx@@SAIXZ 0000000180167ba8     PhysXFoundation_64:PhysXFoundation_64.dll
 0003:00001bb0       __imp_?atomicDecrement@shdfnd@physx@@YAHPECH@Z 0000000180167bb0     PhysXFoundation_64:PhysXFoundation_64.dll
 0003:00001bb8       __imp_?PxTransformFromSegment@physx@@YA?AVPxTransform@1@AEBVPxVec3@1@0PEAM@Z 0000000180167bb8     PhysXFoundation_64:PhysXFoundation_64.dll
 0003:00001bc0       __imp_?optimizeBoundingBox@shdfnd@physx@@YA?AVPxVec3@2@AEAVPxMat33@2@@Z 0000000180167bc0     PhysXFoundation_64:PhysXFoundation_64.dll
 0003:00001bc8       __imp_?allocate@TempAllocator@shdfnd@physx@@QEAAPEAX_KPEBDH@Z 0000000180167bc8     PhysXFoundation_64:PhysXFoundation_64.dll
 0003:00001bd0       __imp_?atomicIncrement@shdfnd@physx@@YAHPECH@Z 0000000180167bd0     PhysXFoundation_64:PhysXFoundation_64.dll
 0003:00001bd8       \177PhysXFoundation_64_NULL_THUNK_DATA_DLA 0000000180167bd8     PhysXFoundation_64:PhysXFoundation_64.dll
 0003:00002970       ?boxVertexTable@physx@@3QBT__m128@@B 0000000180168970     GuConvexSupportTable.obj
 0003:000044c0       __hmod__PhysXFoundation_64_dll 000000018016a4c0     PhysXFoundation_64:PhysXFoundation_64.dll
 0003:000044c8       ?DloadKernel32@@3PEAUHINSTANCE__@@EA 000000018016a4c8     Delayimp:delayhlp.obj
 0003:000044d0       ?DloadAcquireSRWLockExclusive@@3P6AXPEA_K@ZEA 000000018016a4d0     Delayimp:delayhlp.obj
 0003:000044d8       ?DloadReleaseSRWLockExclusive@@3P6AXPEA_K@ZEA 000000018016a4d8     Delayimp:delayhlp.obj
 0003:000044e0       ?DloadSrwLock@@3_KA        000000018016a4e0     Delayimp:delayhlp.obj
 0003:000044e8       ?DloadSectionLockCount@@3KA 000000018016a4e8     Delayimp:delayhlp.obj
 0003:000044ec       ?DloadSectionOldProtection@@3KA 000000018016a4ec     Delayimp:delayhlp.obj
 0003:000044f0       ?DloadSectionCommitPermanent@@3KA 000000018016a4f0     Delayimp:delayhlp.obj
 0003:00004500       ?__type_info_root_node@@3U__type_info_node@@A 000000018016a500     LIBCMT:tncleanup.obj
 0003:00004514       __favor                    000000018016a514     LIBCMT:cpu_disp.obj
 0003:00004518       __avx10_version            000000018016a518     LIBCMT:cpu_disp.obj
 0003:00004520       ?_OptionsStorage@?1??__local_stdio_printf_options@@9@4_KA 000000018016a520     LIBCMT:default_local_stdio_options.obj
 0003:00004528       ?_OptionsStorage@?1??__local_stdio_scanf_options@@9@4_KA 000000018016a528     LIBCMT:default_local_stdio_options.obj
 0003:00004530       __scrt_current_native_startup_state 000000018016a530     LIBCMT:utility.obj
 0003:00004538       __scrt_native_startup_lock 000000018016a538     LIBCMT:utility.obj
 0003:00004578       __scrt_debugger_hook_flag  000000018016a578     LIBCMT:utility_desktop.obj
 0003:00004580       ?__WinRTOutOfMemoryExceptionCallback@@3P6APEAXXZEA 000000018016a580     libvcruntime:ehhelpers.obj
 0003:00004588       __pPurecall                000000018016a588     libvcruntime:purevirt_data.obj
 0003:000047a8       _environ_table             000000018016a7a8     libucrt:environment_initialization.obj
 0003:000047b0       _wenviron_table            000000018016a7b0     libucrt:environment_initialization.obj
 0003:000047b8       __dcrt_initial_wide_environment 000000018016a7b8     libucrt:environment_initialization.obj
 0003:000047c0       __dcrt_initial_narrow_environment 000000018016a7c0     libucrt:environment_initialization.obj
 0003:000047c8       __acrt_atexit_table        000000018016a7c8     libucrt:onexit.obj
 0003:000047e0       __acrt_at_quick_exit_table 000000018016a7e0     libucrt:onexit.obj
 0003:000047f8       __fma3_is_available        000000018016a7f8     libucrt:fma3_available.obj
 0003:000047fc       __use_fma3_lib             000000018016a7fc     libucrt:fma3_available.obj
 0003:00004a40       _mbctype                   000000018016aa40     libucrt:mbctype.obj
 0003:00004a48       _mbcasemap                 000000018016aa48     libucrt:mbctype.obj
 0003:00004a50       __acrt_current_multibyte_data 000000018016aa50     libucrt:mbctype.obj
 0003:00004a60       _pgmptr                    000000018016aa60     libucrt:argv_data.obj
 0003:00004a68       __argc                     000000018016aa68     libucrt:argv_data.obj
 0003:00004a70       __argv                     000000018016aa70     libucrt:argv_data.obj
 0003:00004a78       __wargv                    000000018016aa78     libucrt:argv_data.obj
 0003:00004a80       _acmdln                    000000018016aa80     libucrt:argv_data.obj
 0003:00004a88       _wcmdln                    000000018016aa88     libucrt:argv_data.obj
 0003:00004c38       __acrt_heap                000000018016ac38     libucrt:heap_handle.obj
 0003:00004c40       __pioinfo                  000000018016ac40     libucrt:ioinit.obj
 0003:00005040       _nhandle                   000000018016b040     libucrt:ioinit.obj
 0003:00005078       __acrt_current_locale_data 000000018016b078     libucrt:nlsdata.obj
 0003:00005080       _nstream                   000000018016b080     libucrt:_file.obj
 0003:00005088       __piob                     000000018016b088     libucrt:_file.obj
 0003:00005090       __acrt_stdout_buffer       000000018016b090     libucrt:_sftbuf.obj
 0003:00005098       __acrt_stderr_buffer       000000018016b098     libucrt:_sftbuf.obj
 0003:000050b0       __acrt_locale_changed_data 000000018016b0b0     libucrt:wsetlocale.obj
 0003:000050b8       __acrt_lconv_static_null   000000018016b0b8     libucrt:localeconv.obj
 0003:000050bc       __acrt_lconv_static_W_null 000000018016b0bc     libucrt:localeconv.obj
 0003:00005640       __scrt_ucrt_dll_is_in_use  000000018016b640     <common>
 0003:00005648       __dyn_tls_init_callback    000000018016b648     <common>
 0005:00000100       __common_ssin_reduction_data 0000000180174100     LIBCMT:svml_s_sin_data.obj
 0005:00000d00       __common_ssin_data         0000000180174d00     LIBCMT:svml_s_sin_data.obj

 entry point at        0001:0011b5cc

 Static symbols

 0000:ffe86000       .debug$S                   0000000180000000     PhysXCommon_64.exp
 0000:ffe86000       .debug$S                   0000000180000000     kernel32:KERNEL32.dll
 0000:ffe86000       .debug$S                   0000000180000000     kernel32:KERNEL32.dll
 0000:ffe86000       .debug$S                   0000000180000000     kernel32:KERNEL32.dll
 0000:ffe86000       .debug$S                   0000000180000000     kernel32:KERNEL32.dll
 0000:ffe86000       .debug$S                   0000000180000000     kernel32:KERNEL32.dll
 0000:ffe86000       .debug$S                   0000000180000000     kernel32:KERNEL32.dll
 0000:ffe86000       .debug$S                   0000000180000000     kernel32:KERNEL32.dll
 0000:ffe86000       .debug$S                   0000000180000000     kernel32:KERNEL32.dll
 0000:ffe86000       .debug$S                   0000000180000000     kernel32:KERNEL32.dll
 0000:ffe86000       .debug$S                   0000000180000000     kernel32:KERNEL32.dll
 0000:ffe86000       .debug$S                   0000000180000000     kernel32:KERNEL32.dll
 0000:ffe86000       .debug$S                   0000000180000000     kernel32:KERNEL32.dll
 0000:ffe86000       .debug$S                   0000000180000000     kernel32:KERNEL32.dll
 0000:ffe86000       .debug$S                   0000000180000000     kernel32:KERNEL32.dll
 0000:ffe86000       .debug$S                   0000000180000000     kernel32:KERNEL32.dll
 0000:ffe86000       .debug$S                   0000000180000000     kernel32:KERNEL32.dll
 0000:ffe86000       .debug$S                   0000000180000000     kernel32:KERNEL32.dll
 0000:ffe86000       .debug$S                   0000000180000000     kernel32:KERNEL32.dll
 0000:ffe86000       .debug$S                   0000000180000000     kernel32:KERNEL32.dll
 0000:ffe86000       .debug$S                   0000000180000000     kernel32:KERNEL32.dll
 0000:ffe86000       .debug$S                   0000000180000000     kernel32:KERNEL32.dll
 0000:ffe86000       .debug$S                   0000000180000000     kernel32:KERNEL32.dll
 0000:ffe86000       .debug$S                   0000000180000000     kernel32:KERNEL32.dll
 0000:ffe86000       .debug$S                   0000000180000000     kernel32:KERNEL32.dll
 0000:ffe86000       .debug$S                   0000000180000000     kernel32:KERNEL32.dll
 0000:ffe86000       .debug$S                   0000000180000000     kernel32:KERNEL32.dll
 0000:ffe86000       .debug$S                   0000000180000000     kernel32:KERNEL32.dll
 0000:ffe86000       .debug$S                   0000000180000000     kernel32:KERNEL32.dll
 0000:ffe86000       .debug$S                   0000000180000000     kernel32:KERNEL32.dll
 0000:ffe86000       .debug$S                   0000000180000000     kernel32:KERNEL32.dll
 0000:ffe86000       .debug$S                   0000000180000000     kernel32:KERNEL32.dll
 0000:ffe86000       .debug$S                   0000000180000000     kernel32:KERNEL32.dll
 0000:ffe86000       .debug$S                   0000000180000000     kernel32:KERNEL32.dll
 0000:ffe86000       .debug$S                   0000000180000000     kernel32:KERNEL32.dll
 0000:ffe86000       .debug$S                   0000000180000000     kernel32:KERNEL32.dll
 0000:ffe86000       .debug$S                   0000000180000000     kernel32:KERNEL32.dll
 0000:ffe86000       .debug$S                   0000000180000000     kernel32:KERNEL32.dll
 0000:ffe86000       .debug$S                   0000000180000000     kernel32:KERNEL32.dll
 0000:ffe86000       .debug$S                   0000000180000000     kernel32:KERNEL32.dll
 0000:ffe86000       .debug$S                   0000000180000000     kernel32:KERNEL32.dll
 0000:ffe86000       .debug$S                   0000000180000000     kernel32:KERNEL32.dll
 0000:ffe86000       .debug$S                   0000000180000000     kernel32:KERNEL32.dll
 0000:ffe86000       .debug$S                   0000000180000000     kernel32:KERNEL32.dll
 0000:ffe86000       .debug$S                   0000000180000000     kernel32:KERNEL32.dll
 0000:ffe86000       .debug$S                   0000000180000000     kernel32:KERNEL32.dll
 0000:ffe86000       .debug$S                   0000000180000000     kernel32:KERNEL32.dll
 0000:ffe86000       .debug$S                   0000000180000000     kernel32:KERNEL32.dll
 0000:ffe86000       .debug$S                   0000000180000000     kernel32:KERNEL32.dll
 0000:ffe86000       .debug$S                   0000000180000000     kernel32:KERNEL32.dll
 0000:ffe86000       .debug$S                   0000000180000000     kernel32:KERNEL32.dll
 0000:ffe86000       .debug$S                   0000000180000000     kernel32:KERNEL32.dll
 0000:ffe86000       .debug$S                   0000000180000000     kernel32:KERNEL32.dll
 0000:ffe86000       .debug$S                   0000000180000000     kernel32:KERNEL32.dll
 0000:ffe86000       .debug$S                   0000000180000000     kernel32:KERNEL32.dll
 0000:ffe86000       .debug$S                   0000000180000000     kernel32:KERNEL32.dll
 0000:ffe86000       .debug$S                   0000000180000000     kernel32:KERNEL32.dll
 0000:ffe86000       .debug$S                   0000000180000000     kernel32:KERNEL32.dll
 0000:ffe86000       .debug$S                   0000000180000000     kernel32:KERNEL32.dll
 0000:ffe86000       .debug$S                   0000000180000000     kernel32:KERNEL32.dll
 0000:ffe86000       .debug$S                   0000000180000000     kernel32:KERNEL32.dll
 0000:ffe86000       .debug$S                   0000000180000000     kernel32:KERNEL32.dll
 0000:ffe86000       .debug$S                   0000000180000000     kernel32:KERNEL32.dll
 0000:ffe86000       .debug$S                   0000000180000000     kernel32:KERNEL32.dll
 0000:ffe86000       .debug$S                   0000000180000000     kernel32:KERNEL32.dll
 0000:ffe86000       .debug$S                   0000000180000000     kernel32:KERNEL32.dll
 0000:ffe86000       .debug$S                   0000000180000000     kernel32:KERNEL32.dll
 0000:ffe86000       .debug$S                   0000000180000000     kernel32:KERNEL32.dll
 0000:ffe86000       .debug$S                   0000000180000000     kernel32:KERNEL32.dll
 0000:ffe86000       .debug$S                   0000000180000000     kernel32:KERNEL32.dll
 0000:ffe86000       .debug$S                   0000000180000000     kernel32:KERNEL32.dll
 0000:ffe86000       .debug$S                   0000000180000000     kernel32:KERNEL32.dll
 0000:ffe86000       .debug$S                   0000000180000000     kernel32:KERNEL32.dll
 0000:ffe86000       .debug$S                   0000000180000000     kernel32:KERNEL32.dll
 0000:ffe86000       .debug$S                   0000000180000000     kernel32:KERNEL32.dll
 0000:ffe86000       .debug$S                   0000000180000000     kernel32:KERNEL32.dll
 0000:ffe86000       .debug$S                   0000000180000000     kernel32:KERNEL32.dll
 0000:ffe86000       .debug$S                   0000000180000000     kernel32:KERNEL32.dll
 0000:ffe86000       .debug$S                   0000000180000000     kernel32:KERNEL32.dll
 0000:ffe86000       .debug$S                   0000000180000000     kernel32:KERNEL32.dll
 0000:ffe86000       .debug$S                   0000000180000000     kernel32:KERNEL32.dll
 0000:ffe86000       .debug$S                   0000000180000000     kernel32:KERNEL32.dll
 0000:ffe86000       .debug$S                   0000000180000000     kernel32:KERNEL32.dll
 0000:ffe86000       .debug$S                   0000000180000000     kernel32:KERNEL32.dll
 0000:ffe86000       .debug$S                   0000000180000000     kernel32:KERNEL32.dll
 0000:ffe86000       .debug$S                   0000000180000000     kernel32:KERNEL32.dll
 0000:ffe86000       .debug$S                   0000000180000000     kernel32:KERNEL32.dll
 0000:ffe86000       .debug$S                   0000000180000000     kernel32:KERNEL32.dll
 0000:ffe86000       .debug$S                   0000000180000000     kernel32:KERNEL32.dll
 0000:ffe86000       .debug$S                   0000000180000000     kernel32:KERNEL32.dll
 0000:ffe86000       .debug$S                   0000000180000000     kernel32:KERNEL32.dll
 0000:ffe86000       .debug$S                   0000000180000000     kernel32:KERNEL32.dll
 0000:ffe86000       .debug$S                   0000000180000000     kernel32:KERNEL32.dll
 0000:ffe86000       .debug$S                   0000000180000000     kernel32:KERNEL32.dll
 0000:ffe86000       .debug$S                   0000000180000000     kernel32:KERNEL32.dll
 0000:ffe86000       .debug$S                   0000000180000000     PhysXFoundation_64:PhysXFoundation_64.dll
 0000:ffe86000       .debug$S                   0000000180000000     PhysXFoundation_64:PhysXFoundation_64.dll
 0000:ffe86000       .debug$S                   0000000180000000     PhysXFoundation_64:PhysXFoundation_64.dll
 0000:ffe86000       .debug$S                   0000000180000000     PhysXFoundation_64:PhysXFoundation_64.dll
 0000:ffe86000       .debug$S                   0000000180000000     PhysXFoundation_64:PhysXFoundation_64.dll
 0000:ffe86000       .debug$S                   0000000180000000     PhysXFoundation_64:PhysXFoundation_64.dll
 0000:ffe86000       .debug$S                   0000000180000000     PhysXFoundation_64:PhysXFoundation_64.dll
 0000:ffe86000       .debug$S                   0000000180000000     PhysXFoundation_64:PhysXFoundation_64.dll
 0000:ffe86000       .debug$S                   0000000180000000     PhysXFoundation_64:PhysXFoundation_64.dll
 0000:ffe86000       .debug$S                   0000000180000000     PhysXFoundation_64:PhysXFoundation_64.dll
 0000:ffe86000       .debug$S                   0000000180000000     PhysXFoundation_64:PhysXFoundation_64.dll
 0000:ffe86000       .debug$S                   0000000180000000     PhysXFoundation_64:PhysXFoundation_64.dll
 0000:ffe86000       .debug$S                   0000000180000000     PhysXFoundation_64:PhysXFoundation_64.dll
 0000:ffe86000       .debug$S                   0000000180000000     PhysXFoundation_64:PhysXFoundation_64.dll
 0000:ffe86000       .debug$S                   0000000180000000     PhysXFoundation_64:PhysXFoundation_64.dll
 0000:ffe86000       .debug$S                   0000000180000000     PhysXFoundation_64:PhysXFoundation_64.dll
 0001:00000000       ??__EmaxFError@_VecMathTests@aos@shdfnd@physx@@YAXXZ 0000000180001000 f   GuBounds.obj
 0001:00000010       ??__EmaxV3Error@_VecMathTests@aos@shdfnd@physx@@YAXXZ 0000000180001010 f   GuBounds.obj
 0001:00000020       ??__EmaxV4Error@_VecMathTests@aos@shdfnd@physx@@YAXXZ 0000000180001020 f   GuBounds.obj
 0001:00000030       ??__EminFError@_VecMathTests@aos@shdfnd@physx@@YAXXZ 0000000180001030 f   GuBounds.obj
 0001:00000040       ??__EminV3Error@_VecMathTests@aos@shdfnd@physx@@YAXXZ 0000000180001040 f   GuBounds.obj
 0001:00000050       ??__EminV4Error@_VecMathTests@aos@shdfnd@physx@@YAXXZ 0000000180001050 f   GuBounds.obj
 0001:00000060       ??__EmaxFError@_VecMathTests@aos@shdfnd@physx@@YAXXZ 0000000180001060 f   GuBox.obj
 0001:00000070       ??__EmaxV3Error@_VecMathTests@aos@shdfnd@physx@@YAXXZ 0000000180001070 f   GuBox.obj
 0001:00000080       ??__EmaxV4Error@_VecMathTests@aos@shdfnd@physx@@YAXXZ 0000000180001080 f   GuBox.obj
 0001:00000090       ??__EminFError@_VecMathTests@aos@shdfnd@physx@@YAXXZ 0000000180001090 f   GuBox.obj
 0001:000000a0       ??__EminV3Error@_VecMathTests@aos@shdfnd@physx@@YAXXZ 00000001800010a0 f   GuBox.obj
 0001:000000b0       ??__EminV4Error@_VecMathTests@aos@shdfnd@physx@@YAXXZ 00000001800010b0 f   GuBox.obj
 0001:000000c0       ??__EmaxFError@_VecMathTests@aos@shdfnd@physx@@YAXXZ 00000001800010c0 f   GuCCTSweepTests.obj
 0001:000000d0       ??__EmaxV3Error@_VecMathTests@aos@shdfnd@physx@@YAXXZ 00000001800010d0 f   GuCCTSweepTests.obj
 0001:000000e0       ??__EmaxV4Error@_VecMathTests@aos@shdfnd@physx@@YAXXZ 00000001800010e0 f   GuCCTSweepTests.obj
 0001:000000f0       ??__EminFError@_VecMathTests@aos@shdfnd@physx@@YAXXZ 00000001800010f0 f   GuCCTSweepTests.obj
 0001:00000100       ??__EminV3Error@_VecMathTests@aos@shdfnd@physx@@YAXXZ 0000000180001100 f   GuCCTSweepTests.obj
 0001:00000110       ??__EminV4Error@_VecMathTests@aos@shdfnd@physx@@YAXXZ 0000000180001110 f   GuCCTSweepTests.obj
 0001:00000120       ??__EmaxFError@_VecMathTests@aos@shdfnd@physx@@YAXXZ 0000000180001120 f   GuGeometryQuery.obj
 0001:00000130       ??__EmaxV3Error@_VecMathTests@aos@shdfnd@physx@@YAXXZ 0000000180001130 f   GuGeometryQuery.obj
 0001:00000140       ??__EmaxV4Error@_VecMathTests@aos@shdfnd@physx@@YAXXZ 0000000180001140 f   GuGeometryQuery.obj
 0001:00000150       ??__EminFError@_VecMathTests@aos@shdfnd@physx@@YAXXZ 0000000180001150 f   GuGeometryQuery.obj
 0001:00000160       ??__EminV3Error@_VecMathTests@aos@shdfnd@physx@@YAXXZ 0000000180001160 f   GuGeometryQuery.obj
 0001:00000170       ??__EminV4Error@_VecMathTests@aos@shdfnd@physx@@YAXXZ 0000000180001170 f   GuGeometryQuery.obj
 0001:00000180       ??__EmaxFError@_VecMathTests@aos@shdfnd@physx@@YAXXZ 0000000180001180 f   GuGeometryUnion.obj
 0001:00000190       ??__EmaxV3Error@_VecMathTests@aos@shdfnd@physx@@YAXXZ 0000000180001190 f   GuGeometryUnion.obj
 0001:000001a0       ??__EmaxV4Error@_VecMathTests@aos@shdfnd@physx@@YAXXZ 00000001800011a0 f   GuGeometryUnion.obj
 0001:000001b0       ??__EminFError@_VecMathTests@aos@shdfnd@physx@@YAXXZ 00000001800011b0 f   GuGeometryUnion.obj
 0001:000001c0       ??__EminV3Error@_VecMathTests@aos@shdfnd@physx@@YAXXZ 00000001800011c0 f   GuGeometryUnion.obj
 0001:000001d0       ??__EminV4Error@_VecMathTests@aos@shdfnd@physx@@YAXXZ 00000001800011d0 f   GuGeometryUnion.obj
 0001:000001e0       ??__EmaxFError@_VecMathTests@aos@shdfnd@physx@@YAXXZ 00000001800011e0 f   GuInternal.obj
 0001:000001f0       ??__EmaxV3Error@_VecMathTests@aos@shdfnd@physx@@YAXXZ 00000001800011f0 f   GuInternal.obj
 0001:00000200       ??__EmaxV4Error@_VecMathTests@aos@shdfnd@physx@@YAXXZ 0000000180001200 f   GuInternal.obj
 0001:00000210       ??__EminFError@_VecMathTests@aos@shdfnd@physx@@YAXXZ 0000000180001210 f   GuInternal.obj
 0001:00000220       ??__EminV3Error@_VecMathTests@aos@shdfnd@physx@@YAXXZ 0000000180001220 f   GuInternal.obj
 0001:00000230       ??__EminV4Error@_VecMathTests@aos@shdfnd@physx@@YAXXZ 0000000180001230 f   GuInternal.obj
 0001:00000240       ??__EmaxFError@_VecMathTests@aos@shdfnd@physx@@YAXXZ 0000000180001240 f   GuMeshFactory.obj
 0001:00000250       ??__EmaxV3Error@_VecMathTests@aos@shdfnd@physx@@YAXXZ 0000000180001250 f   GuMeshFactory.obj
 0001:00000260       ??__EmaxV4Error@_VecMathTests@aos@shdfnd@physx@@YAXXZ 0000000180001260 f   GuMeshFactory.obj
 0001:00000270       ??__EminFError@_VecMathTests@aos@shdfnd@physx@@YAXXZ 0000000180001270 f   GuMeshFactory.obj
 0001:00000280       ??__EminV3Error@_VecMathTests@aos@shdfnd@physx@@YAXXZ 0000000180001280 f   GuMeshFactory.obj
 0001:00000290       ??__EminV4Error@_VecMathTests@aos@shdfnd@physx@@YAXXZ 0000000180001290 f   GuMeshFactory.obj
 0001:000002a0       ??__EmaxFError@_VecMathTests@aos@shdfnd@physx@@YAXXZ 00000001800012a0 f   GuMetaData.obj
 0001:000002b0       ??__EmaxV3Error@_VecMathTests@aos@shdfnd@physx@@YAXXZ 00000001800012b0 f   GuMetaData.obj
 0001:000002c0       ??__EmaxV4Error@_VecMathTests@aos@shdfnd@physx@@YAXXZ 00000001800012c0 f   GuMetaData.obj
 0001:000002d0       ??__EminFError@_VecMathTests@aos@shdfnd@physx@@YAXXZ 00000001800012d0 f   GuMetaData.obj
 0001:000002e0       ??__EminV3Error@_VecMathTests@aos@shdfnd@physx@@YAXXZ 00000001800012e0 f   GuMetaData.obj
 0001:000002f0       ??__EminV4Error@_VecMathTests@aos@shdfnd@physx@@YAXXZ 00000001800012f0 f   GuMetaData.obj
 0001:00000300       ??__EmaxFError@_VecMathTests@aos@shdfnd@physx@@YAXXZ 0000000180001300 f   GuMTD.obj
 0001:00000310       ??__EmaxV3Error@_VecMathTests@aos@shdfnd@physx@@YAXXZ 0000000180001310 f   GuMTD.obj
 0001:00000320       ??__EmaxV4Error@_VecMathTests@aos@shdfnd@physx@@YAXXZ 0000000180001320 f   GuMTD.obj
 0001:00000330       ??__EminFError@_VecMathTests@aos@shdfnd@physx@@YAXXZ 0000000180001330 f   GuMTD.obj
 0001:00000340       ??__EminV3Error@_VecMathTests@aos@shdfnd@physx@@YAXXZ 0000000180001340 f   GuMTD.obj
 0001:00000350       ??__EminV4Error@_VecMathTests@aos@shdfnd@physx@@YAXXZ 0000000180001350 f   GuMTD.obj
 0001:00000360       ??__EmaxFError@_VecMathTests@aos@shdfnd@physx@@YAXXZ 0000000180001360 f   GuOverlapTests.obj
 0001:00000370       ??__EmaxV3Error@_VecMathTests@aos@shdfnd@physx@@YAXXZ 0000000180001370 f   GuOverlapTests.obj
 0001:00000380       ??__EmaxV4Error@_VecMathTests@aos@shdfnd@physx@@YAXXZ 0000000180001380 f   GuOverlapTests.obj
 0001:00000390       ??__EminFError@_VecMathTests@aos@shdfnd@physx@@YAXXZ 0000000180001390 f   GuOverlapTests.obj
 0001:000003a0       ??__EminV3Error@_VecMathTests@aos@shdfnd@physx@@YAXXZ 00000001800013a0 f   GuOverlapTests.obj
 0001:000003b0       ??__EminV4Error@_VecMathTests@aos@shdfnd@physx@@YAXXZ 00000001800013b0 f   GuOverlapTests.obj
 0001:000003c0       ??__EmaxFError@_VecMathTests@aos@shdfnd@physx@@YAXXZ 00000001800013c0 f   GuRaycastTests.obj
 0001:000003d0       ??__EmaxV3Error@_VecMathTests@aos@shdfnd@physx@@YAXXZ 00000001800013d0 f   GuRaycastTests.obj
 0001:000003e0       ??__EmaxV4Error@_VecMathTests@aos@shdfnd@physx@@YAXXZ 00000001800013e0 f   GuRaycastTests.obj
 0001:000003f0       ??__EminFError@_VecMathTests@aos@shdfnd@physx@@YAXXZ 00000001800013f0 f   GuRaycastTests.obj
 0001:00000400       ??__EminV3Error@_VecMathTests@aos@shdfnd@physx@@YAXXZ 0000000180001400 f   GuRaycastTests.obj
 0001:00000410       ??__EminV4Error@_VecMathTests@aos@shdfnd@physx@@YAXXZ 0000000180001410 f   GuRaycastTests.obj
 0001:00000420       ??__EmaxFError@_VecMathTests@aos@shdfnd@physx@@YAXXZ 0000000180001420 f   GuSweepMTD.obj
 0001:00000430       ??__EmaxV3Error@_VecMathTests@aos@shdfnd@physx@@YAXXZ 0000000180001430 f   GuSweepMTD.obj
 0001:00000440       ??__EmaxV4Error@_VecMathTests@aos@shdfnd@physx@@YAXXZ 0000000180001440 f   GuSweepMTD.obj
 0001:00000450       ??__EminFError@_VecMathTests@aos@shdfnd@physx@@YAXXZ 0000000180001450 f   GuSweepMTD.obj
 0001:00000460       ??__EminV3Error@_VecMathTests@aos@shdfnd@physx@@YAXXZ 0000000180001460 f   GuSweepMTD.obj
 0001:00000470       ??__EminV4Error@_VecMathTests@aos@shdfnd@physx@@YAXXZ 0000000180001470 f   GuSweepMTD.obj
 0001:00000480       ??__EmaxFError@_VecMathTests@aos@shdfnd@physx@@YAXXZ 0000000180001480 f   GuSweepSharedTests.obj
 0001:00000490       ??__EmaxV3Error@_VecMathTests@aos@shdfnd@physx@@YAXXZ 0000000180001490 f   GuSweepSharedTests.obj
 0001:000004a0       ??__EmaxV4Error@_VecMathTests@aos@shdfnd@physx@@YAXXZ 00000001800014a0 f   GuSweepSharedTests.obj
 0001:000004b0       ??__EminFError@_VecMathTests@aos@shdfnd@physx@@YAXXZ 00000001800014b0 f   GuSweepSharedTests.obj
 0001:000004c0       ??__EminV3Error@_VecMathTests@aos@shdfnd@physx@@YAXXZ 00000001800014c0 f   GuSweepSharedTests.obj
 0001:000004d0       ??__EminV4Error@_VecMathTests@aos@shdfnd@physx@@YAXXZ 00000001800014d0 f   GuSweepSharedTests.obj
 0001:000004e0       ??__EmaxFError@_VecMathTests@aos@shdfnd@physx@@YAXXZ 00000001800014e0 f   GuSweepTests.obj
 0001:000004f0       ??__EmaxV3Error@_VecMathTests@aos@shdfnd@physx@@YAXXZ 00000001800014f0 f   GuSweepTests.obj
 0001:00000500       ??__EmaxV4Error@_VecMathTests@aos@shdfnd@physx@@YAXXZ 0000000180001500 f   GuSweepTests.obj
 0001:00000510       ??__EminFError@_VecMathTests@aos@shdfnd@physx@@YAXXZ 0000000180001510 f   GuSweepTests.obj
 0001:00000520       ??__EminV3Error@_VecMathTests@aos@shdfnd@physx@@YAXXZ 0000000180001520 f   GuSweepTests.obj
 0001:00000530       ??__EminV4Error@_VecMathTests@aos@shdfnd@physx@@YAXXZ 0000000180001530 f   GuSweepTests.obj
 0001:00000540       ??__EmaxFError@_VecMathTests@aos@shdfnd@physx@@YAXXZ 0000000180001540 f   GuAABBTreeBuild.obj
 0001:00000550       ??__EmaxV3Error@_VecMathTests@aos@shdfnd@physx@@YAXXZ 0000000180001550 f   GuAABBTreeBuild.obj
 0001:00000560       ??__EmaxV4Error@_VecMathTests@aos@shdfnd@physx@@YAXXZ 0000000180001560 f   GuAABBTreeBuild.obj
 0001:00000570       ??__EminFError@_VecMathTests@aos@shdfnd@physx@@YAXXZ 0000000180001570 f   GuAABBTreeBuild.obj
 0001:00000580       ??__EminV3Error@_VecMathTests@aos@shdfnd@physx@@YAXXZ 0000000180001580 f   GuAABBTreeBuild.obj
 0001:00000590       ??__EminV4Error@_VecMathTests@aos@shdfnd@physx@@YAXXZ 0000000180001590 f   GuAABBTreeBuild.obj
 0001:000005a0       ??__EmaxFError@_VecMathTests@aos@shdfnd@physx@@YAXXZ 00000001800015a0 f   GuBVHStructure.obj
 0001:000005b0       ??__EmaxV3Error@_VecMathTests@aos@shdfnd@physx@@YAXXZ 00000001800015b0 f   GuBVHStructure.obj
 0001:000005c0       ??__EmaxV4Error@_VecMathTests@aos@shdfnd@physx@@YAXXZ 00000001800015c0 f   GuBVHStructure.obj
 0001:000005d0       ??__EminFError@_VecMathTests@aos@shdfnd@physx@@YAXXZ 00000001800015d0 f   GuBVHStructure.obj
 0001:000005e0       ??__EminV3Error@_VecMathTests@aos@shdfnd@physx@@YAXXZ 00000001800015e0 f   GuBVHStructure.obj
 0001:000005f0       ??__EminV4Error@_VecMathTests@aos@shdfnd@physx@@YAXXZ 00000001800015f0 f   GuBVHStructure.obj
 0001:00000600       ??__EmaxFError@_VecMathTests@aos@shdfnd@physx@@YAXXZ 0000000180001600 f   GuCCDSweepConvexMesh.obj
 0001:00000610       ??__EmaxV3Error@_VecMathTests@aos@shdfnd@physx@@YAXXZ 0000000180001610 f   GuCCDSweepConvexMesh.obj
 0001:00000620       ??__EmaxV4Error@_VecMathTests@aos@shdfnd@physx@@YAXXZ 0000000180001620 f   GuCCDSweepConvexMesh.obj
 0001:00000630       ??__EminFError@_VecMathTests@aos@shdfnd@physx@@YAXXZ 0000000180001630 f   GuCCDSweepConvexMesh.obj
 0001:00000640       ??__EminV3Error@_VecMathTests@aos@shdfnd@physx@@YAXXZ 0000000180001640 f   GuCCDSweepConvexMesh.obj
 0001:00000650       ??__EminV4Error@_VecMathTests@aos@shdfnd@physx@@YAXXZ 0000000180001650 f   GuCCDSweepConvexMesh.obj
 0001:00000660       ??__EmaxFError@_VecMathTests@aos@shdfnd@physx@@YAXXZ 0000000180001660 f   GuCCDSweepPrimitives.obj
 0001:00000670       ??__EmaxV3Error@_VecMathTests@aos@shdfnd@physx@@YAXXZ 0000000180001670 f   GuCCDSweepPrimitives.obj
 0001:00000680       ??__EmaxV4Error@_VecMathTests@aos@shdfnd@physx@@YAXXZ 0000000180001680 f   GuCCDSweepPrimitives.obj
 0001:00000690       ??__EminFError@_VecMathTests@aos@shdfnd@physx@@YAXXZ 0000000180001690 f   GuCCDSweepPrimitives.obj
 0001:000006a0       ??__EminV3Error@_VecMathTests@aos@shdfnd@physx@@YAXXZ 00000001800016a0 f   GuCCDSweepPrimitives.obj
 0001:000006b0       ??__EminV4Error@_VecMathTests@aos@shdfnd@physx@@YAXXZ 00000001800016b0 f   GuCCDSweepPrimitives.obj
 0001:000006c0       ??__EmaxFError@_VecMathTests@aos@shdfnd@physx@@YAXXZ 00000001800016c0 f   GuBarycentricCoordinates.obj
 0001:000006d0       ??__EmaxV3Error@_VecMathTests@aos@shdfnd@physx@@YAXXZ 00000001800016d0 f   GuBarycentricCoordinates.obj
 0001:000006e0       ??__EmaxV4Error@_VecMathTests@aos@shdfnd@physx@@YAXXZ 00000001800016e0 f   GuBarycentricCoordinates.obj
 0001:000006f0       ??__EminFError@_VecMathTests@aos@shdfnd@physx@@YAXXZ 00000001800016f0 f   GuBarycentricCoordinates.obj
 0001:00000700       ??__EminV3Error@_VecMathTests@aos@shdfnd@physx@@YAXXZ 0000000180001700 f   GuBarycentricCoordinates.obj
 0001:00000710       ??__EminV4Error@_VecMathTests@aos@shdfnd@physx@@YAXXZ 0000000180001710 f   GuBarycentricCoordinates.obj
 0001:00000720       ??__EmaxFError@_VecMathTests@aos@shdfnd@physx@@YAXXZ 0000000180001720 f   GuContactBoxBox.obj
 0001:00000730       ??__EmaxV3Error@_VecMathTests@aos@shdfnd@physx@@YAXXZ 0000000180001730 f   GuContactBoxBox.obj
 0001:00000740       ??__EmaxV4Error@_VecMathTests@aos@shdfnd@physx@@YAXXZ 0000000180001740 f   GuContactBoxBox.obj
 0001:00000750       ??__EminFError@_VecMathTests@aos@shdfnd@physx@@YAXXZ 0000000180001750 f   GuContactBoxBox.obj
 0001:00000760       ??__EminV3Error@_VecMathTests@aos@shdfnd@physx@@YAXXZ 0000000180001760 f   GuContactBoxBox.obj
 0001:00000770       ??__EminV4Error@_VecMathTests@aos@shdfnd@physx@@YAXXZ 0000000180001770 f   GuContactBoxBox.obj
 0001:00000780       ??__EmaxFError@_VecMathTests@aos@shdfnd@physx@@YAXXZ 0000000180001780 f   GuContactCapsuleBox.obj
 0001:00000790       ??__EmaxV3Error@_VecMathTests@aos@shdfnd@physx@@YAXXZ 0000000180001790 f   GuContactCapsuleBox.obj
 0001:000007a0       ??__EmaxV4Error@_VecMathTests@aos@shdfnd@physx@@YAXXZ 00000001800017a0 f   GuContactCapsuleBox.obj
 0001:000007b0       ??__EminFError@_VecMathTests@aos@shdfnd@physx@@YAXXZ 00000001800017b0 f   GuContactCapsuleBox.obj
 0001:000007c0       ??__EminV3Error@_VecMathTests@aos@shdfnd@physx@@YAXXZ 00000001800017c0 f   GuContactCapsuleBox.obj
 0001:000007d0       ??__EminV4Error@_VecMathTests@aos@shdfnd@physx@@YAXXZ 00000001800017d0 f   GuContactCapsuleBox.obj
 0001:000007e0       ??__EmaxFError@_VecMathTests@aos@shdfnd@physx@@YAXXZ 00000001800017e0 f   GuContactCapsuleCapsule.obj
 0001:000007f0       ??__EmaxV3Error@_VecMathTests@aos@shdfnd@physx@@YAXXZ 00000001800017f0 f   GuContactCapsuleCapsule.obj
 0001:00000800       ??__EmaxV4Error@_VecMathTests@aos@shdfnd@physx@@YAXXZ 0000000180001800 f   GuContactCapsuleCapsule.obj
 0001:00000810       ??__EminFError@_VecMathTests@aos@shdfnd@physx@@YAXXZ 0000000180001810 f   GuContactCapsuleCapsule.obj
 0001:00000820       ??__EminV3Error@_VecMathTests@aos@shdfnd@physx@@YAXXZ 0000000180001820 f   GuContactCapsuleCapsule.obj
 0001:00000830       ??__EminV4Error@_VecMathTests@aos@shdfnd@physx@@YAXXZ 0000000180001830 f   GuContactCapsuleCapsule.obj
 0001:00000840       ??__EmaxFError@_VecMathTests@aos@shdfnd@physx@@YAXXZ 0000000180001840 f   GuContactCapsuleConvex.obj
 0001:00000850       ??__EmaxV3Error@_VecMathTests@aos@shdfnd@physx@@YAXXZ 0000000180001850 f   GuContactCapsuleConvex.obj
 0001:00000860       ??__EmaxV4Error@_VecMathTests@aos@shdfnd@physx@@YAXXZ 0000000180001860 f   GuContactCapsuleConvex.obj
 0001:00000870       ??__EminFError@_VecMathTests@aos@shdfnd@physx@@YAXXZ 0000000180001870 f   GuContactCapsuleConvex.obj
 0001:00000880       ??__EminV3Error@_VecMathTests@aos@shdfnd@physx@@YAXXZ 0000000180001880 f   GuContactCapsuleConvex.obj
 0001:00000890       ??__EminV4Error@_VecMathTests@aos@shdfnd@physx@@YAXXZ 0000000180001890 f   GuContactCapsuleConvex.obj
 0001:000008a0       ??__EmaxFError@_VecMathTests@aos@shdfnd@physx@@YAXXZ 00000001800018a0 f   GuContactCapsuleMesh.obj
 0001:000008b0       ??__EmaxV3Error@_VecMathTests@aos@shdfnd@physx@@YAXXZ 00000001800018b0 f   GuContactCapsuleMesh.obj
 0001:000008c0       ??__EmaxV4Error@_VecMathTests@aos@shdfnd@physx@@YAXXZ 00000001800018c0 f   GuContactCapsuleMesh.obj
 0001:000008d0       ??__EminFError@_VecMathTests@aos@shdfnd@physx@@YAXXZ 00000001800018d0 f   GuContactCapsuleMesh.obj
 0001:000008e0       ??__EminV3Error@_VecMathTests@aos@shdfnd@physx@@YAXXZ 00000001800018e0 f   GuContactCapsuleMesh.obj
 0001:000008f0       ??__EminV4Error@_VecMathTests@aos@shdfnd@physx@@YAXXZ 00000001800018f0 f   GuContactCapsuleMesh.obj
 0001:00000900       ??__EmaxFError@_VecMathTests@aos@shdfnd@physx@@YAXXZ 0000000180001900 f   GuContactConvexConvex.obj
 0001:00000910       ??__EmaxV3Error@_VecMathTests@aos@shdfnd@physx@@YAXXZ 0000000180001910 f   GuContactConvexConvex.obj
 0001:00000920       ??__EmaxV4Error@_VecMathTests@aos@shdfnd@physx@@YAXXZ 0000000180001920 f   GuContactConvexConvex.obj
 0001:00000930       ??__EminFError@_VecMathTests@aos@shdfnd@physx@@YAXXZ 0000000180001930 f   GuContactConvexConvex.obj
 0001:00000940       ??__EminV3Error@_VecMathTests@aos@shdfnd@physx@@YAXXZ 0000000180001940 f   GuContactConvexConvex.obj
 0001:00000950       ??__EminV4Error@_VecMathTests@aos@shdfnd@physx@@YAXXZ 0000000180001950 f   GuContactConvexConvex.obj
 0001:00000960       ??__EmaxFError@_VecMathTests@aos@shdfnd@physx@@YAXXZ 0000000180001960 f   GuContactConvexMesh.obj
 0001:00000970       ??__EmaxV3Error@_VecMathTests@aos@shdfnd@physx@@YAXXZ 0000000180001970 f   GuContactConvexMesh.obj
 0001:00000980       ??__EmaxV4Error@_VecMathTests@aos@shdfnd@physx@@YAXXZ 0000000180001980 f   GuContactConvexMesh.obj
 0001:00000990       ??__EminFError@_VecMathTests@aos@shdfnd@physx@@YAXXZ 0000000180001990 f   GuContactConvexMesh.obj
 0001:000009a0       ??__EminV3Error@_VecMathTests@aos@shdfnd@physx@@YAXXZ 00000001800019a0 f   GuContactConvexMesh.obj
 0001:000009b0       ??__EminV4Error@_VecMathTests@aos@shdfnd@physx@@YAXXZ 00000001800019b0 f   GuContactConvexMesh.obj
 0001:000009c0       ??__EmaxFError@_VecMathTests@aos@shdfnd@physx@@YAXXZ 00000001800019c0 f   GuContactPlaneBox.obj
 0001:000009d0       ??__EmaxV3Error@_VecMathTests@aos@shdfnd@physx@@YAXXZ 00000001800019d0 f   GuContactPlaneBox.obj
 0001:000009e0       ??__EmaxV4Error@_VecMathTests@aos@shdfnd@physx@@YAXXZ 00000001800019e0 f   GuContactPlaneBox.obj
 0001:000009f0       ??__EminFError@_VecMathTests@aos@shdfnd@physx@@YAXXZ 00000001800019f0 f   GuContactPlaneBox.obj
 0001:00000a00       ??__EminV3Error@_VecMathTests@aos@shdfnd@physx@@YAXXZ 0000000180001a00 f   GuContactPlaneBox.obj
 0001:00000a10       ??__EminV4Error@_VecMathTests@aos@shdfnd@physx@@YAXXZ 0000000180001a10 f   GuContactPlaneBox.obj
 0001:00000a20       ??__EmaxFError@_VecMathTests@aos@shdfnd@physx@@YAXXZ 0000000180001a20 f   GuContactPlaneCapsule.obj
 0001:00000a30       ??__EmaxV3Error@_VecMathTests@aos@shdfnd@physx@@YAXXZ 0000000180001a30 f   GuContactPlaneCapsule.obj
 0001:00000a40       ??__EmaxV4Error@_VecMathTests@aos@shdfnd@physx@@YAXXZ 0000000180001a40 f   GuContactPlaneCapsule.obj
 0001:00000a50       ??__EminFError@_VecMathTests@aos@shdfnd@physx@@YAXXZ 0000000180001a50 f   GuContactPlaneCapsule.obj
 0001:00000a60       ??__EminV3Error@_VecMathTests@aos@shdfnd@physx@@YAXXZ 0000000180001a60 f   GuContactPlaneCapsule.obj
 0001:00000a70       ??__EminV4Error@_VecMathTests@aos@shdfnd@physx@@YAXXZ 0000000180001a70 f   GuContactPlaneCapsule.obj
 0001:00000a80       ??__EmaxFError@_VecMathTests@aos@shdfnd@physx@@YAXXZ 0000000180001a80 f   GuContactPlaneConvex.obj
 0001:00000a90       ??__EmaxV3Error@_VecMathTests@aos@shdfnd@physx@@YAXXZ 0000000180001a90 f   GuContactPlaneConvex.obj
 0001:00000aa0       ??__EmaxV4Error@_VecMathTests@aos@shdfnd@physx@@YAXXZ 0000000180001aa0 f   GuContactPlaneConvex.obj
 0001:00000ab0       ??__EminFError@_VecMathTests@aos@shdfnd@physx@@YAXXZ 0000000180001ab0 f   GuContactPlaneConvex.obj
 0001:00000ac0       ??__EminV3Error@_VecMathTests@aos@shdfnd@physx@@YAXXZ 0000000180001ac0 f   GuContactPlaneConvex.obj
 0001:00000ad0       ??__EminV4Error@_VecMathTests@aos@shdfnd@physx@@YAXXZ 0000000180001ad0 f   GuContactPlaneConvex.obj
 0001:00000ae0       ??__EmaxFError@_VecMathTests@aos@shdfnd@physx@@YAXXZ 0000000180001ae0 f   GuContactSphereBox.obj
 0001:00000af0       ??__EmaxV3Error@_VecMathTests@aos@shdfnd@physx@@YAXXZ 0000000180001af0 f   GuContactSphereBox.obj
 0001:00000b00       ??__EmaxV4Error@_VecMathTests@aos@shdfnd@physx@@YAXXZ 0000000180001b00 f   GuContactSphereBox.obj
 0001:00000b10       ??__EminFError@_VecMathTests@aos@shdfnd@physx@@YAXXZ 0000000180001b10 f   GuContactSphereBox.obj
 0001:00000b20       ??__EminV3Error@_VecMathTests@aos@shdfnd@physx@@YAXXZ 0000000180001b20 f   GuContactSphereBox.obj
 0001:00000b30       ??__EminV4Error@_VecMathTests@aos@shdfnd@physx@@YAXXZ 0000000180001b30 f   GuContactSphereBox.obj
 0001:00000b40       ??__EmaxFError@_VecMathTests@aos@shdfnd@physx@@YAXXZ 0000000180001b40 f   GuContactSphereCapsule.obj
 0001:00000b50       ??__EmaxV3Error@_VecMathTests@aos@shdfnd@physx@@YAXXZ 0000000180001b50 f   GuContactSphereCapsule.obj
 0001:00000b60       ??__EmaxV4Error@_VecMathTests@aos@shdfnd@physx@@YAXXZ 0000000180001b60 f   GuContactSphereCapsule.obj
 0001:00000b70       ??__EminFError@_VecMathTests@aos@shdfnd@physx@@YAXXZ 0000000180001b70 f   GuContactSphereCapsule.obj
 0001:00000b80       ??__EminV3Error@_VecMathTests@aos@shdfnd@physx@@YAXXZ 0000000180001b80 f   GuContactSphereCapsule.obj
 0001:00000b90       ??__EminV4Error@_VecMathTests@aos@shdfnd@physx@@YAXXZ 0000000180001b90 f   GuContactSphereCapsule.obj
 0001:00000ba0       ??__EmaxFError@_VecMathTests@aos@shdfnd@physx@@YAXXZ 0000000180001ba0 f   GuContactSphereMesh.obj
 0001:00000bb0       ??__EmaxV3Error@_VecMathTests@aos@shdfnd@physx@@YAXXZ 0000000180001bb0 f   GuContactSphereMesh.obj
 0001:00000bc0       ??__EmaxV4Error@_VecMathTests@aos@shdfnd@physx@@YAXXZ 0000000180001bc0 f   GuContactSphereMesh.obj
 0001:00000bd0       ??__EminFError@_VecMathTests@aos@shdfnd@physx@@YAXXZ 0000000180001bd0 f   GuContactSphereMesh.obj
 0001:00000be0       ??__EminV3Error@_VecMathTests@aos@shdfnd@physx@@YAXXZ 0000000180001be0 f   GuContactSphereMesh.obj
 0001:00000bf0       ??__EminV4Error@_VecMathTests@aos@shdfnd@physx@@YAXXZ 0000000180001bf0 f   GuContactSphereMesh.obj
 0001:00000c00       ??__EmaxFError@_VecMathTests@aos@shdfnd@physx@@YAXXZ 0000000180001c00 f   GuContactSpherePlane.obj
 0001:00000c10       ??__EmaxV3Error@_VecMathTests@aos@shdfnd@physx@@YAXXZ 0000000180001c10 f   GuContactSpherePlane.obj
 0001:00000c20       ??__EmaxV4Error@_VecMathTests@aos@shdfnd@physx@@YAXXZ 0000000180001c20 f   GuContactSpherePlane.obj
 0001:00000c30       ??__EminFError@_VecMathTests@aos@shdfnd@physx@@YAXXZ 0000000180001c30 f   GuContactSpherePlane.obj
 0001:00000c40       ??__EminV3Error@_VecMathTests@aos@shdfnd@physx@@YAXXZ 0000000180001c40 f   GuContactSpherePlane.obj
 0001:00000c50       ??__EminV4Error@_VecMathTests@aos@shdfnd@physx@@YAXXZ 0000000180001c50 f   GuContactSpherePlane.obj
 0001:00000c60       ??__EmaxFError@_VecMathTests@aos@shdfnd@physx@@YAXXZ 0000000180001c60 f   GuContactSphereSphere.obj
 0001:00000c70       ??__EmaxV3Error@_VecMathTests@aos@shdfnd@physx@@YAXXZ 0000000180001c70 f   GuContactSphereSphere.obj
 0001:00000c80       ??__EmaxV4Error@_VecMathTests@aos@shdfnd@physx@@YAXXZ 0000000180001c80 f   GuContactSphereSphere.obj
 0001:00000c90       ??__EminFError@_VecMathTests@aos@shdfnd@physx@@YAXXZ 0000000180001c90 f   GuContactSphereSphere.obj
 0001:00000ca0       ??__EminV3Error@_VecMathTests@aos@shdfnd@physx@@YAXXZ 0000000180001ca0 f   GuContactSphereSphere.obj
 0001:00000cb0       ??__EminV4Error@_VecMathTests@aos@shdfnd@physx@@YAXXZ 0000000180001cb0 f   GuContactSphereSphere.obj
 0001:00000cc0       ??__EmaxFError@_VecMathTests@aos@shdfnd@physx@@YAXXZ 0000000180001cc0 f   GuConvexHelper.obj
 0001:00000cd0       ??__EmaxV3Error@_VecMathTests@aos@shdfnd@physx@@YAXXZ 0000000180001cd0 f   GuConvexHelper.obj
 0001:00000ce0       ??__EmaxV4Error@_VecMathTests@aos@shdfnd@physx@@YAXXZ 0000000180001ce0 f   GuConvexHelper.obj
 0001:00000cf0       ??__EminFError@_VecMathTests@aos@shdfnd@physx@@YAXXZ 0000000180001cf0 f   GuConvexHelper.obj
 0001:00000d00       ??__EminV3Error@_VecMathTests@aos@shdfnd@physx@@YAXXZ 0000000180001d00 f   GuConvexHelper.obj
 0001:00000d10       ??__EminV4Error@_VecMathTests@aos@shdfnd@physx@@YAXXZ 0000000180001d10 f   GuConvexHelper.obj
 0001:00000d20       ??__EboxVertexTable@physx@@YAXXZ 0000000180001d20 f   GuConvexSupportTable.obj
 0001:00000da0       ??__EmaxFError@_VecMathTests@aos@shdfnd@physx@@YAXXZ 0000000180001da0 f   GuConvexSupportTable.obj
 0001:00000db0       ??__EmaxV3Error@_VecMathTests@aos@shdfnd@physx@@YAXXZ 0000000180001db0 f   GuConvexSupportTable.obj
 0001:00000dc0       ??__EmaxV4Error@_VecMathTests@aos@shdfnd@physx@@YAXXZ 0000000180001dc0 f   GuConvexSupportTable.obj
 0001:00000dd0       ??__EminFError@_VecMathTests@aos@shdfnd@physx@@YAXXZ 0000000180001dd0 f   GuConvexSupportTable.obj
 0001:00000de0       ??__EminV3Error@_VecMathTests@aos@shdfnd@physx@@YAXXZ 0000000180001de0 f   GuConvexSupportTable.obj
 0001:00000df0       ??__EminV4Error@_VecMathTests@aos@shdfnd@physx@@YAXXZ 0000000180001df0 f   GuConvexSupportTable.obj
 0001:00000e00       ??__EmaxFError@_VecMathTests@aos@shdfnd@physx@@YAXXZ 0000000180001e00 f   GuConvexUtilsInternal.obj
 0001:00000e10       ??__EmaxV3Error@_VecMathTests@aos@shdfnd@physx@@YAXXZ 0000000180001e10 f   GuConvexUtilsInternal.obj
 0001:00000e20       ??__EmaxV4Error@_VecMathTests@aos@shdfnd@physx@@YAXXZ 0000000180001e20 f   GuConvexUtilsInternal.obj
 0001:00000e30       ??__EminFError@_VecMathTests@aos@shdfnd@physx@@YAXXZ 0000000180001e30 f   GuConvexUtilsInternal.obj
 0001:00000e40       ??__EminV3Error@_VecMathTests@aos@shdfnd@physx@@YAXXZ 0000000180001e40 f   GuConvexUtilsInternal.obj
 0001:00000e50       ??__EminV4Error@_VecMathTests@aos@shdfnd@physx@@YAXXZ 0000000180001e50 f   GuConvexUtilsInternal.obj
 0001:00000e60       ??__EmaxFError@_VecMathTests@aos@shdfnd@physx@@YAXXZ 0000000180001e60 f   GuDistancePointTriangle.obj
 0001:00000e70       ??__EmaxV3Error@_VecMathTests@aos@shdfnd@physx@@YAXXZ 0000000180001e70 f   GuDistancePointTriangle.obj
 0001:00000e80       ??__EmaxV4Error@_VecMathTests@aos@shdfnd@physx@@YAXXZ 0000000180001e80 f   GuDistancePointTriangle.obj
 0001:00000e90       ??__EminFError@_VecMathTests@aos@shdfnd@physx@@YAXXZ 0000000180001e90 f   GuDistancePointTriangle.obj
 0001:00000ea0       ??__EminV3Error@_VecMathTests@aos@shdfnd@physx@@YAXXZ 0000000180001ea0 f   GuDistancePointTriangle.obj
 0001:00000eb0       ??__EminV4Error@_VecMathTests@aos@shdfnd@physx@@YAXXZ 0000000180001eb0 f   GuDistancePointTriangle.obj
 0001:00000ec0       ??__EmaxFError@_VecMathTests@aos@shdfnd@physx@@YAXXZ 0000000180001ec0 f   GuDistanceSegmentSegment.obj
 0001:00000ed0       ??__EmaxV3Error@_VecMathTests@aos@shdfnd@physx@@YAXXZ 0000000180001ed0 f   GuDistanceSegmentSegment.obj
 0001:00000ee0       ??__EmaxV4Error@_VecMathTests@aos@shdfnd@physx@@YAXXZ 0000000180001ee0 f   GuDistanceSegmentSegment.obj
 0001:00000ef0       ??__EminFError@_VecMathTests@aos@shdfnd@physx@@YAXXZ 0000000180001ef0 f   GuDistanceSegmentSegment.obj
 0001:00000f00       ??__EminV3Error@_VecMathTests@aos@shdfnd@physx@@YAXXZ 0000000180001f00 f   GuDistanceSegmentSegment.obj
 0001:00000f10       ??__EminV4Error@_VecMathTests@aos@shdfnd@physx@@YAXXZ 0000000180001f10 f   GuDistanceSegmentSegment.obj
 0001:00000f20       ??__EmaxFError@_VecMathTests@aos@shdfnd@physx@@YAXXZ 0000000180001f20 f   GuDistanceSegmentTriangle.obj
 0001:00000f30       ??__EmaxV3Error@_VecMathTests@aos@shdfnd@physx@@YAXXZ 0000000180001f30 f   GuDistanceSegmentTriangle.obj
 0001:00000f40       ??__EmaxV4Error@_VecMathTests@aos@shdfnd@physx@@YAXXZ 0000000180001f40 f   GuDistanceSegmentTriangle.obj
 0001:00000f50       ??__EminFError@_VecMathTests@aos@shdfnd@physx@@YAXXZ 0000000180001f50 f   GuDistanceSegmentTriangle.obj
 0001:00000f60       ??__EminV3Error@_VecMathTests@aos@shdfnd@physx@@YAXXZ 0000000180001f60 f   GuDistanceSegmentTriangle.obj
 0001:00000f70       ??__EminV4Error@_VecMathTests@aos@shdfnd@physx@@YAXXZ 0000000180001f70 f   GuDistanceSegmentTriangle.obj
 0001:00000f80       ??__EmaxFError@_VecMathTests@aos@shdfnd@physx@@YAXXZ 0000000180001f80 f   GuEPA.obj
 0001:00000f90       ??__EmaxV3Error@_VecMathTests@aos@shdfnd@physx@@YAXXZ 0000000180001f90 f   GuEPA.obj
 0001:00000fa0       ??__EmaxV4Error@_VecMathTests@aos@shdfnd@physx@@YAXXZ 0000000180001fa0 f   GuEPA.obj
 0001:00000fb0       ??__EminFError@_VecMathTests@aos@shdfnd@physx@@YAXXZ 0000000180001fb0 f   GuEPA.obj
 0001:00000fc0       ??__EminV3Error@_VecMathTests@aos@shdfnd@physx@@YAXXZ 0000000180001fc0 f   GuEPA.obj
 0001:00000fd0       ??__EminV4Error@_VecMathTests@aos@shdfnd@physx@@YAXXZ 0000000180001fd0 f   GuEPA.obj
 0001:00000fe0       ??__EmaxFError@_VecMathTests@aos@shdfnd@physx@@YAXXZ 0000000180001fe0 f   GuGJKSimplex.obj
 0001:00000ff0       ??__EmaxV3Error@_VecMathTests@aos@shdfnd@physx@@YAXXZ 0000000180001ff0 f   GuGJKSimplex.obj
 0001:00001000       ??__EmaxV4Error@_VecMathTests@aos@shdfnd@physx@@YAXXZ 0000000180002000 f   GuGJKSimplex.obj
 0001:00001010       ??__EminFError@_VecMathTests@aos@shdfnd@physx@@YAXXZ 0000000180002010 f   GuGJKSimplex.obj
 0001:00001020       ??__EminV3Error@_VecMathTests@aos@shdfnd@physx@@YAXXZ 0000000180002020 f   GuGJKSimplex.obj
 0001:00001030       ??__EminV4Error@_VecMathTests@aos@shdfnd@physx@@YAXXZ 0000000180002030 f   GuGJKSimplex.obj
 0001:00001040       ??__EmaxFError@_VecMathTests@aos@shdfnd@physx@@YAXXZ 0000000180002040 f   GuGJKTest.obj
 0001:00001050       ??__EmaxV3Error@_VecMathTests@aos@shdfnd@physx@@YAXXZ 0000000180002050 f   GuGJKTest.obj
 0001:00001060       ??__EmaxV4Error@_VecMathTests@aos@shdfnd@physx@@YAXXZ 0000000180002060 f   GuGJKTest.obj
 0001:00001070       ??__EminFError@_VecMathTests@aos@shdfnd@physx@@YAXXZ 0000000180002070 f   GuGJKTest.obj
 0001:00001080       ??__EminV3Error@_VecMathTests@aos@shdfnd@physx@@YAXXZ 0000000180002080 f   GuGJKTest.obj
 0001:00001090       ??__EminV4Error@_VecMathTests@aos@shdfnd@physx@@YAXXZ 0000000180002090 f   GuGJKTest.obj
 0001:000010a0       ??__EmaxFError@_VecMathTests@aos@shdfnd@physx@@YAXXZ 00000001800020a0 f   GuHeightFieldUtil.obj
 0001:000010b0       ??__EmaxV3Error@_VecMathTests@aos@shdfnd@physx@@YAXXZ 00000001800020b0 f   GuHeightFieldUtil.obj
 0001:000010c0       ??__EmaxV4Error@_VecMathTests@aos@shdfnd@physx@@YAXXZ 00000001800020c0 f   GuHeightFieldUtil.obj
 0001:000010d0       ??__EminFError@_VecMathTests@aos@shdfnd@physx@@YAXXZ 00000001800020d0 f   GuHeightFieldUtil.obj
 0001:000010e0       ??__EminV3Error@_VecMathTests@aos@shdfnd@physx@@YAXXZ 00000001800020e0 f   GuHeightFieldUtil.obj
 0001:000010f0       ??__EminV4Error@_VecMathTests@aos@shdfnd@physx@@YAXXZ 00000001800020f0 f   GuHeightFieldUtil.obj
 0001:00001100       ??__EmaxFError@_VecMathTests@aos@shdfnd@physx@@YAXXZ 0000000180002100 f   GuOverlapTestsHF.obj
 0001:00001110       ??__EmaxV3Error@_VecMathTests@aos@shdfnd@physx@@YAXXZ 0000000180002110 f   GuOverlapTestsHF.obj
 0001:00001120       ??__EmaxV4Error@_VecMathTests@aos@shdfnd@physx@@YAXXZ 0000000180002120 f   GuOverlapTestsHF.obj
 0001:00001130       ??__EminFError@_VecMathTests@aos@shdfnd@physx@@YAXXZ 0000000180002130 f   GuOverlapTestsHF.obj
 0001:00001140       ??__EminV3Error@_VecMathTests@aos@shdfnd@physx@@YAXXZ 0000000180002140 f   GuOverlapTestsHF.obj
 0001:00001150       ??__EminV4Error@_VecMathTests@aos@shdfnd@physx@@YAXXZ 0000000180002150 f   GuOverlapTestsHF.obj
 0001:00001160       ??__EmaxFError@_VecMathTests@aos@shdfnd@physx@@YAXXZ 0000000180002160 f   GuSweepsHF.obj
 0001:00001170       ??__EmaxV3Error@_VecMathTests@aos@shdfnd@physx@@YAXXZ 0000000180002170 f   GuSweepsHF.obj
 0001:00001180       ??__EmaxV4Error@_VecMathTests@aos@shdfnd@physx@@YAXXZ 0000000180002180 f   GuSweepsHF.obj
 0001:00001190       ??__EminFError@_VecMathTests@aos@shdfnd@physx@@YAXXZ 0000000180002190 f   GuSweepsHF.obj
 0001:000011a0       ??__EminV3Error@_VecMathTests@aos@shdfnd@physx@@YAXXZ 00000001800021a0 f   GuSweepsHF.obj
 0001:000011b0       ??__EminV4Error@_VecMathTests@aos@shdfnd@physx@@YAXXZ 00000001800021b0 f   GuSweepsHF.obj
 0001:000011c0       ??__EmaxFError@_VecMathTests@aos@shdfnd@physx@@YAXXZ 00000001800021c0 f   GuIntersectionRayBox.obj
 0001:000011d0       ??__EmaxV3Error@_VecMathTests@aos@shdfnd@physx@@YAXXZ 00000001800021d0 f   GuIntersectionRayBox.obj
 0001:000011e0       ??__EmaxV4Error@_VecMathTests@aos@shdfnd@physx@@YAXXZ 00000001800021e0 f   GuIntersectionRayBox.obj
 0001:000011f0       ??__EminFError@_VecMathTests@aos@shdfnd@physx@@YAXXZ 00000001800021f0 f   GuIntersectionRayBox.obj
 0001:00001200       ??__EminV3Error@_VecMathTests@aos@shdfnd@physx@@YAXXZ 0000000180002200 f   GuIntersectionRayBox.obj
 0001:00001210       ??__EminV4Error@_VecMathTests@aos@shdfnd@physx@@YAXXZ 0000000180002210 f   GuIntersectionRayBox.obj
 0001:00001220       ??__EmaxFError@_VecMathTests@aos@shdfnd@physx@@YAXXZ 0000000180002220 f   GuIntersectionTriangleBox.obj
 0001:00001230       ??__EmaxV3Error@_VecMathTests@aos@shdfnd@physx@@YAXXZ 0000000180002230 f   GuIntersectionTriangleBox.obj
 0001:00001240       ??__EmaxV4Error@_VecMathTests@aos@shdfnd@physx@@YAXXZ 0000000180002240 f   GuIntersectionTriangleBox.obj
 0001:00001250       ??__EminFError@_VecMathTests@aos@shdfnd@physx@@YAXXZ 0000000180002250 f   GuIntersectionTriangleBox.obj
 0001:00001260       ??__EminV3Error@_VecMathTests@aos@shdfnd@physx@@YAXXZ 0000000180002260 f   GuIntersectionTriangleBox.obj
 0001:00001270       ??__EminV4Error@_VecMathTests@aos@shdfnd@physx@@YAXXZ 0000000180002270 f   GuIntersectionTriangleBox.obj
 0001:00001280       ??__EsignV@@YAXXZ          0000000180002280 f   GuIntersectionTriangleBox.obj
 0001:000012c0       ??__EmaxFError@_VecMathTests@aos@shdfnd@physx@@YAXXZ 00000001800022c0 f   GuBV4.obj
 0001:000012d0       ??__EmaxV3Error@_VecMathTests@aos@shdfnd@physx@@YAXXZ 00000001800022d0 f   GuBV4.obj
 0001:000012e0       ??__EmaxV4Error@_VecMathTests@aos@shdfnd@physx@@YAXXZ 00000001800022e0 f   GuBV4.obj
 0001:000012f0       ??__EminFError@_VecMathTests@aos@shdfnd@physx@@YAXXZ 00000001800022f0 f   GuBV4.obj
 0001:00001300       ??__EminV3Error@_VecMathTests@aos@shdfnd@physx@@YAXXZ 0000000180002300 f   GuBV4.obj
 0001:00001310       ??__EminV4Error@_VecMathTests@aos@shdfnd@physx@@YAXXZ 0000000180002310 f   GuBV4.obj
 0001:00001320       ??__EmaxFError@_VecMathTests@aos@shdfnd@physx@@YAXXZ 0000000180002320 f   GuBV4Build.obj
 0001:00001330       ??__EmaxV3Error@_VecMathTests@aos@shdfnd@physx@@YAXXZ 0000000180002330 f   GuBV4Build.obj
 0001:00001340       ??__EmaxV4Error@_VecMathTests@aos@shdfnd@physx@@YAXXZ 0000000180002340 f   GuBV4Build.obj
 0001:00001350       ??__EminFError@_VecMathTests@aos@shdfnd@physx@@YAXXZ 0000000180002350 f   GuBV4Build.obj
 0001:00001360       ??__EminV3Error@_VecMathTests@aos@shdfnd@physx@@YAXXZ 0000000180002360 f   GuBV4Build.obj
 0001:00001370       ??__EminV4Error@_VecMathTests@aos@shdfnd@physx@@YAXXZ 0000000180002370 f   GuBV4Build.obj
 0001:00001380       ??__EepsFloat4@?A0xd38296ff@@YAXXZ 0000000180002380 f   GuBV4_AABBSweep.obj
 0001:00001390       ??__EepsInflateFloat4@?A0xd38296ff@@YAXXZ 0000000180002390 f   GuBV4_AABBSweep.obj
 0001:000013a0       ??__EmaxFError@_VecMathTests@aos@shdfnd@physx@@YAXXZ 00000001800023a0 f   GuBV4_AABBSweep.obj
 0001:000013b0       ??__EmaxV3Error@_VecMathTests@aos@shdfnd@physx@@YAXXZ 00000001800023b0 f   GuBV4_AABBSweep.obj
 0001:000013c0       ??__EmaxV4Error@_VecMathTests@aos@shdfnd@physx@@YAXXZ 00000001800023c0 f   GuBV4_AABBSweep.obj
 0001:000013d0       ??__EminFError@_VecMathTests@aos@shdfnd@physx@@YAXXZ 00000001800023d0 f   GuBV4_AABBSweep.obj
 0001:000013e0       ??__EminV3Error@_VecMathTests@aos@shdfnd@physx@@YAXXZ 00000001800023e0 f   GuBV4_AABBSweep.obj
 0001:000013f0       ??__EminV4Error@_VecMathTests@aos@shdfnd@physx@@YAXXZ 00000001800023f0 f   GuBV4_AABBSweep.obj
 0001:00001400       ??__EsignMask@?A0xd38296ff@@YAXXZ 0000000180002400 f   GuBV4_AABBSweep.obj
 0001:00001440       ??__Etwos@?A0xd38296ff@@YAXXZ 0000000180002440 f   GuBV4_AABBSweep.obj
 0001:00001450       ??__Ezeroes@?A0xd38296ff@@YAXXZ 0000000180002450 f   GuBV4_AABBSweep.obj
 0001:00001460       ??__EmaxFError@_VecMathTests@aos@shdfnd@physx@@YAXXZ 0000000180002460 f   GuBV4_BoxOverlap.obj
 0001:00001470       ??__EmaxV3Error@_VecMathTests@aos@shdfnd@physx@@YAXXZ 0000000180002470 f   GuBV4_BoxOverlap.obj
 0001:00001480       ??__EmaxV4Error@_VecMathTests@aos@shdfnd@physx@@YAXXZ 0000000180002480 f   GuBV4_BoxOverlap.obj
 0001:00001490       ??__EminFError@_VecMathTests@aos@shdfnd@physx@@YAXXZ 0000000180002490 f   GuBV4_BoxOverlap.obj
 0001:000014a0       ??__EminV3Error@_VecMathTests@aos@shdfnd@physx@@YAXXZ 00000001800024a0 f   GuBV4_BoxOverlap.obj
 0001:000014b0       ??__EminV4Error@_VecMathTests@aos@shdfnd@physx@@YAXXZ 00000001800024b0 f   GuBV4_BoxOverlap.obj
 0001:000014c0       ??__EmaxFError@_VecMathTests@aos@shdfnd@physx@@YAXXZ 00000001800024c0 f   GuBV4_CapsuleSweep.obj
 0001:000014d0       ??__EmaxV3Error@_VecMathTests@aos@shdfnd@physx@@YAXXZ 00000001800024d0 f   GuBV4_CapsuleSweep.obj
 0001:000014e0       ??__EmaxV4Error@_VecMathTests@aos@shdfnd@physx@@YAXXZ 00000001800024e0 f   GuBV4_CapsuleSweep.obj
 0001:000014f0       ??__EminFError@_VecMathTests@aos@shdfnd@physx@@YAXXZ 00000001800024f0 f   GuBV4_CapsuleSweep.obj
 0001:00001500       ??__EminV3Error@_VecMathTests@aos@shdfnd@physx@@YAXXZ 0000000180002500 f   GuBV4_CapsuleSweep.obj
 0001:00001510       ??__EminV4Error@_VecMathTests@aos@shdfnd@physx@@YAXXZ 0000000180002510 f   GuBV4_CapsuleSweep.obj
 0001:00001520       ??__EepsFloat4@?A0x1ffe1818@@YAXXZ 0000000180002520 f   GuBV4_CapsuleSweepAA.obj
 0001:00001530       ??__EepsInflateFloat4@?A0x1ffe1818@@YAXXZ 0000000180002530 f   GuBV4_CapsuleSweepAA.obj
 0001:00001540       ??__EmaxFError@_VecMathTests@aos@shdfnd@physx@@YAXXZ 0000000180002540 f   GuBV4_CapsuleSweepAA.obj
 0001:00001550       ??__EmaxV3Error@_VecMathTests@aos@shdfnd@physx@@YAXXZ 0000000180002550 f   GuBV4_CapsuleSweepAA.obj
 0001:00001560       ??__EmaxV4Error@_VecMathTests@aos@shdfnd@physx@@YAXXZ 0000000180002560 f   GuBV4_CapsuleSweepAA.obj
 0001:00001570       ??__EminFError@_VecMathTests@aos@shdfnd@physx@@YAXXZ 0000000180002570 f   GuBV4_CapsuleSweepAA.obj
 0001:00001580       ??__EminV3Error@_VecMathTests@aos@shdfnd@physx@@YAXXZ 0000000180002580 f   GuBV4_CapsuleSweepAA.obj
 0001:00001590       ??__EminV4Error@_VecMathTests@aos@shdfnd@physx@@YAXXZ 0000000180002590 f   GuBV4_CapsuleSweepAA.obj
 0001:000015a0       ??__EsignMask@?A0x1ffe1818@@YAXXZ 00000001800025a0 f   GuBV4_CapsuleSweepAA.obj
 0001:000015e0       ??__Etwos@?A0x1ffe1818@@YAXXZ 00000001800025e0 f   GuBV4_CapsuleSweepAA.obj
 0001:000015f0       ??__Ezeroes@?A0x1ffe1818@@YAXXZ 00000001800025f0 f   GuBV4_CapsuleSweepAA.obj
 0001:00001600       ??__EmaxFError@_VecMathTests@aos@shdfnd@physx@@YAXXZ 0000000180002600 f   GuBV4_OBBSweep.obj
 0001:00001610       ??__EmaxV3Error@_VecMathTests@aos@shdfnd@physx@@YAXXZ 0000000180002610 f   GuBV4_OBBSweep.obj
 0001:00001620       ??__EmaxV4Error@_VecMathTests@aos@shdfnd@physx@@YAXXZ 0000000180002620 f   GuBV4_OBBSweep.obj
 0001:00001630       ??__EminFError@_VecMathTests@aos@shdfnd@physx@@YAXXZ 0000000180002630 f   GuBV4_OBBSweep.obj
 0001:00001640       ??__EminV3Error@_VecMathTests@aos@shdfnd@physx@@YAXXZ 0000000180002640 f   GuBV4_OBBSweep.obj
 0001:00001650       ??__EminV4Error@_VecMathTests@aos@shdfnd@physx@@YAXXZ 0000000180002650 f   GuBV4_OBBSweep.obj
 0001:00001660       ??__EepsFloat4@?A0x37fc7e90@@YAXXZ 0000000180002660 f   GuBV4_Raycast.obj
 0001:00001670       ??__EepsInflateFloat4@?A0x37fc7e90@@YAXXZ 0000000180002670 f   GuBV4_Raycast.obj
 0001:00001680       ??__EmaxFError@_VecMathTests@aos@shdfnd@physx@@YAXXZ 0000000180002680 f   GuBV4_Raycast.obj
 0001:00001690       ??__EmaxV3Error@_VecMathTests@aos@shdfnd@physx@@YAXXZ 0000000180002690 f   GuBV4_Raycast.obj
 0001:000016a0       ??__EmaxV4Error@_VecMathTests@aos@shdfnd@physx@@YAXXZ 00000001800026a0 f   GuBV4_Raycast.obj
 0001:000016b0       ??__EminFError@_VecMathTests@aos@shdfnd@physx@@YAXXZ 00000001800026b0 f   GuBV4_Raycast.obj
 0001:000016c0       ??__EminV3Error@_VecMathTests@aos@shdfnd@physx@@YAXXZ 00000001800026c0 f   GuBV4_Raycast.obj
 0001:000016d0       ??__EminV4Error@_VecMathTests@aos@shdfnd@physx@@YAXXZ 00000001800026d0 f   GuBV4_Raycast.obj
 0001:000016e0       ??__EsignMask@?A0x37fc7e90@@YAXXZ 00000001800026e0 f   GuBV4_Raycast.obj
 0001:00001720       ??__Etwos@?A0x37fc7e90@@YAXXZ 0000000180002720 f   GuBV4_Raycast.obj
 0001:00001730       ??__Ezeroes@?A0x37fc7e90@@YAXXZ 0000000180002730 f   GuBV4_Raycast.obj
 0001:00001740       ??__EmaxFError@_VecMathTests@aos@shdfnd@physx@@YAXXZ 0000000180002740 f   GuBV4_SphereOverlap.obj
 0001:00001750       ??__EmaxV3Error@_VecMathTests@aos@shdfnd@physx@@YAXXZ 0000000180002750 f   GuBV4_SphereOverlap.obj
 0001:00001760       ??__EmaxV4Error@_VecMathTests@aos@shdfnd@physx@@YAXXZ 0000000180002760 f   GuBV4_SphereOverlap.obj
 0001:00001770       ??__EminFError@_VecMathTests@aos@shdfnd@physx@@YAXXZ 0000000180002770 f   GuBV4_SphereOverlap.obj
 0001:00001780       ??__EminV3Error@_VecMathTests@aos@shdfnd@physx@@YAXXZ 0000000180002780 f   GuBV4_SphereOverlap.obj
 0001:00001790       ??__EminV4Error@_VecMathTests@aos@shdfnd@physx@@YAXXZ 0000000180002790 f   GuBV4_SphereOverlap.obj
 0001:000017a0       ??__EepsFloat4@?A0x35ffc7a1@@YAXXZ 00000001800027a0 f   GuBV4_SphereSweep.obj
 0001:000017b0       ??__EepsInflateFloat4@?A0x35ffc7a1@@YAXXZ 00000001800027b0 f   GuBV4_SphereSweep.obj
 0001:000017c0       ??__EmaxFError@_VecMathTests@aos@shdfnd@physx@@YAXXZ 00000001800027c0 f   GuBV4_SphereSweep.obj
 0001:000017d0       ??__EmaxV3Error@_VecMathTests@aos@shdfnd@physx@@YAXXZ 00000001800027d0 f   GuBV4_SphereSweep.obj
 0001:000017e0       ??__EmaxV4Error@_VecMathTests@aos@shdfnd@physx@@YAXXZ 00000001800027e0 f   GuBV4_SphereSweep.obj
 0001:000017f0       ??__EminFError@_VecMathTests@aos@shdfnd@physx@@YAXXZ 00000001800027f0 f   GuBV4_SphereSweep.obj
 0001:00001800       ??__EminV3Error@_VecMathTests@aos@shdfnd@physx@@YAXXZ 0000000180002800 f   GuBV4_SphereSweep.obj
 0001:00001810       ??__EminV4Error@_VecMathTests@aos@shdfnd@physx@@YAXXZ 0000000180002810 f   GuBV4_SphereSweep.obj
 0001:00001820       ??__EsignMask@?A0x35ffc7a1@@YAXXZ 0000000180002820 f   GuBV4_SphereSweep.obj
 0001:00001860       ??__Etwos@?A0x35ffc7a1@@YAXXZ 0000000180002860 f   GuBV4_SphereSweep.obj
 0001:00001870       ??__Ezeroes@?A0x35ffc7a1@@YAXXZ 0000000180002870 f   GuBV4_SphereSweep.obj
 0001:00001880       ??__EmaxFError@_VecMathTests@aos@shdfnd@physx@@YAXXZ 0000000180002880 f   GuMidphaseBV4.obj
 0001:00001890       ??__EmaxV3Error@_VecMathTests@aos@shdfnd@physx@@YAXXZ 0000000180002890 f   GuMidphaseBV4.obj
 0001:000018a0       ??__EmaxV4Error@_VecMathTests@aos@shdfnd@physx@@YAXXZ 00000001800028a0 f   GuMidphaseBV4.obj
 0001:000018b0       ??__EminFError@_VecMathTests@aos@shdfnd@physx@@YAXXZ 00000001800028b0 f   GuMidphaseBV4.obj
 0001:000018c0       ??__EminV3Error@_VecMathTests@aos@shdfnd@physx@@YAXXZ 00000001800028c0 f   GuMidphaseBV4.obj
 0001:000018d0       ??__EminV4Error@_VecMathTests@aos@shdfnd@physx@@YAXXZ 00000001800028d0 f   GuMidphaseBV4.obj
 0001:000018e0       ??__EmaxFError@_VecMathTests@aos@shdfnd@physx@@YAXXZ 00000001800028e0 f   GuMeshQuery.obj
 0001:000018f0       ??__EmaxV3Error@_VecMathTests@aos@shdfnd@physx@@YAXXZ 00000001800028f0 f   GuMeshQuery.obj
 0001:00001900       ??__EmaxV4Error@_VecMathTests@aos@shdfnd@physx@@YAXXZ 0000000180002900 f   GuMeshQuery.obj
 0001:00001910       ??__EminFError@_VecMathTests@aos@shdfnd@physx@@YAXXZ 0000000180002910 f   GuMeshQuery.obj
 0001:00001920       ??__EminV3Error@_VecMathTests@aos@shdfnd@physx@@YAXXZ 0000000180002920 f   GuMeshQuery.obj
 0001:00001930       ??__EminV4Error@_VecMathTests@aos@shdfnd@physx@@YAXXZ 0000000180002930 f   GuMeshQuery.obj
 0001:00001940       ??__EmaxFError@_VecMathTests@aos@shdfnd@physx@@YAXXZ 0000000180002940 f   GuMidphaseRTree.obj
 0001:00001950       ??__EmaxV3Error@_VecMathTests@aos@shdfnd@physx@@YAXXZ 0000000180002950 f   GuMidphaseRTree.obj
 0001:00001960       ??__EmaxV4Error@_VecMathTests@aos@shdfnd@physx@@YAXXZ 0000000180002960 f   GuMidphaseRTree.obj
 0001:00001970       ??__EminFError@_VecMathTests@aos@shdfnd@physx@@YAXXZ 0000000180002970 f   GuMidphaseRTree.obj
 0001:00001980       ??__EminV3Error@_VecMathTests@aos@shdfnd@physx@@YAXXZ 0000000180002980 f   GuMidphaseRTree.obj
 0001:00001990       ??__EminV4Error@_VecMathTests@aos@shdfnd@physx@@YAXXZ 0000000180002990 f   GuMidphaseRTree.obj
 0001:000019a0       ??__EmaxFError@_VecMathTests@aos@shdfnd@physx@@YAXXZ 00000001800029a0 f   GuOverlapTestsMesh.obj
 0001:000019b0       ??__EmaxV3Error@_VecMathTests@aos@shdfnd@physx@@YAXXZ 00000001800029b0 f   GuOverlapTestsMesh.obj
 0001:000019c0       ??__EmaxV4Error@_VecMathTests@aos@shdfnd@physx@@YAXXZ 00000001800029c0 f   GuOverlapTestsMesh.obj
 0001:000019d0       ??__EminFError@_VecMathTests@aos@shdfnd@physx@@YAXXZ 00000001800029d0 f   GuOverlapTestsMesh.obj
 0001:000019e0       ??__EminV3Error@_VecMathTests@aos@shdfnd@physx@@YAXXZ 00000001800029e0 f   GuOverlapTestsMesh.obj
 0001:000019f0       ??__EminV4Error@_VecMathTests@aos@shdfnd@physx@@YAXXZ 00000001800029f0 f   GuOverlapTestsMesh.obj
 0001:00001a00       ??__EmaxFError@_VecMathTests@aos@shdfnd@physx@@YAXXZ 0000000180002a00 f   GuRTree.obj
 0001:00001a10       ??__EmaxV3Error@_VecMathTests@aos@shdfnd@physx@@YAXXZ 0000000180002a10 f   GuRTree.obj
 0001:00001a20       ??__EmaxV4Error@_VecMathTests@aos@shdfnd@physx@@YAXXZ 0000000180002a20 f   GuRTree.obj
 0001:00001a30       ??__EminFError@_VecMathTests@aos@shdfnd@physx@@YAXXZ 0000000180002a30 f   GuRTree.obj
 0001:00001a40       ??__EminV3Error@_VecMathTests@aos@shdfnd@physx@@YAXXZ 0000000180002a40 f   GuRTree.obj
 0001:00001a50       ??__EminV4Error@_VecMathTests@aos@shdfnd@physx@@YAXXZ 0000000180002a50 f   GuRTree.obj
 0001:00001a60       ??__EepsFloat4@?A0xf73e8f01@@YAXXZ 0000000180002a60 f   GuRTreeQueries.obj
 0001:00001a70       ??__EepsInflateFloat4@?A0xf73e8f01@@YAXXZ 0000000180002a70 f   GuRTreeQueries.obj
 0001:00001a80       ??__EmaxFError@_VecMathTests@aos@shdfnd@physx@@YAXXZ 0000000180002a80 f   GuRTreeQueries.obj
 0001:00001a90       ??__EmaxV3Error@_VecMathTests@aos@shdfnd@physx@@YAXXZ 0000000180002a90 f   GuRTreeQueries.obj
 0001:00001aa0       ??__EmaxV4Error@_VecMathTests@aos@shdfnd@physx@@YAXXZ 0000000180002aa0 f   GuRTreeQueries.obj
 0001:00001ab0       ??__EminFError@_VecMathTests@aos@shdfnd@physx@@YAXXZ 0000000180002ab0 f   GuRTreeQueries.obj
 0001:00001ac0       ??__EminV3Error@_VecMathTests@aos@shdfnd@physx@@YAXXZ 0000000180002ac0 f   GuRTreeQueries.obj
 0001:00001ad0       ??__EminV4Error@_VecMathTests@aos@shdfnd@physx@@YAXXZ 0000000180002ad0 f   GuRTreeQueries.obj
 0001:00001ae0       ??__EsignMask@?A0xf73e8f01@@YAXXZ 0000000180002ae0 f   GuRTreeQueries.obj
 0001:00001b20       ??__Etwos@?A0xf73e8f01@@YAXXZ 0000000180002b20 f   GuRTreeQueries.obj
 0001:00001b30       ??__Ezeroes@?A0xf73e8f01@@YAXXZ 0000000180002b30 f   GuRTreeQueries.obj
 0001:00001b40       ??__EmaxFError@_VecMathTests@aos@shdfnd@physx@@YAXXZ 0000000180002b40 f   GuSweepsMesh.obj
 0001:00001b50       ??__EmaxV3Error@_VecMathTests@aos@shdfnd@physx@@YAXXZ 0000000180002b50 f   GuSweepsMesh.obj
 0001:00001b60       ??__EmaxV4Error@_VecMathTests@aos@shdfnd@physx@@YAXXZ 0000000180002b60 f   GuSweepsMesh.obj
 0001:00001b70       ??__EminFError@_VecMathTests@aos@shdfnd@physx@@YAXXZ 0000000180002b70 f   GuSweepsMesh.obj
 0001:00001b80       ??__EminV3Error@_VecMathTests@aos@shdfnd@physx@@YAXXZ 0000000180002b80 f   GuSweepsMesh.obj
 0001:00001b90       ??__EminV4Error@_VecMathTests@aos@shdfnd@physx@@YAXXZ 0000000180002b90 f   GuSweepsMesh.obj
 0001:00001ba0       ??__EmaxFError@_VecMathTests@aos@shdfnd@physx@@YAXXZ 0000000180002ba0 f   GuTriangleMesh.obj
 0001:00001bb0       ??__EmaxV3Error@_VecMathTests@aos@shdfnd@physx@@YAXXZ 0000000180002bb0 f   GuTriangleMesh.obj
 0001:00001bc0       ??__EmaxV4Error@_VecMathTests@aos@shdfnd@physx@@YAXXZ 0000000180002bc0 f   GuTriangleMesh.obj
 0001:00001bd0       ??__EminFError@_VecMathTests@aos@shdfnd@physx@@YAXXZ 0000000180002bd0 f   GuTriangleMesh.obj
 0001:00001be0       ??__EminV3Error@_VecMathTests@aos@shdfnd@physx@@YAXXZ 0000000180002be0 f   GuTriangleMesh.obj
 0001:00001bf0       ??__EminV4Error@_VecMathTests@aos@shdfnd@physx@@YAXXZ 0000000180002bf0 f   GuTriangleMesh.obj
 0001:00001c00       ??__EmaxFError@_VecMathTests@aos@shdfnd@physx@@YAXXZ 0000000180002c00 f   GuTriangleMeshBV4.obj
 0001:00001c10       ??__EmaxV3Error@_VecMathTests@aos@shdfnd@physx@@YAXXZ 0000000180002c10 f   GuTriangleMeshBV4.obj
 0001:00001c20       ??__EmaxV4Error@_VecMathTests@aos@shdfnd@physx@@YAXXZ 0000000180002c20 f   GuTriangleMeshBV4.obj
 0001:00001c30       ??__EminFError@_VecMathTests@aos@shdfnd@physx@@YAXXZ 0000000180002c30 f   GuTriangleMeshBV4.obj
 0001:00001c40       ??__EminV3Error@_VecMathTests@aos@shdfnd@physx@@YAXXZ 0000000180002c40 f   GuTriangleMeshBV4.obj
 0001:00001c50       ??__EminV4Error@_VecMathTests@aos@shdfnd@physx@@YAXXZ 0000000180002c50 f   GuTriangleMeshBV4.obj
 0001:00001c60       ??__EmaxFError@_VecMathTests@aos@shdfnd@physx@@YAXXZ 0000000180002c60 f   GuTriangleMeshRTree.obj
 0001:00001c70       ??__EmaxV3Error@_VecMathTests@aos@shdfnd@physx@@YAXXZ 0000000180002c70 f   GuTriangleMeshRTree.obj
 0001:00001c80       ??__EmaxV4Error@_VecMathTests@aos@shdfnd@physx@@YAXXZ 0000000180002c80 f   GuTriangleMeshRTree.obj
 0001:00001c90       ??__EminFError@_VecMathTests@aos@shdfnd@physx@@YAXXZ 0000000180002c90 f   GuTriangleMeshRTree.obj
 0001:00001ca0       ??__EminV3Error@_VecMathTests@aos@shdfnd@physx@@YAXXZ 0000000180002ca0 f   GuTriangleMeshRTree.obj
 0001:00001cb0       ??__EminV4Error@_VecMathTests@aos@shdfnd@physx@@YAXXZ 0000000180002cb0 f   GuTriangleMeshRTree.obj
 0001:00001cc0       ??__EmaxFError@_VecMathTests@aos@shdfnd@physx@@YAXXZ 0000000180002cc0 f   GuBV32Build.obj
 0001:00001cd0       ??__EmaxV3Error@_VecMathTests@aos@shdfnd@physx@@YAXXZ 0000000180002cd0 f   GuBV32Build.obj
 0001:00001ce0       ??__EmaxV4Error@_VecMathTests@aos@shdfnd@physx@@YAXXZ 0000000180002ce0 f   GuBV32Build.obj
 0001:00001cf0       ??__EminFError@_VecMathTests@aos@shdfnd@physx@@YAXXZ 0000000180002cf0 f   GuBV32Build.obj
 0001:00001d00       ??__EminV3Error@_VecMathTests@aos@shdfnd@physx@@YAXXZ 0000000180002d00 f   GuBV32Build.obj
 0001:00001d10       ??__EminV4Error@_VecMathTests@aos@shdfnd@physx@@YAXXZ 0000000180002d10 f   GuBV32Build.obj
 0001:00001d20       ??__EmaxFError@_VecMathTests@aos@shdfnd@physx@@YAXXZ 0000000180002d20 f   GuPCMContactBoxBox.obj
 0001:00001d30       ??__EmaxV3Error@_VecMathTests@aos@shdfnd@physx@@YAXXZ 0000000180002d30 f   GuPCMContactBoxBox.obj
 0001:00001d40       ??__EmaxV4Error@_VecMathTests@aos@shdfnd@physx@@YAXXZ 0000000180002d40 f   GuPCMContactBoxBox.obj
 0001:00001d50       ??__EminFError@_VecMathTests@aos@shdfnd@physx@@YAXXZ 0000000180002d50 f   GuPCMContactBoxBox.obj
 0001:00001d60       ??__EminV3Error@_VecMathTests@aos@shdfnd@physx@@YAXXZ 0000000180002d60 f   GuPCMContactBoxBox.obj
 0001:00001d70       ??__EminV4Error@_VecMathTests@aos@shdfnd@physx@@YAXXZ 0000000180002d70 f   GuPCMContactBoxBox.obj
 0001:00001d80       ??__EmaxFError@_VecMathTests@aos@shdfnd@physx@@YAXXZ 0000000180002d80 f   GuPCMContactBoxConvex.obj
 0001:00001d90       ??__EmaxV3Error@_VecMathTests@aos@shdfnd@physx@@YAXXZ 0000000180002d90 f   GuPCMContactBoxConvex.obj
 0001:00001da0       ??__EmaxV4Error@_VecMathTests@aos@shdfnd@physx@@YAXXZ 0000000180002da0 f   GuPCMContactBoxConvex.obj
 0001:00001db0       ??__EminFError@_VecMathTests@aos@shdfnd@physx@@YAXXZ 0000000180002db0 f   GuPCMContactBoxConvex.obj
 0001:00001dc0       ??__EminV3Error@_VecMathTests@aos@shdfnd@physx@@YAXXZ 0000000180002dc0 f   GuPCMContactBoxConvex.obj
 0001:00001dd0       ??__EminV4Error@_VecMathTests@aos@shdfnd@physx@@YAXXZ 0000000180002dd0 f   GuPCMContactBoxConvex.obj
 0001:00001de0       ??__EmaxFError@_VecMathTests@aos@shdfnd@physx@@YAXXZ 0000000180002de0 f   GuPCMContactCapsuleBox.obj
 0001:00001df0       ??__EmaxV3Error@_VecMathTests@aos@shdfnd@physx@@YAXXZ 0000000180002df0 f   GuPCMContactCapsuleBox.obj
 0001:00001e00       ??__EmaxV4Error@_VecMathTests@aos@shdfnd@physx@@YAXXZ 0000000180002e00 f   GuPCMContactCapsuleBox.obj
 0001:00001e10       ??__EminFError@_VecMathTests@aos@shdfnd@physx@@YAXXZ 0000000180002e10 f   GuPCMContactCapsuleBox.obj
 0001:00001e20       ??__EminV3Error@_VecMathTests@aos@shdfnd@physx@@YAXXZ 0000000180002e20 f   GuPCMContactCapsuleBox.obj
 0001:00001e30       ??__EminV4Error@_VecMathTests@aos@shdfnd@physx@@YAXXZ 0000000180002e30 f   GuPCMContactCapsuleBox.obj
 0001:00001e40       ??__EmaxFError@_VecMathTests@aos@shdfnd@physx@@YAXXZ 0000000180002e40 f   GuPCMContactCapsuleCapsule.obj
 0001:00001e50       ??__EmaxV3Error@_VecMathTests@aos@shdfnd@physx@@YAXXZ 0000000180002e50 f   GuPCMContactCapsuleCapsule.obj
 0001:00001e60       ??__EmaxV4Error@_VecMathTests@aos@shdfnd@physx@@YAXXZ 0000000180002e60 f   GuPCMContactCapsuleCapsule.obj
 0001:00001e70       ??__EminFError@_VecMathTests@aos@shdfnd@physx@@YAXXZ 0000000180002e70 f   GuPCMContactCapsuleCapsule.obj
 0001:00001e80       ??__EminV3Error@_VecMathTests@aos@shdfnd@physx@@YAXXZ 0000000180002e80 f   GuPCMContactCapsuleCapsule.obj
 0001:00001e90       ??__EminV4Error@_VecMathTests@aos@shdfnd@physx@@YAXXZ 0000000180002e90 f   GuPCMContactCapsuleCapsule.obj
 0001:00001ea0       ??__EmaxFError@_VecMathTests@aos@shdfnd@physx@@YAXXZ 0000000180002ea0 f   GuPCMContactCapsuleConvex.obj
 0001:00001eb0       ??__EmaxV3Error@_VecMathTests@aos@shdfnd@physx@@YAXXZ 0000000180002eb0 f   GuPCMContactCapsuleConvex.obj
 0001:00001ec0       ??__EmaxV4Error@_VecMathTests@aos@shdfnd@physx@@YAXXZ 0000000180002ec0 f   GuPCMContactCapsuleConvex.obj
 0001:00001ed0       ??__EminFError@_VecMathTests@aos@shdfnd@physx@@YAXXZ 0000000180002ed0 f   GuPCMContactCapsuleConvex.obj
 0001:00001ee0       ??__EminV3Error@_VecMathTests@aos@shdfnd@physx@@YAXXZ 0000000180002ee0 f   GuPCMContactCapsuleConvex.obj
 0001:00001ef0       ??__EminV4Error@_VecMathTests@aos@shdfnd@physx@@YAXXZ 0000000180002ef0 f   GuPCMContactCapsuleConvex.obj
 0001:00001f00       ??__EmaxFError@_VecMathTests@aos@shdfnd@physx@@YAXXZ 0000000180002f00 f   GuPCMContactCapsuleHeightField.obj
 0001:00001f10       ??__EmaxV3Error@_VecMathTests@aos@shdfnd@physx@@YAXXZ 0000000180002f10 f   GuPCMContactCapsuleHeightField.obj
 0001:00001f20       ??__EmaxV4Error@_VecMathTests@aos@shdfnd@physx@@YAXXZ 0000000180002f20 f   GuPCMContactCapsuleHeightField.obj
 0001:00001f30       ??__EminFError@_VecMathTests@aos@shdfnd@physx@@YAXXZ 0000000180002f30 f   GuPCMContactCapsuleHeightField.obj
 0001:00001f40       ??__EminV3Error@_VecMathTests@aos@shdfnd@physx@@YAXXZ 0000000180002f40 f   GuPCMContactCapsuleHeightField.obj
 0001:00001f50       ??__EminV4Error@_VecMathTests@aos@shdfnd@physx@@YAXXZ 0000000180002f50 f   GuPCMContactCapsuleHeightField.obj
 0001:00001f60       ??__EmaxFError@_VecMathTests@aos@shdfnd@physx@@YAXXZ 0000000180002f60 f   GuPCMContactCapsuleMesh.obj
 0001:00001f70       ??__EmaxV3Error@_VecMathTests@aos@shdfnd@physx@@YAXXZ 0000000180002f70 f   GuPCMContactCapsuleMesh.obj
 0001:00001f80       ??__EmaxV4Error@_VecMathTests@aos@shdfnd@physx@@YAXXZ 0000000180002f80 f   GuPCMContactCapsuleMesh.obj
 0001:00001f90       ??__EminFError@_VecMathTests@aos@shdfnd@physx@@YAXXZ 0000000180002f90 f   GuPCMContactCapsuleMesh.obj
 0001:00001fa0       ??__EminV3Error@_VecMathTests@aos@shdfnd@physx@@YAXXZ 0000000180002fa0 f   GuPCMContactCapsuleMesh.obj
 0001:00001fb0       ??__EminV4Error@_VecMathTests@aos@shdfnd@physx@@YAXXZ 0000000180002fb0 f   GuPCMContactCapsuleMesh.obj
 0001:00001fc0       ??__EmaxFError@_VecMathTests@aos@shdfnd@physx@@YAXXZ 0000000180002fc0 f   GuPCMContactConvexCommon.obj
 0001:00001fd0       ??__EmaxV3Error@_VecMathTests@aos@shdfnd@physx@@YAXXZ 0000000180002fd0 f   GuPCMContactConvexCommon.obj
 0001:00001fe0       ??__EmaxV4Error@_VecMathTests@aos@shdfnd@physx@@YAXXZ 0000000180002fe0 f   GuPCMContactConvexCommon.obj
 0001:00001ff0       ??__EminFError@_VecMathTests@aos@shdfnd@physx@@YAXXZ 0000000180002ff0 f   GuPCMContactConvexCommon.obj
 0001:00002000       ??__EminV3Error@_VecMathTests@aos@shdfnd@physx@@YAXXZ 0000000180003000 f   GuPCMContactConvexCommon.obj
 0001:00002010       ??__EminV4Error@_VecMathTests@aos@shdfnd@physx@@YAXXZ 0000000180003010 f   GuPCMContactConvexCommon.obj
 0001:00002020       ??__EmaxFError@_VecMathTests@aos@shdfnd@physx@@YAXXZ 0000000180003020 f   GuPCMContactConvexConvex.obj
 0001:00002030       ??__EmaxV3Error@_VecMathTests@aos@shdfnd@physx@@YAXXZ 0000000180003030 f   GuPCMContactConvexConvex.obj
 0001:00002040       ??__EmaxV4Error@_VecMathTests@aos@shdfnd@physx@@YAXXZ 0000000180003040 f   GuPCMContactConvexConvex.obj
 0001:00002050       ??__EminFError@_VecMathTests@aos@shdfnd@physx@@YAXXZ 0000000180003050 f   GuPCMContactConvexConvex.obj
 0001:00002060       ??__EminV3Error@_VecMathTests@aos@shdfnd@physx@@YAXXZ 0000000180003060 f   GuPCMContactConvexConvex.obj
 0001:00002070       ??__EminV4Error@_VecMathTests@aos@shdfnd@physx@@YAXXZ 0000000180003070 f   GuPCMContactConvexConvex.obj
 0001:00002080       ??__EmaxFError@_VecMathTests@aos@shdfnd@physx@@YAXXZ 0000000180003080 f   GuPCMContactConvexHeightField.obj
 0001:00002090       ??__EmaxV3Error@_VecMathTests@aos@shdfnd@physx@@YAXXZ 0000000180003090 f   GuPCMContactConvexHeightField.obj
 0001:000020a0       ??__EmaxV4Error@_VecMathTests@aos@shdfnd@physx@@YAXXZ 00000001800030a0 f   GuPCMContactConvexHeightField.obj
 0001:000020b0       ??__EminFError@_VecMathTests@aos@shdfnd@physx@@YAXXZ 00000001800030b0 f   GuPCMContactConvexHeightField.obj
 0001:000020c0       ??__EminV3Error@_VecMathTests@aos@shdfnd@physx@@YAXXZ 00000001800030c0 f   GuPCMContactConvexHeightField.obj
 0001:000020d0       ??__EminV4Error@_VecMathTests@aos@shdfnd@physx@@YAXXZ 00000001800030d0 f   GuPCMContactConvexHeightField.obj
 0001:000020e0       ??__EmaxFError@_VecMathTests@aos@shdfnd@physx@@YAXXZ 00000001800030e0 f   GuPCMContactConvexMesh.obj
 0001:000020f0       ??__EmaxV3Error@_VecMathTests@aos@shdfnd@physx@@YAXXZ 00000001800030f0 f   GuPCMContactConvexMesh.obj
 0001:00002100       ??__EmaxV4Error@_VecMathTests@aos@shdfnd@physx@@YAXXZ 0000000180003100 f   GuPCMContactConvexMesh.obj
 0001:00002110       ??__EminFError@_VecMathTests@aos@shdfnd@physx@@YAXXZ 0000000180003110 f   GuPCMContactConvexMesh.obj
 0001:00002120       ??__EminV3Error@_VecMathTests@aos@shdfnd@physx@@YAXXZ 0000000180003120 f   GuPCMContactConvexMesh.obj
 0001:00002130       ??__EminV4Error@_VecMathTests@aos@shdfnd@physx@@YAXXZ 0000000180003130 f   GuPCMContactConvexMesh.obj
 0001:00002140       ??__EmaxFError@_VecMathTests@aos@shdfnd@physx@@YAXXZ 0000000180003140 f   GuPCMContactGenBoxConvex.obj
 0001:00002150       ??__EmaxV3Error@_VecMathTests@aos@shdfnd@physx@@YAXXZ 0000000180003150 f   GuPCMContactGenBoxConvex.obj
 0001:00002160       ??__EmaxV4Error@_VecMathTests@aos@shdfnd@physx@@YAXXZ 0000000180003160 f   GuPCMContactGenBoxConvex.obj
 0001:00002170       ??__EminFError@_VecMathTests@aos@shdfnd@physx@@YAXXZ 0000000180003170 f   GuPCMContactGenBoxConvex.obj
 0001:00002180       ??__EminV3Error@_VecMathTests@aos@shdfnd@physx@@YAXXZ 0000000180003180 f   GuPCMContactGenBoxConvex.obj
 0001:00002190       ??__EminV4Error@_VecMathTests@aos@shdfnd@physx@@YAXXZ 0000000180003190 f   GuPCMContactGenBoxConvex.obj
 0001:000021a0       ??__EmaxFError@_VecMathTests@aos@shdfnd@physx@@YAXXZ 00000001800031a0 f   GuPCMContactGenSphereCapsule.obj
 0001:000021b0       ??__EmaxV3Error@_VecMathTests@aos@shdfnd@physx@@YAXXZ 00000001800031b0 f   GuPCMContactGenSphereCapsule.obj
 0001:000021c0       ??__EmaxV4Error@_VecMathTests@aos@shdfnd@physx@@YAXXZ 00000001800031c0 f   GuPCMContactGenSphereCapsule.obj
 0001:000021d0       ??__EminFError@_VecMathTests@aos@shdfnd@physx@@YAXXZ 00000001800031d0 f   GuPCMContactGenSphereCapsule.obj
 0001:000021e0       ??__EminV3Error@_VecMathTests@aos@shdfnd@physx@@YAXXZ 00000001800031e0 f   GuPCMContactGenSphereCapsule.obj
 0001:000021f0       ??__EminV4Error@_VecMathTests@aos@shdfnd@physx@@YAXXZ 00000001800031f0 f   GuPCMContactGenSphereCapsule.obj
 0001:00002200       ??__EmaxFError@_VecMathTests@aos@shdfnd@physx@@YAXXZ 0000000180003200 f   GuPCMContactPlaneBox.obj
 0001:00002210       ??__EmaxV3Error@_VecMathTests@aos@shdfnd@physx@@YAXXZ 0000000180003210 f   GuPCMContactPlaneBox.obj
 0001:00002220       ??__EmaxV4Error@_VecMathTests@aos@shdfnd@physx@@YAXXZ 0000000180003220 f   GuPCMContactPlaneBox.obj
 0001:00002230       ??__EminFError@_VecMathTests@aos@shdfnd@physx@@YAXXZ 0000000180003230 f   GuPCMContactPlaneBox.obj
 0001:00002240       ??__EminV3Error@_VecMathTests@aos@shdfnd@physx@@YAXXZ 0000000180003240 f   GuPCMContactPlaneBox.obj
 0001:00002250       ??__EminV4Error@_VecMathTests@aos@shdfnd@physx@@YAXXZ 0000000180003250 f   GuPCMContactPlaneBox.obj
 0001:00002260       ??__EmaxFError@_VecMathTests@aos@shdfnd@physx@@YAXXZ 0000000180003260 f   GuPCMContactPlaneCapsule.obj
 0001:00002270       ??__EmaxV3Error@_VecMathTests@aos@shdfnd@physx@@YAXXZ 0000000180003270 f   GuPCMContactPlaneCapsule.obj
 0001:00002280       ??__EmaxV4Error@_VecMathTests@aos@shdfnd@physx@@YAXXZ 0000000180003280 f   GuPCMContactPlaneCapsule.obj
 0001:00002290       ??__EminFError@_VecMathTests@aos@shdfnd@physx@@YAXXZ 0000000180003290 f   GuPCMContactPlaneCapsule.obj
 0001:000022a0       ??__EminV3Error@_VecMathTests@aos@shdfnd@physx@@YAXXZ 00000001800032a0 f   GuPCMContactPlaneCapsule.obj
 0001:000022b0       ??__EminV4Error@_VecMathTests@aos@shdfnd@physx@@YAXXZ 00000001800032b0 f   GuPCMContactPlaneCapsule.obj
 0001:000022c0       ??__EmaxFError@_VecMathTests@aos@shdfnd@physx@@YAXXZ 00000001800032c0 f   GuPCMContactPlaneConvex.obj
 0001:000022d0       ??__EmaxV3Error@_VecMathTests@aos@shdfnd@physx@@YAXXZ 00000001800032d0 f   GuPCMContactPlaneConvex.obj
 0001:000022e0       ??__EmaxV4Error@_VecMathTests@aos@shdfnd@physx@@YAXXZ 00000001800032e0 f   GuPCMContactPlaneConvex.obj
 0001:000022f0       ??__EminFError@_VecMathTests@aos@shdfnd@physx@@YAXXZ 00000001800032f0 f   GuPCMContactPlaneConvex.obj
 0001:00002300       ??__EminV3Error@_VecMathTests@aos@shdfnd@physx@@YAXXZ 0000000180003300 f   GuPCMContactPlaneConvex.obj
 0001:00002310       ??__EminV4Error@_VecMathTests@aos@shdfnd@physx@@YAXXZ 0000000180003310 f   GuPCMContactPlaneConvex.obj
 0001:00002320       ??__EmaxFError@_VecMathTests@aos@shdfnd@physx@@YAXXZ 0000000180003320 f   GuPCMContactSphereBox.obj
 0001:00002330       ??__EmaxV3Error@_VecMathTests@aos@shdfnd@physx@@YAXXZ 0000000180003330 f   GuPCMContactSphereBox.obj
 0001:00002340       ??__EmaxV4Error@_VecMathTests@aos@shdfnd@physx@@YAXXZ 0000000180003340 f   GuPCMContactSphereBox.obj
 0001:00002350       ??__EminFError@_VecMathTests@aos@shdfnd@physx@@YAXXZ 0000000180003350 f   GuPCMContactSphereBox.obj
 0001:00002360       ??__EminV3Error@_VecMathTests@aos@shdfnd@physx@@YAXXZ 0000000180003360 f   GuPCMContactSphereBox.obj
 0001:00002370       ??__EminV4Error@_VecMathTests@aos@shdfnd@physx@@YAXXZ 0000000180003370 f   GuPCMContactSphereBox.obj
 0001:00002380       ??__EmaxFError@_VecMathTests@aos@shdfnd@physx@@YAXXZ 0000000180003380 f   GuPCMContactSphereCapsule.obj
 0001:00002390       ??__EmaxV3Error@_VecMathTests@aos@shdfnd@physx@@YAXXZ 0000000180003390 f   GuPCMContactSphereCapsule.obj
 0001:000023a0       ??__EmaxV4Error@_VecMathTests@aos@shdfnd@physx@@YAXXZ 00000001800033a0 f   GuPCMContactSphereCapsule.obj
 0001:000023b0       ??__EminFError@_VecMathTests@aos@shdfnd@physx@@YAXXZ 00000001800033b0 f   GuPCMContactSphereCapsule.obj
 0001:000023c0       ??__EminV3Error@_VecMathTests@aos@shdfnd@physx@@YAXXZ 00000001800033c0 f   GuPCMContactSphereCapsule.obj
 0001:000023d0       ??__EminV4Error@_VecMathTests@aos@shdfnd@physx@@YAXXZ 00000001800033d0 f   GuPCMContactSphereCapsule.obj
 0001:000023e0       ??__EmaxFError@_VecMathTests@aos@shdfnd@physx@@YAXXZ 00000001800033e0 f   GuPCMContactSphereConvex.obj
 0001:000023f0       ??__EmaxV3Error@_VecMathTests@aos@shdfnd@physx@@YAXXZ 00000001800033f0 f   GuPCMContactSphereConvex.obj
 0001:00002400       ??__EmaxV4Error@_VecMathTests@aos@shdfnd@physx@@YAXXZ 0000000180003400 f   GuPCMContactSphereConvex.obj
 0001:00002410       ??__EminFError@_VecMathTests@aos@shdfnd@physx@@YAXXZ 0000000180003410 f   GuPCMContactSphereConvex.obj
 0001:00002420       ??__EminV3Error@_VecMathTests@aos@shdfnd@physx@@YAXXZ 0000000180003420 f   GuPCMContactSphereConvex.obj
 0001:00002430       ??__EminV4Error@_VecMathTests@aos@shdfnd@physx@@YAXXZ 0000000180003430 f   GuPCMContactSphereConvex.obj
 0001:00002440       ??__EmaxFError@_VecMathTests@aos@shdfnd@physx@@YAXXZ 0000000180003440 f   GuPCMContactSphereHeightField.obj
 0001:00002450       ??__EmaxV3Error@_VecMathTests@aos@shdfnd@physx@@YAXXZ 0000000180003450 f   GuPCMContactSphereHeightField.obj
 0001:00002460       ??__EmaxV4Error@_VecMathTests@aos@shdfnd@physx@@YAXXZ 0000000180003460 f   GuPCMContactSphereHeightField.obj
 0001:00002470       ??__EminFError@_VecMathTests@aos@shdfnd@physx@@YAXXZ 0000000180003470 f   GuPCMContactSphereHeightField.obj
 0001:00002480       ??__EminV3Error@_VecMathTests@aos@shdfnd@physx@@YAXXZ 0000000180003480 f   GuPCMContactSphereHeightField.obj
 0001:00002490       ??__EminV4Error@_VecMathTests@aos@shdfnd@physx@@YAXXZ 0000000180003490 f   GuPCMContactSphereHeightField.obj
 0001:000024a0       ??__EmaxFError@_VecMathTests@aos@shdfnd@physx@@YAXXZ 00000001800034a0 f   GuPCMContactSphereMesh.obj
 0001:000024b0       ??__EmaxV3Error@_VecMathTests@aos@shdfnd@physx@@YAXXZ 00000001800034b0 f   GuPCMContactSphereMesh.obj
 0001:000024c0       ??__EmaxV4Error@_VecMathTests@aos@shdfnd@physx@@YAXXZ 00000001800034c0 f   GuPCMContactSphereMesh.obj
 0001:000024d0       ??__EminFError@_VecMathTests@aos@shdfnd@physx@@YAXXZ 00000001800034d0 f   GuPCMContactSphereMesh.obj
 0001:000024e0       ??__EminV3Error@_VecMathTests@aos@shdfnd@physx@@YAXXZ 00000001800034e0 f   GuPCMContactSphereMesh.obj
 0001:000024f0       ??__EminV4Error@_VecMathTests@aos@shdfnd@physx@@YAXXZ 00000001800034f0 f   GuPCMContactSphereMesh.obj
 0001:00002500       ??__EmaxFError@_VecMathTests@aos@shdfnd@physx@@YAXXZ 0000000180003500 f   GuPCMContactSpherePlane.obj
 0001:00002510       ??__EmaxV3Error@_VecMathTests@aos@shdfnd@physx@@YAXXZ 0000000180003510 f   GuPCMContactSpherePlane.obj
 0001:00002520       ??__EmaxV4Error@_VecMathTests@aos@shdfnd@physx@@YAXXZ 0000000180003520 f   GuPCMContactSpherePlane.obj
 0001:00002530       ??__EminFError@_VecMathTests@aos@shdfnd@physx@@YAXXZ 0000000180003530 f   GuPCMContactSpherePlane.obj
 0001:00002540       ??__EminV3Error@_VecMathTests@aos@shdfnd@physx@@YAXXZ 0000000180003540 f   GuPCMContactSpherePlane.obj
 0001:00002550       ??__EminV4Error@_VecMathTests@aos@shdfnd@physx@@YAXXZ 0000000180003550 f   GuPCMContactSpherePlane.obj
 0001:00002560       ??__EmaxFError@_VecMathTests@aos@shdfnd@physx@@YAXXZ 0000000180003560 f   GuPCMContactSphereSphere.obj
 0001:00002570       ??__EmaxV3Error@_VecMathTests@aos@shdfnd@physx@@YAXXZ 0000000180003570 f   GuPCMContactSphereSphere.obj
 0001:00002580       ??__EmaxV4Error@_VecMathTests@aos@shdfnd@physx@@YAXXZ 0000000180003580 f   GuPCMContactSphereSphere.obj
 0001:00002590       ??__EminFError@_VecMathTests@aos@shdfnd@physx@@YAXXZ 0000000180003590 f   GuPCMContactSphereSphere.obj
 0001:000025a0       ??__EminV3Error@_VecMathTests@aos@shdfnd@physx@@YAXXZ 00000001800035a0 f   GuPCMContactSphereSphere.obj
 0001:000025b0       ??__EminV4Error@_VecMathTests@aos@shdfnd@physx@@YAXXZ 00000001800035b0 f   GuPCMContactSphereSphere.obj
 0001:000025c0       ??__EmaxFError@_VecMathTests@aos@shdfnd@physx@@YAXXZ 00000001800035c0 f   GuPCMShapeConvex.obj
 0001:000025d0       ??__EmaxV3Error@_VecMathTests@aos@shdfnd@physx@@YAXXZ 00000001800035d0 f   GuPCMShapeConvex.obj
 0001:000025e0       ??__EmaxV4Error@_VecMathTests@aos@shdfnd@physx@@YAXXZ 00000001800035e0 f   GuPCMShapeConvex.obj
 0001:000025f0       ??__EminFError@_VecMathTests@aos@shdfnd@physx@@YAXXZ 00000001800035f0 f   GuPCMShapeConvex.obj
 0001:00002600       ??__EminV3Error@_VecMathTests@aos@shdfnd@physx@@YAXXZ 0000000180003600 f   GuPCMShapeConvex.obj
 0001:00002610       ??__EminV4Error@_VecMathTests@aos@shdfnd@physx@@YAXXZ 0000000180003610 f   GuPCMShapeConvex.obj
 0001:00002620       ??__EmaxFError@_VecMathTests@aos@shdfnd@physx@@YAXXZ 0000000180003620 f   GuPCMTriangleContactGen.obj
 0001:00002630       ??__EmaxV3Error@_VecMathTests@aos@shdfnd@physx@@YAXXZ 0000000180003630 f   GuPCMTriangleContactGen.obj
 0001:00002640       ??__EmaxV4Error@_VecMathTests@aos@shdfnd@physx@@YAXXZ 0000000180003640 f   GuPCMTriangleContactGen.obj
 0001:00002650       ??__EminFError@_VecMathTests@aos@shdfnd@physx@@YAXXZ 0000000180003650 f   GuPCMTriangleContactGen.obj
 0001:00002660       ??__EminV3Error@_VecMathTests@aos@shdfnd@physx@@YAXXZ 0000000180003660 f   GuPCMTriangleContactGen.obj
 0001:00002670       ??__EminV4Error@_VecMathTests@aos@shdfnd@physx@@YAXXZ 0000000180003670 f   GuPCMTriangleContactGen.obj
 0001:00002680       ??__EmaxFError@_VecMathTests@aos@shdfnd@physx@@YAXXZ 0000000180003680 f   GuPersistentContactManifold.obj
 0001:00002690       ??__EmaxV3Error@_VecMathTests@aos@shdfnd@physx@@YAXXZ 0000000180003690 f   GuPersistentContactManifold.obj
 0001:000026a0       ??__EmaxV4Error@_VecMathTests@aos@shdfnd@physx@@YAXXZ 00000001800036a0 f   GuPersistentContactManifold.obj
 0001:000026b0       ??__EminFError@_VecMathTests@aos@shdfnd@physx@@YAXXZ 00000001800036b0 f   GuPersistentContactManifold.obj
 0001:000026c0       ??__EminV3Error@_VecMathTests@aos@shdfnd@physx@@YAXXZ 00000001800036c0 f   GuPersistentContactManifold.obj
 0001:000026d0       ??__EminV4Error@_VecMathTests@aos@shdfnd@physx@@YAXXZ 00000001800036d0 f   GuPersistentContactManifold.obj
 0001:000026e0       ??__EmaxFError@_VecMathTests@aos@shdfnd@physx@@YAXXZ 00000001800036e0 f   GuSweepBoxBox.obj
 0001:000026f0       ??__EmaxV3Error@_VecMathTests@aos@shdfnd@physx@@YAXXZ 00000001800036f0 f   GuSweepBoxBox.obj
 0001:00002700       ??__EmaxV4Error@_VecMathTests@aos@shdfnd@physx@@YAXXZ 0000000180003700 f   GuSweepBoxBox.obj
 0001:00002710       ??__EminFError@_VecMathTests@aos@shdfnd@physx@@YAXXZ 0000000180003710 f   GuSweepBoxBox.obj
 0001:00002720       ??__EminV3Error@_VecMathTests@aos@shdfnd@physx@@YAXXZ 0000000180003720 f   GuSweepBoxBox.obj
 0001:00002730       ??__EminV4Error@_VecMathTests@aos@shdfnd@physx@@YAXXZ 0000000180003730 f   GuSweepBoxBox.obj
 0001:00002740       ??__EmaxFError@_VecMathTests@aos@shdfnd@physx@@YAXXZ 0000000180003740 f   GuSweepBoxSphere.obj
 0001:00002750       ??__EmaxV3Error@_VecMathTests@aos@shdfnd@physx@@YAXXZ 0000000180003750 f   GuSweepBoxSphere.obj
 0001:00002760       ??__EmaxV4Error@_VecMathTests@aos@shdfnd@physx@@YAXXZ 0000000180003760 f   GuSweepBoxSphere.obj
 0001:00002770       ??__EminFError@_VecMathTests@aos@shdfnd@physx@@YAXXZ 0000000180003770 f   GuSweepBoxSphere.obj
 0001:00002780       ??__EminV3Error@_VecMathTests@aos@shdfnd@physx@@YAXXZ 0000000180003780 f   GuSweepBoxSphere.obj
 0001:00002790       ??__EminV4Error@_VecMathTests@aos@shdfnd@physx@@YAXXZ 0000000180003790 f   GuSweepBoxSphere.obj
 0001:000027a0       ??__EmaxFError@_VecMathTests@aos@shdfnd@physx@@YAXXZ 00000001800037a0 f   GuSweepBoxTriangle_FeatureBased.obj
 0001:000027b0       ??__EmaxV3Error@_VecMathTests@aos@shdfnd@physx@@YAXXZ 00000001800037b0 f   GuSweepBoxTriangle_FeatureBased.obj
 0001:000027c0       ??__EmaxV4Error@_VecMathTests@aos@shdfnd@physx@@YAXXZ 00000001800037c0 f   GuSweepBoxTriangle_FeatureBased.obj
 0001:000027d0       ??__EminFError@_VecMathTests@aos@shdfnd@physx@@YAXXZ 00000001800037d0 f   GuSweepBoxTriangle_FeatureBased.obj
 0001:000027e0       ??__EminV3Error@_VecMathTests@aos@shdfnd@physx@@YAXXZ 00000001800037e0 f   GuSweepBoxTriangle_FeatureBased.obj
 0001:000027f0       ??__EminV4Error@_VecMathTests@aos@shdfnd@physx@@YAXXZ 00000001800037f0 f   GuSweepBoxTriangle_FeatureBased.obj
 0001:00002800       ??__EmaxFError@_VecMathTests@aos@shdfnd@physx@@YAXXZ 0000000180003800 f   GuSweepBoxTriangle_SAT.obj
 0001:00002810       ??__EmaxV3Error@_VecMathTests@aos@shdfnd@physx@@YAXXZ 0000000180003810 f   GuSweepBoxTriangle_SAT.obj
 0001:00002820       ??__EmaxV4Error@_VecMathTests@aos@shdfnd@physx@@YAXXZ 0000000180003820 f   GuSweepBoxTriangle_SAT.obj
 0001:00002830       ??__EminFError@_VecMathTests@aos@shdfnd@physx@@YAXXZ 0000000180003830 f   GuSweepBoxTriangle_SAT.obj
 0001:00002840       ??__EminV3Error@_VecMathTests@aos@shdfnd@physx@@YAXXZ 0000000180003840 f   GuSweepBoxTriangle_SAT.obj
 0001:00002850       ??__EminV4Error@_VecMathTests@aos@shdfnd@physx@@YAXXZ 0000000180003850 f   GuSweepBoxTriangle_SAT.obj
 0001:00002860       ??__EmaxFError@_VecMathTests@aos@shdfnd@physx@@YAXXZ 0000000180003860 f   GuSweepCapsuleBox.obj
 0001:00002870       ??__EmaxV3Error@_VecMathTests@aos@shdfnd@physx@@YAXXZ 0000000180003870 f   GuSweepCapsuleBox.obj
 0001:00002880       ??__EmaxV4Error@_VecMathTests@aos@shdfnd@physx@@YAXXZ 0000000180003880 f   GuSweepCapsuleBox.obj
 0001:00002890       ??__EminFError@_VecMathTests@aos@shdfnd@physx@@YAXXZ 0000000180003890 f   GuSweepCapsuleBox.obj
 0001:000028a0       ??__EminV3Error@_VecMathTests@aos@shdfnd@physx@@YAXXZ 00000001800038a0 f   GuSweepCapsuleBox.obj
 0001:000028b0       ??__EminV4Error@_VecMathTests@aos@shdfnd@physx@@YAXXZ 00000001800038b0 f   GuSweepCapsuleBox.obj
 0001:000028c0       ??__EmaxFError@_VecMathTests@aos@shdfnd@physx@@YAXXZ 00000001800038c0 f   GuSweepCapsuleTriangle.obj
 0001:000028d0       ??__EmaxV3Error@_VecMathTests@aos@shdfnd@physx@@YAXXZ 00000001800038d0 f   GuSweepCapsuleTriangle.obj
 0001:000028e0       ??__EmaxV4Error@_VecMathTests@aos@shdfnd@physx@@YAXXZ 00000001800038e0 f   GuSweepCapsuleTriangle.obj
 0001:000028f0       ??__EminFError@_VecMathTests@aos@shdfnd@physx@@YAXXZ 00000001800038f0 f   GuSweepCapsuleTriangle.obj
 0001:00002900       ??__EminV3Error@_VecMathTests@aos@shdfnd@physx@@YAXXZ 0000000180003900 f   GuSweepCapsuleTriangle.obj
 0001:00002910       ??__EminV4Error@_VecMathTests@aos@shdfnd@physx@@YAXXZ 0000000180003910 f   GuSweepCapsuleTriangle.obj
 0001:00002920       ??__EmaxFError@_VecMathTests@aos@shdfnd@physx@@YAXXZ 0000000180003920 f   GuSweepSphereTriangle.obj
