 PhysXCooking_64

 Timestamp is 683024b5 (Fri May 23 16:33:09 2025)

 Preferred load address is 0000000180000000

 Start         Length     Name                   Class
 0001:00000000 000003c0H .text$di                CODE
 0001:000003c0 00048160H .text$mn                CODE
 0001:00048520 00000040H .text$mn$00             CODE
 0001:00048560 00000a70H .text$mn$21             CODE
 0001:00048fd0 00000680H .text$x                 CODE
 0002:00000000 00000278H .idata$5                DATA
 0002:00000278 00000038H .00cfg                  DATA
 0002:000002b0 00000008H .CRT$XCA                DATA
 0002:000002b8 000001e0H .CRT$XCU                DATA
 0002:00000498 00000008H .CRT$XCZ                DATA
 0002:000004a0 00000008H .CRT$XIA                DATA
 0002:000004a8 00000018H .CRT$XIC                DATA
 0002:000004c0 00000008H .CRT$XIZ                DATA
 0002:000004c8 00000008H .CRT$XPA                DATA
 0002:000004d0 00000010H .CRT$XPX                DATA
 0002:000004e0 00000008H .CRT$XPXA               DATA
 0002:000004e8 00000008H .CRT$XPZ                DATA
 0002:000004f0 00000008H .CRT$XTA                DATA
 0002:000004f8 00000008H .CRT$XTZ                DATA
 0002:00000500 00000000H .gehcont$y              DATA
 0002:00000500 00000000H .gfids$y                DATA
 0002:00000500 0000b590H .rdata                  DATA
 0002:0000ba90 00000170H .rdata$00               DATA
 0002:0000bc00 00000000H .rdata$CastGuardVftablesA DATA
 0002:0000bc00 00000000H .rdata$CastGuardVftablesC DATA
 0002:0000bc00 00000464H .rdata$r                DATA
 0002:0000c064 00000184H .rdata$voltmd           DATA
 0002:0000c1e8 00000470H .rdata$zzzdbg           DATA
 0002:0000c658 00000008H .rtc$IAA                DATA
 0002:0000c660 00000008H .rtc$IZZ                DATA
 0002:0000c668 00000008H .rtc$TAA                DATA
 0002:0000c670 00000008H .rtc$TZZ                DATA
 0002:0000c678 00004160H .xdata                  DATA
 0002:000107d8 00000084H .xdata$x                DATA
 0002:0001085c 00000040H .didat$2                DATA
 0002:0001089c 00000024H .didat$3                DATA
 0002:000108c0 00000188H .didat$4                DATA
 0002:00010a48 00000950H .didat$6                DATA
 0002:00011398 000002b8H .didat$7                DATA
 0002:00011650 00001d00H .edata                  DATA
 0002:00013350 00000014H .idata$2                DATA
 0002:00013364 00000014H .idata$3                DATA
 0002:00013378 00000278H .idata$4                DATA
 0002:000135f0 000005aeH .idata$6                DATA
 0003:00000000 00000aa0H .data                   DATA
 0003:00000aa0 000005e8H .data$r                 DATA
 0003:00001088 000000f0H .data$rs                DATA
 0003:00001178 00000188H .didat$5                DATA
 0003:00001300 00001560H .bss                    DATA
 0004:00000000 000035c4H .pdata                  DATA
 0005:00000000 00002208H _RDATA                  DATA
 0006:00000000 000000a0H .rsrc$01                DATA
 0006:000000a0 000004b0H .rsrc$02                DATA

  Address         Publics by Value              Rva+Base               Lib:Object

 0000:00000000       __AbsoluteZero             0000000000000000     <absolute>
 0000:00000000       ___safe_se_handler_count   0000000000000000     <absolute>
 0000:00000000       ___safe_se_handler_table   0000000000000000     <absolute>
 0000:00000000       __arm64x_extra_rfe_table   0000000000000000     <absolute>
 0000:00000000       __arm64x_extra_rfe_table_size 0000000000000000     <absolute>
 0000:00000000       __arm64x_native_entrypoint 0000000000000000     <absolute>
 0000:00000000       __arm64x_redirection_metadata 0000000000000000     <absolute>
 0000:00000000       __arm64x_redirection_metadata_count 0000000000000000     <absolute>
 0000:00000000       __dynamic_value_reloc_table 0000000000000000     <absolute>
 0000:00000000       __enclave_config           0000000000000000     <absolute>
 0000:00000000       __guard_check_icall_a64n_fptr 0000000000000000     <absolute>
 0000:00000000       __guard_eh_cont_count      0000000000000000     <absolute>
 0000:00000000       __guard_eh_cont_table      0000000000000000     <absolute>
 0000:00000000       __guard_fids_count         0000000000000000     <absolute>
 0000:00000000       __guard_fids_table         0000000000000000     <absolute>
 0000:00000000       __guard_iat_count          0000000000000000     <absolute>
 0000:00000000       __guard_iat_table          0000000000000000     <absolute>
 0000:00000000       __guard_longjmp_count      0000000000000000     <absolute>
 0000:00000000       __guard_longjmp_table      0000000000000000     <absolute>
 0000:00000000       __hybrid_auxiliary_delayload_iat 0000000000000000     <absolute>
 0000:00000000       __hybrid_auxiliary_delayload_iat_copy 0000000000000000     <absolute>
 0000:00000000       __hybrid_auxiliary_iat     0000000000000000     <absolute>
 0000:00000000       __hybrid_auxiliary_iat_copy 0000000000000000     <absolute>
 0000:00000000       __hybrid_code_map          0000000000000000     <absolute>
 0000:00000000       __hybrid_code_map_count    0000000000000000     <absolute>
 0000:00000000       __hybrid_image_info_bitfield 0000000000000000     <absolute>
 0000:00000000       __x64_code_ranges_to_entry_points 0000000000000000     <absolute>
 0000:00000000       __x64_code_ranges_to_entry_points_count 0000000000000000     <absolute>
 0000:00000100       __guard_flags              0000000000000100     <absolute>
 0000:00000000       __ImageBase                0000000180000000     <linker-defined>
 0001:000003c0       ??$?_UV?$ReflectionAllocator@VAdjTriangle@physx@@@shdfnd@physx@@@UserAllocated@shdfnd@physx@@SAPEAX_KV?$ReflectionAllocator@VAdjTriangle@physx@@@12@PEBDH@Z 00000001800013c0 f i Adjacencies.obj
 0001:00000460       ??0AdjacenciesBuilder@physx@@QEAA@XZ 0000000180001460 f   Adjacencies.obj
 0001:00000470       ??0AABBTreeBuildNode@Gu@physx@@QEAA@XZ 0000000180001470 f i BVHStructureBuilder.obj
 0001:00000470       ??0Allocator@shdfnd@physx@@QEAA@PEBD@Z 0000000180001470 f i Adjacencies.obj
 0001:00000470       ??0BigConvexData@physx@@QEAA@W4PxEMPTY@1@@Z 0000000180001470 f i BigConvexDataBuilder.obj
 0001:00000470       ??0Box@Gu@physx@@QEAA@XZ   0000000180001470 f i ConvexHullUtils.obj
 0001:00000470       ??0HeightFieldData@Gu@physx@@QEAA@W4PxEMPTY@2@@Z 0000000180001470 f i Cooking.obj
 0001:00000470       ??4Allocator@shdfnd@physx@@QEAAAEAV012@$$QEAV012@@Z 0000000180001470 f i Adjacencies.obj
 0001:00000470       ??4Allocator@shdfnd@physx@@QEAAAEAV012@AEBV012@@Z 0000000180001470 f i Adjacencies.obj
 0001:00000470       ??4MutexImpl@shdfnd@physx@@QEAAAEAV012@AEBV012@@Z 0000000180001470 f i Adjacencies.obj
 0001:00000470       ??4PxFoundation@physx@@QEAAAEAV01@AEBV01@@Z 0000000180001470 f i Adjacencies.obj
 0001:00000470       ?getAABB@AABBTreeBuildNode@Gu@physx@@QEBAAEBVPxBounds3@3@XZ 0000000180001470 f i BVHStructureBuilder.obj
 0001:00000470       ?getPaddedBounds@HeightFieldData@Gu@physx@@QEBAAEBVCenterExtentsPadded@23@XZ 0000000180001470 f i Cooking.obj
 0001:00000480       ??0PxFoundation@physx@@QEAA@AEBV01@@Z 0000000180001480 f i Adjacencies.obj
 0001:00000480       ??0PxFoundation@physx@@QEAA@XZ 0000000180001480 f i Adjacencies.obj
 0001:00000490       ??1Adjacencies@physx@@QEAA@XZ 0000000180001490 f   Adjacencies.obj
 0001:00000500       ??1AdjacenciesBuilder@physx@@QEAA@XZ 0000000180001500 f   Adjacencies.obj
 0001:00000510       ??1PxFoundation@physx@@MEAA@XZ 0000000180001510 f i Adjacencies.obj
 0001:00000520       ??_EPxFoundation@physx@@MEAAPEAXI@Z 0000000180001520 f i Adjacencies.obj
 0001:000005b0       ??1AABBTreeBuildNode@Gu@physx@@QEAA@XZ 00000001800015b0 f i BVHStructureBuilder.obj
 0001:000005b0       ??1BigConvexDataBuilder@physx@@QEAA@XZ 00000001800015b0 f i BigConvexDataBuilder.obj
 0001:000005b0       ??1Box@Gu@physx@@QEAA@XZ   00000001800015b0 f i ConvexHullUtils.obj
 0001:000005b0       ??1HeightFieldData@Gu@physx@@QEAA@XZ 00000001800015b0 f i Cooking.obj
 0001:000005b0       ??_FAllocator@shdfnd@physx@@QEAAXXZ 00000001800015b0 f i Adjacencies.obj
 0001:000005b0       ?onMeshIndexFormatChange@TriangleMeshBuilder@physx@@UEAAXXZ 00000001800015b0 f i TriangleMeshBuilder.obj
 0001:000005b0       _guard_check_icall_nop     00000001800015b0 f i LIBCMT:guard_support.obj
 0001:000005c0       ?ComputeNbBoundaryEdges@Adjacencies@physx@@QEBAIXZ 00000001800015c0 f   Adjacencies.obj
 0001:000008b0       ?GetNbHits@RadixSort@Cm@physx@@QEBAIXZ 00000001800018b0 f i Adjacencies.obj
 0001:000008c0       ?GetNbTotalCalls@RadixSort@Cm@physx@@QEBAIXZ 00000001800018c0 f i Adjacencies.obj
 0001:000008d0       ?GetRanks@RadixSort@Cm@physx@@QEBAPEBIXZ 00000001800018d0 f i Adjacencies.obj
 0001:000008d0       ?getErrorCallback@Foundation@shdfnd@physx@@UEAAAEAVPxErrorCallback@3@XZ 00000001800018d0 f i Adjacencies.obj
 0001:000008e0       ?GetRecyclable@RadixSort@Cm@physx@@QEBAPEAIXZ 00000001800018e0 f i Adjacencies.obj
 0001:000008e0       ?GetValencies@BigConvexData@physx@@QEBAPEBUValency@Gu@2@XZ 00000001800018e0 f i BigConvexDataBuilder.obj
 0001:000008e0       ?getPos@AABBTreeBuildNode@Gu@physx@@QEBAPEBV123@XZ 00000001800018e0 f i BVHStructureBuilder.obj
 0001:000008f0       ?Init@AdjacenciesBuilder@physx@@QEAA_NAEBUADJACENCIESCREATE@2@@Z 00000001800018f0 f   Adjacencies.obj
 0001:00000ed0       ?getAllocator@Foundation@shdfnd@physx@@QEAAAEAVPxAllocatorCallback@3@XZ 0000000180001ed0 f i Adjacencies.obj
 0001:00000ee0       ?getAllocatorCallback@Foundation@shdfnd@physx@@UEAAAEAVPxAllocatorCallback@3@XZ 0000000180001ee0 f i Adjacencies.obj
 0001:00000ef0       ?getErrorLevel@Foundation@shdfnd@physx@@UEBA?AW4Enum@PxErrorCode@3@XZ 0000000180001ef0 f i Adjacencies.obj
 0001:00000f00       ?getInternalErrorCallback@Foundation@shdfnd@physx@@QEAAAEAVPxErrorCallback@3@XZ 0000000180001f00 f i Adjacencies.obj
 0001:00000f10       ?getNamedAllocMap@Foundation@shdfnd@physx@@QEAAAEAV?$HashMap@PEBVNamedAllocator@shdfnd@physx@@PEBDU?$Hash@PEBVNamedAllocator@shdfnd@physx@@@23@VNonTrackingAllocator@23@@23@XZ 0000000180001f10 f i Adjacencies.obj
 0001:00000f20       ?getNamedAllocMutex@Foundation@shdfnd@physx@@QEAAAEAV?$MutexT@VAllocator@shdfnd@physx@@@23@XZ 0000000180001f20 f i Adjacencies.obj
 0001:00000f30       ?getReportAllocationNames@Foundation@shdfnd@physx@@UEBA_NXZ 0000000180001f30 f i Adjacencies.obj
 0001:00000f40       ?getTempAllocFreeTable@Foundation@shdfnd@physx@@QEAAAEAV?$Array@PEATTempAllocatorChunk@shdfnd@physx@@VAllocator@23@@23@XZ 0000000180001f40 f i Adjacencies.obj
 0001:00000f50       ?getTempAllocMutex@Foundation@shdfnd@physx@@QEAAAEAV?$MutexT@VAllocator@shdfnd@physx@@@23@XZ 0000000180001f50 f i Adjacencies.obj
 0001:00000f60       ?invalidateRanks@RadixSort@Cm@physx@@QEAAXXZ 0000000180001f60 f i Adjacencies.obj
 0001:00000f70       ?setErrorLevel@Foundation@shdfnd@physx@@UEAAXW4Enum@PxErrorCode@3@@Z 0000000180001f70 f i Adjacencies.obj
 0001:00000f80       ?setReportAllocationNames@Foundation@shdfnd@physx@@UEAAX_N@Z 0000000180001f80 f i Adjacencies.obj
 0001:00000f90       ??0DebugText@Cm@physx@@QEAA@$$QEAU012@@Z 0000000180001f90 f i Cooking.obj
 0001:00000f90       ??0DebugText@Cm@physx@@QEAA@AEBU012@@Z 0000000180001f90 f i Cooking.obj
 0001:00001070       ??0HeightFieldData@Gu@physx@@QEAA@$$QEAU012@@Z 0000000180002070 f i Cooking.obj
 0001:00001070       ??0HeightFieldData@Gu@physx@@QEAA@AEBU012@@Z 0000000180002070 f i Cooking.obj
 0001:00001070       ??4HeightFieldData@Gu@physx@@QEAAAEAU012@$$QEAU012@@Z 0000000180002070 f i Cooking.obj
 0001:00001070       ??4HeightFieldData@Gu@physx@@QEAAAEAU012@AEBU012@@Z 0000000180002070 f i Cooking.obj
 0001:000010d0       ??0HeightFieldData@Gu@physx@@QEAA@XZ 00000001800020d0 f i Cooking.obj
 0001:000010e0       ??0RenderOutput@Cm@physx@@QEAA@AEAVRenderBuffer@12@@Z 00000001800020e0 f i Cooking.obj
 0001:00001130       ??0RenderOutput@Cm@physx@@QEAA@AEBV012@@Z 0000000180002130 f i Cooking.obj
 0001:000011d0       ??1PxConvexMesh@physx@@MEAA@XZ 00000001800021d0 f i Cooking.obj
 0001:000011d0       ??1PxHeightField@physx@@MEAA@XZ 00000001800021d0 f i Cooking.obj
 0001:000011e0       ??4DebugText@Cm@physx@@QEAAAEAU012@$$QEAU012@@Z 00000001800021e0 f i Cooking.obj
 0001:000011e0       ??4DebugText@Cm@physx@@QEAAAEAU012@AEBU012@@Z 00000001800021e0 f i Cooking.obj
 0001:00001310       ??4FPUGuard@shdfnd@physx@@QEAAAEAV012@AEBV012@@Z 0000000180002310 f i Cooking.obj
 0001:00001330       ??_ECooking@physx@@UEAAPEAXI@Z 0000000180002330 f i Cooking.obj
 0001:00001330       ??_GCooking@physx@@UEAAPEAXI@Z 0000000180002330 f i Cooking.obj
 0001:00001380       ??_EPxBase@physx@@MEAAPEAXI@Z 0000000180002380 f i Cooking.obj
 0001:00001380       ??_GPxBase@physx@@MEAAPEAXI@Z 0000000180002380 f i Cooking.obj
 0001:000013b0       ??_EPxCooking@physx@@MEAAPEAXI@Z 00000001800023b0 f i Cooking.obj
 0001:000013b0       ??_GPxCooking@physx@@MEAAPEAXI@Z 00000001800023b0 f i Cooking.obj
 0001:000013e0       ?allocate@?$Array@UPxDebugLine@physx@@V?$ReflectionAllocator@UPxDebugLine@physx@@@shdfnd@2@@shdfnd@physx@@IEAAPEAUPxDebugLine@3@I@Z 00000001800023e0 f i Cooking.obj
 0001:00001480       ?computeHullPolygons@Cooking@physx@@UEBA_NAEBVPxSimpleTriangleMesh@2@AEAVPxAllocatorCallback@2@AEAIAEAPEAVPxVec3@2@2AEAPEAI2AEAPEAUPxHullPolygon@2@@Z 0000000180002480 f   Cooking.obj
 0001:00001670       ?cookBVHStructure@Cooking@physx@@UEBA_NAEBVPxBVHStructureDesc@2@AEAVPxOutputStream@2@@Z 0000000180002670 f   Cooking.obj
 0001:00001720       ?cookConvexMesh@Cooking@physx@@UEBA_NAEBVPxConvexMeshDesc@2@AEAVPxOutputStream@2@PEAW4Enum@PxConvexMeshCookingResult@2@@Z 0000000180002720 f   Cooking.obj
 0001:00001900       ?cookConvexMeshInternal@Cooking@physx@@AEBA_NAEBVPxConvexMeshDesc@2@AEAVConvexMeshBuilder@2@PEAVConvexHullLib@2@PEAW4Enum@PxConvexMeshCookingResult@2@@Z 0000000180002900 f   Cooking.obj
 0001:00001be0       ?cookHeightField@Cooking@physx@@UEBA_NAEBVPxHeightFieldDesc@2@AEAVPxOutputStream@2@@Z 0000000180002be0 f   Cooking.obj
 0001:00001cb0       ?cookTriangleMesh@Cooking@physx@@UEBA_NAEBVPxTriangleMeshDesc@2@AEAVPxOutputStream@2@PEAW4Enum@PxTriangleMeshCookingResult@2@@Z 0000000180002cb0 f   Cooking.obj
 0001:00001df0       ?copy@?$Array@UPxDebugLine@physx@@V?$ReflectionAllocator@UPxDebugLine@physx@@@shdfnd@2@@shdfnd@physx@@KAXPEAUPxDebugLine@3@0PEBU43@@Z 0000000180002df0 f i Cooking.obj
 0001:00001df0       ?copy@?$Array@URTreeNodeNQ@physx@@V?$ReflectionAllocator@URTreeNodeNQ@physx@@@shdfnd@2@@shdfnd@physx@@KAXPEAURTreeNodeNQ@3@0PEBU43@@Z 0000000180002df0 f i RTreeCooking.obj
 0001:00001f90       ?createBVHStructure@Cooking@physx@@UEBAPEAVPxBVHStructure@2@AEBVPxBVHStructureDesc@2@AEAVPxPhysicsInsertionCallback@2@@Z 0000000180002f90 f   Cooking.obj
 0001:00002040       ?createConvexMesh@Cooking@physx@@UEBAPEAVPxConvexMesh@2@AEBVPxConvexMeshDesc@2@AEAVPxPhysicsInsertionCallback@2@PEAW4Enum@PxConvexMeshCookingResult@2@@Z 0000000180003040 f   Cooking.obj
 0001:00002240       ?createHeightField@Cooking@physx@@UEBAPEAVPxHeightField@2@AEBVPxHeightFieldDesc@2@AEAVPxPhysicsInsertionCallback@2@@Z 0000000180003240 f   Cooking.obj
 0001:000023a0       ?createTriangleMesh@Cooking@physx@@UEBAPEAVPxTriangleMesh@2@AEBVPxTriangleMeshDesc@2@AEAVPxPhysicsInsertionCallback@2@PEAW4Enum@PxTriangleMeshCookingResult@2@@Z 00000001800033a0 f   Cooking.obj
 0001:000024f0       ?getConcreteTypeName@PxConvexMesh@physx@@UEBAPEBDXZ 00000001800034f0 f i Cooking.obj
 0001:00002500       ?getConcreteTypeName@PxHeightField@physx@@UEBAPEBDXZ 0000000180003500 f i Cooking.obj
 0001:00002510       ?getConvexEdgeThreshold@HeightField@Gu@physx@@UEBAMXZ 0000000180003510 f i Cooking.obj
 0001:00002520       ?getFlags@HeightField@Gu@physx@@UEBA?AV?$PxFlags@W4Enum@PxHeightFieldFlag@physx@@G@3@XZ 0000000180003520 f i Cooking.obj
 0001:00002530       ?getFormat@HeightField@Gu@physx@@UEBA?AW4Enum@PxHeightFieldFormat@3@XZ 0000000180003530 f i Cooking.obj
 0001:00002540       ?getHeight@HeightField@Gu@physx@@UEBAMMM@Z 0000000180003540 f i Cooking.obj
 0001:00002580       ?getHeightInternal2@HeightField@Gu@physx@@QEBAMIMM@Z 0000000180003580 f i Cooking.obj
 0001:000026f0       ?getIndexBuffer@ConvexMesh@Gu@physx@@UEBAPEBEXZ 00000001800036f0 f i Cooking.obj
 0001:00002730       ?getNbColumns@HeightField@Gu@physx@@UEBAIXZ 0000000180003730 f i Cooking.obj
 0001:00002740       ?getNbPolygons@ConvexMesh@Gu@physx@@UEBAIXZ 0000000180003740 f i Cooking.obj
 0001:00002750       ?getNbRows@HeightField@Gu@physx@@UEBAIXZ 0000000180003750 f i Cooking.obj
 0001:00002760       ?getNbVertices@ConvexMesh@Gu@physx@@UEBAIXZ 0000000180003760 f i Cooking.obj
 0001:00002770       ?getDenormalizeScale@QuantizerImpl@@UEBAAEBVPxVec3@physx@@XZ 0000000180003770 f   Quantizer.obj
 0001:00002770       ?getParams@Cooking@physx@@UEBAAEBUPxCookingParams@2@XZ 0000000180003770 f   Cooking.obj
 0001:00002780       ?getSample@HeightField@Gu@physx@@UEBAAEBUPxHeightFieldSample@3@II@Z 0000000180003780 f i Cooking.obj
 0001:00002790       ?getSampleStride@HeightField@Gu@physx@@UEBAIXZ 0000000180003790 f i Cooking.obj
 0001:000027a0       ?getTimestamp@HeightField@Gu@physx@@UEBAIXZ 00000001800037a0 f i Cooking.obj
 0001:000027b0       ?getTriangleMaterialIndex@HeightField@Gu@physx@@UEBAGI@Z 00000001800037b0 f i Cooking.obj
 0001:000027d0       ?getTriangleNormal@HeightField@Gu@physx@@UEBA?AVPxVec3@3@I@Z 00000001800037d0 f i Cooking.obj
 0001:000028e0       ?getVertices@ConvexMesh@Gu@physx@@UEBAPEBVPxVec3@3@XZ 00000001800038e0 f i Cooking.obj
 0001:00002900       ?isKindOf@PxBase@physx@@MEBA_NPEBD@Z 0000000180003900 f i Cooking.obj
 0001:00002920       ?isKindOf@PxConvexMesh@physx@@MEBA_NPEBD@Z 0000000180003920 f i Cooking.obj
 0001:00002960       ?isKindOf@PxHeightField@physx@@MEBA_NPEBD@Z 0000000180003960 f i Cooking.obj
 0001:000029a0       ?isReleasable@PxBase@physx@@UEBA_NXZ 00000001800039a0 f i Cooking.obj
 0001:000029b0       ?outputSegment@RenderOutput@Cm@physx@@QEAAXAEBVPxVec3@3@0@Z 00000001800039b0 f i Cooking.obj
 0001:00002a70       ?platformMismatch@Cooking@physx@@UEBA_NXZ 0000000180003a70 f   Cooking.obj
 0001:00002a80       ?preExportDataReset@ConvexMesh@Gu@physx@@QEAAXXZ 0000000180003a80 f i Cooking.obj
 0001:00002a80       ?preExportDataReset@HeightField@Gu@physx@@QEAAXXZ 0000000180003a80 f i Cooking.obj
 0001:00002a90       ?recreate@?$Array@UPxDebugLine@physx@@V?$ReflectionAllocator@UPxDebugLine@physx@@@shdfnd@2@@shdfnd@physx@@IEAAXI@Z 0000000180003a90 f i Cooking.obj
 0001:00002b10       ?release@Cooking@physx@@UEAAXXZ 0000000180003b10 f   Cooking.obj
 0001:00002b30       ?reserveSegments@RenderOutput@Cm@physx@@QEAAPEAUPxDebugLine@3@I@Z 0000000180003b30 f i Cooking.obj
 0001:00002b90       ?setParams@Cooking@physx@@UEAAXAEBUPxCookingParams@2@@Z 0000000180003b90 f   Cooking.obj
 0001:00002bf0       ?validateConvexMesh@Cooking@physx@@UEBA_NAEBVPxConvexMeshDesc@2@@Z 0000000180003bf0 f   Cooking.obj
 0001:00002c50       ?validateTriangleMesh@Cooking@physx@@UEBA_NAEBVPxTriangleMeshDesc@2@@Z 0000000180003c50 f   Cooking.obj
 0001:00002d60       PxCreateCooking            0000000180003d60 f   Cooking.obj
 0001:00002e50       ??0ReducedVertexCloud@physx@@QEAA@PEBVPxVec3@1@I@Z 0000000180003e50 f   CookingUtils.obj
 0001:00002e70       ??1ReducedVertexCloud@physx@@QEAA@XZ 0000000180003e70 f   CookingUtils.obj
 0001:00002e80       ?Clean@ReducedVertexCloud@physx@@QEAAAEAV12@XZ 0000000180003e80 f   CookingUtils.obj
 0001:00002ef0       ?Reduce@ReducedVertexCloud@physx@@QEAA_NPEAUREDUCEDCLOUD@2@@Z 0000000180003ef0 f   CookingUtils.obj
 0001:00003220       ??$?_UI@@YAPEAX_KV?$ReflectionAllocator@I@shdfnd@physx@@PEBDH@Z 0000000180004220 f i EdgeList.obj
 0001:000032c0       ??0EdgeListBuilder@Gu@physx@@QEAA@XZ 00000001800042c0 f   EdgeList.obj
 0001:000032e0       ??1EdgeList@Gu@physx@@QEAA@XZ 00000001800042e0 f   EdgeList.obj
 0001:00003390       ??1EdgeListBuilder@Gu@physx@@QEAA@XZ 0000000180004390 f   EdgeList.obj
 0001:000033a0       ?computeActiveEdges@EdgeListBuilder@Gu@physx@@AEAA_NIPEBIPEBGPEBVPxVec3@3@M@Z 00000001800043a0 f   EdgeList.obj
 0001:000049f0       ?createEdgesToFaces@EdgeListBuilder@Gu@physx@@AEAA_NIPEBIPEBG@Z 00000001800059f0 f   EdgeList.obj
 0001:00004c50       ?createFacesToEdges@EdgeListBuilder@Gu@physx@@AEAA_NIPEBIPEBG@Z 0000000180005c50 f   EdgeList.obj
 0001:00005110       ?init@EdgeListBuilder@Gu@physx@@QEAA_NAEBUEDGELISTCREATE@23@@Z 0000000180006110 f   EdgeList.obj
 0001:00005240       ??0MeshCleaner@physx@@QEAA@IPEBVPxVec3@1@IPEBIM@Z 0000000180006240 f   MeshCleaner.obj
 0001:00005c00       ??1MeshCleaner@physx@@QEAA@XZ 0000000180006c00 f   MeshCleaner.obj
 0001:00005c90       ??$kmeans_cluster@VPxVec3@physx@@M@@YAIPEBVPxVec3@physx@@IIPEAV01@PEAIMM@Z 0000000180006c90 f i Quantizer.obj
 0001:00006670       ??_EQuantizer@physx@@MEAAPEAXI@Z 0000000180007670 f i Quantizer.obj
 0001:00006670       ??_GQuantizer@physx@@MEAAPEAXI@Z 0000000180007670 f i Quantizer.obj
 0001:000066a0       ??_EQuantizerImpl@@EEAAPEAXI@Z 00000001800076a0 f i Quantizer.obj
 0001:000066a0       ??_GQuantizerImpl@@EEAAPEAXI@Z 00000001800076a0 f i Quantizer.obj
 0001:00006770       ?createQuantizer@physx@@YAPEAVQuantizer@1@XZ 0000000180007770 f   Quantizer.obj
 0001:00006820       ?getDenormalizeCenter@QuantizerImpl@@UEBAAEBVPxVec3@physx@@XZ 0000000180007820 f i Quantizer.obj
 0001:00006830       ?growAndPushBack@?$Array@VPxVec3@physx@@V?$ReflectionAllocator@VPxVec3@physx@@@shdfnd@2@@shdfnd@physx@@IEAAAEAVPxVec3@3@AEBV43@@Z 0000000180007830 f i Quantizer.obj
 0001:00006a20       ?kmeansQuantize3D@QuantizerImpl@@UEAAPEBVPxVec3@physx@@IPEBV23@I_NIAEAI@Z 0000000180007a20 f i Quantizer.obj
 0001:00006c80       ?normalizeInput@QuantizerImpl@@AEAAXIPEBVPxVec3@physx@@I@Z 0000000180007c80 f i Quantizer.obj
 0001:00007080       ?release@QuantizerImpl@@UEAAXXZ 0000000180008080 f i Quantizer.obj
 0001:000070a0       ??$copy@V?$ReflectionAllocator@USlab@NodeAllocator@Gu@physx@@@shdfnd@physx@@@?$Array@USlab@NodeAllocator@Gu@physx@@V?$ReflectionAllocator@USlab@NodeAllocator@Gu@physx@@@shdfnd@4@@shdfnd@physx@@IEAAXAEBV012@@Z 00000001800080a0 f i BVHStructureBuilder.obj
 0001:00007120       ??0AABBTreeBuildNode@Gu@physx@@QEAA@AEBV012@@Z 0000000180008120 f i BVHStructureBuilder.obj
 0001:00007120       ??4AABBTreeBuildNode@Gu@physx@@QEAAAEAV012@AEBV012@@Z 0000000180008120 f i BVHStructureBuilder.obj
 0001:00007160       ??0AABBTreeBuildParams@Gu@physx@@QEAA@IIPEBVPxBounds3@2@@Z 0000000180008160 f i BVHStructureBuilder.obj
 0001:00007180       ??0BVHStructureBuilder@physx@@QEAA@XZ 0000000180008180 f   BVHStructureBuilder.obj
 0001:000071a0       ??0BuildStats@Gu@physx@@QEAA@XZ 00000001800081a0 f i BVHStructureBuilder.obj
 0001:000071b0       ??0NodeAllocator@Gu@physx@@QEAA@AEBV012@@Z 00000001800081b0 f i BVHStructureBuilder.obj
 0001:000071f0       ??1AABBTreeBuildParams@Gu@physx@@QEAA@XZ 00000001800081f0 f i BVHStructureBuilder.obj
 0001:000071f0       ?reset@AABBTreeBuildParams@Gu@physx@@QEAAXXZ 00000001800081f0 f i BVHStructureBuilder.obj
 0001:00007260       ??1BVHStructureBuilder@physx@@QEAA@XZ 0000000180008260 f   BVHStructureBuilder.obj
 0001:000072f0       ??4AABBTreeBuildParams@Gu@physx@@QEAAAEAV012@AEBV012@@Z 00000001800082f0 f i BVHStructureBuilder.obj
 0001:00007310       ??4BuildStats@Gu@physx@@QEAAAEAU012@$$QEAU012@@Z 0000000180008310 f i BVHStructureBuilder.obj
 0001:00007320       ??4BuildStats@Gu@physx@@QEAAAEAU012@AEBU012@@Z 0000000180008320 f i BVHStructureBuilder.obj
 0001:00007330       ??4NodeAllocator@Gu@physx@@QEAAAEAV012@AEBV012@@Z 0000000180008330 f i BVHStructureBuilder.obj
 0001:000073e0       ??_FAABBTreeBuildParams@Gu@physx@@QEAAXXZ 00000001800083e0 f i BVHStructureBuilder.obj
 0001:00007400       ??_V@YAXPEAX_K@Z           0000000180008400 f i LIBCMT:delete_array_size.obj
 0001:00007400       ?__global_delete@@YAXPEAX_K@Z 0000000180008400 f i BVHStructureBuilder.obj
 0001:00007410       ?allocate@?$Array@USlab@NodeAllocator@Gu@physx@@V?$ReflectionAllocator@USlab@NodeAllocator@Gu@physx@@@shdfnd@4@@shdfnd@physx@@IEAAPEAUSlab@NodeAllocator@Gu@3@I@Z 0000000180008410 f i BVHStructureBuilder.obj
 0001:000074b0       ?flatten@@YAXAEBVNodeAllocator@Gu@physx@@PEAUBVHNode@23@@Z 00000001800084b0 f   BVHStructureBuilder.obj
 0001:00007670       ?getCount@BuildStats@Gu@physx@@QEBAIXZ 0000000180008670 f i BVHStructureBuilder.obj
 0001:00007680       ?getNbPrimitives@AABBTreeBuildNode@Gu@physx@@QEBAIXZ 0000000180008680 f i BVHStructureBuilder.obj
 0001:00007680       ?getNbRuntimePrimitives@AABBTreeBuildNode@Gu@physx@@QEBAIXZ 0000000180008680 f i BVHStructureBuilder.obj
 0001:00007690       ?getNeg@AABBTreeBuildNode@Gu@physx@@QEBAPEBV123@XZ 0000000180008690 f i BVHStructureBuilder.obj
 0001:000076b0       ?getPrimitives@AABBTreeBuildNode@Gu@physx@@QEAAPEAIPEAI@Z 00000001800086b0 f i BVHStructureBuilder.obj
 0001:000076b0       ?getPrimitives@AABBTreeBuildNode@Gu@physx@@QEBAPEBIPEBI@Z 00000001800086b0 f i BVHStructureBuilder.obj
 0001:000076c0       ?increaseCount@BuildStats@Gu@physx@@QEAAXI@Z 00000001800086c0 f i BVHStructureBuilder.obj
 0001:000076d0       ?isLeaf@AABBTreeBuildNode@Gu@physx@@QEBA_NXZ 00000001800086d0 f i BVHStructureBuilder.obj
 0001:000076e0       ?loadFromDesc@BVHStructureBuilder@physx@@QEAA_NAEBVPxBVHStructureDesc@2@@Z 00000001800086e0 f   BVHStructureBuilder.obj
 0001:000079f0       ?moveData@BVHStructureBuilder@physx@@QEAAXAEAUBVHStructureData@Gu@2@@Z 00000001800089f0 f   BVHStructureBuilder.obj
 0001:00007a30       ?recreate@?$Array@USlab@NodeAllocator@Gu@physx@@V?$ReflectionAllocator@USlab@NodeAllocator@Gu@physx@@@shdfnd@4@@shdfnd@physx@@IEAAXI@Z 0000000180008a30 f i BVHStructureBuilder.obj
 0001:00007ae0       ?reset@BuildStats@Gu@physx@@QEAAXXZ 0000000180008ae0 f i BVHStructureBuilder.obj
 0001:00007af0       ?save@BVHStructureBuilder@physx@@QEBA_NAEAVPxOutputStream@2@_N@Z 0000000180008af0 f   BVHStructureBuilder.obj
 0001:00007c70       ?setCount@BuildStats@Gu@physx@@QEAAXI@Z 0000000180008c70 f i BVHStructureBuilder.obj
 0001:00007c80       ?setNbRunTimePrimitives@AABBTreeBuildNode@Gu@physx@@QEAAXI@Z 0000000180008c80 f i BVHStructureBuilder.obj
 0001:00007c90       ?saveHeightField@physx@@YA_NAEBVHeightField@Gu@1@AEAVPxOutputStream@1@_N@Z 0000000180008c90 f   HeightFieldCooking.obj
 0001:00007ed0       ??$quickSelectFirstK@UBoundsLTE@physx@@@quickSelect@physx@@YAXPEIAIIIIAEBUBoundsLTE@1@@Z 0000000180008ed0 f i RTreeCooking.obj
 0001:000080a0       ??$smallSort@I$$CBUSortBoundsPredicate@physx@@@internal@shdfnd@physx@@YAXPEAIHHAEBUSortBoundsPredicate@2@@Z 00000001800090a0 f i RTreeCooking.obj
 0001:00008300       ??$sort@IU?$Less@I@shdfnd@physx@@V?$ReflectionAllocator@I@23@@shdfnd@physx@@YAXPEAIIAEBU?$Less@I@01@AEBV?$ReflectionAllocator@I@01@I@Z 0000000180009300 f i RTreeCooking.obj
 0001:000086e0       ??$sort@IUSortBoundsPredicate@physx@@V?$ReflectionAllocator@I@shdfnd@2@@shdfnd@physx@@YAXPEAIIAEBUSortBoundsPredicate@1@AEBV?$ReflectionAllocator@I@01@I@Z 00000001800096e0 f i RTreeCooking.obj
 0001:00008b40       ?allocate@?$Array@UInterval@physx@@V?$InlineAllocator@$0CAAA@V?$ReflectionAllocator@UInterval@physx@@@shdfnd@physx@@@shdfnd@2@@shdfnd@physx@@IEAAPEAUInterval@3@I@Z 0000000180009b40 f i RTreeCooking.obj
 0001:00008c00       ?allocate@?$Array@UPxBounds3V@physx@@V?$ReflectionAllocator@UPxBounds3V@physx@@@shdfnd@2@@shdfnd@physx@@IEAAPEAUPxBounds3V@3@I@Z 0000000180009c00 f i RTreeCooking.obj
 0001:00008ca0       ?allocate@?$Array@URTreeNodeNQ@physx@@V?$ReflectionAllocator@URTreeNodeNQ@physx@@@shdfnd@2@@shdfnd@physx@@IEAAPEAURTreeNodeNQ@3@I@Z 0000000180009ca0 f i RTreeCooking.obj
 0001:00008d40       ?allocate@?$Array@URTreeNodeQ@Gu@physx@@V?$ReflectionAllocator@URTreeNodeQ@Gu@physx@@@shdfnd@3@@shdfnd@physx@@IEAAPEAURTreeNodeQ@Gu@3@I@Z 0000000180009d40 f i RTreeCooking.obj
 0001:00008de0       ?allocate@?$Array@VPxVec3@physx@@V?$ReflectionAllocator@VPxVec3@physx@@@shdfnd@2@@shdfnd@physx@@IEAAPEAVPxVec3@3@I@Z 0000000180009de0 f i RTreeCooking.obj
 0001:00008e90       ?allocate@?$ReflectionAllocator@I@shdfnd@physx@@QEAAPEAX_KPEBDH@Z 0000000180009e90 f i RTreeCooking.obj
 0001:00009bd0       ?buildFromTriangles@RTreeCooker@physx@@SAXAEAURTree@Gu@2@PEBVPxVec3@2@IPEBGPEBIIAEAV?$Array@IV?$ReflectionAllocator@I@shdfnd@physx@@@shdfnd@2@PEAURemapCallback@12@MW4Enum@PxMeshCookingHint@2@@Z 000000018000abd0 f   RTreeCooking.obj
 0001:00009e90       ?copy@?$Array@VPxVec3@physx@@V?$ReflectionAllocator@VPxVec3@physx@@@shdfnd@2@@shdfnd@physx@@KAXPEAVPxVec3@3@0PEBV43@@Z 000000018000ae90 f i RTreeCooking.obj
 0001:00009f50       ?growAndPushBack@?$Array@IV?$ReflectionAllocator@I@shdfnd@physx@@@shdfnd@physx@@IEAAAEAIAEBI@Z 000000018000af50 f i RTreeCooking.obj
 0001:0000a020       ?growAndPushBack@?$Array@UInterval@physx@@V?$InlineAllocator@$0CAAA@V?$ReflectionAllocator@UInterval@physx@@@shdfnd@physx@@@shdfnd@2@@shdfnd@physx@@IEAAAEAUInterval@3@AEBU43@@Z 000000018000b020 f i RTreeCooking.obj
 0001:0000a100       ?growAndPushBack@?$Array@UPxBounds3V@physx@@V?$ReflectionAllocator@UPxBounds3V@physx@@@shdfnd@2@@shdfnd@physx@@IEAAAEAUPxBounds3V@3@AEBU43@@Z 000000018000b100 f i RTreeCooking.obj
 0001:0000a1e0       ?growAndPushBack@?$Array@URTreeNodeNQ@physx@@V?$ReflectionAllocator@URTreeNodeNQ@physx@@@shdfnd@2@@shdfnd@physx@@IEAAAEAURTreeNodeNQ@3@AEBU43@@Z 000000018000b1e0 f i RTreeCooking.obj
 0001:0000a2d0       ?growAndPushBack@?$Array@URTreeNodeQ@Gu@physx@@V?$ReflectionAllocator@URTreeNodeQ@Gu@physx@@@shdfnd@3@@shdfnd@physx@@IEAAAEAURTreeNodeQ@Gu@3@AEBU453@@Z 000000018000b2d0 f i RTreeCooking.obj
 0001:0000a3c0       ?recreate@?$Array@IV?$ReflectionAllocator@I@shdfnd@physx@@@shdfnd@physx@@IEAAXI@Z 000000018000b3c0 f i RTreeCooking.obj
 0001:0000a480       ?recreate@?$Array@UPxBounds3V@physx@@V?$ReflectionAllocator@UPxBounds3V@physx@@@shdfnd@2@@shdfnd@physx@@IEAAXI@Z 000000018000b480 f i RTreeCooking.obj
 0001:0000a530       ?recreate@?$Array@URTreeNodeNQ@physx@@V?$ReflectionAllocator@URTreeNodeNQ@physx@@@shdfnd@2@@shdfnd@physx@@IEAAXI@Z 000000018000b530 f i RTreeCooking.obj
 0001:0000a5b0       ?recreate@?$Array@URTreeNodeQ@Gu@physx@@V?$ReflectionAllocator@URTreeNodeQ@Gu@physx@@@shdfnd@3@@shdfnd@physx@@IEAAXI@Z 000000018000b5b0 f i RTreeCooking.obj
 0001:0000a670       ?recreate@?$Array@VPxVec3@physx@@V?$ReflectionAllocator@VPxVec3@physx@@@shdfnd@2@@shdfnd@physx@@IEAAXI@Z 000000018000b670 f i RTreeCooking.obj
 0001:0000a6f0       ?resize@?$Array@IV?$ReflectionAllocator@I@shdfnd@physx@@@shdfnd@physx@@QEAAXIAEBI@Z 000000018000b6f0 f i RTreeCooking.obj
 0001:0000a7b0       ?resizeUninitialized@?$Array@URTreeNodeNQ@physx@@V?$ReflectionAllocator@URTreeNodeNQ@physx@@@shdfnd@2@@shdfnd@physx@@QEAAXI@Z 000000018000b7b0 f i RTreeCooking.obj
 0001:0000a7f0       ?sort4@SubSortQuick@physx@@QEAAXPEIAIIAEAV?$Array@URTreeNodeNQ@physx@@V?$ReflectionAllocator@URTreeNodeNQ@physx@@@shdfnd@2@@shdfnd@2@AEAIAEAUPxBounds3V@2@I@Z 000000018000b7f0 f i RTreeCooking.obj
 0001:0000ab90       ?sort4@SubSortSAH@physx@@QEAAXPEAIIAEAV?$Array@URTreeNodeNQ@physx@@V?$ReflectionAllocator@URTreeNodeNQ@physx@@@shdfnd@2@@shdfnd@2@AEAIIPEAURTreeNodeNQ@2@@Z 000000018000bb90 f i RTreeCooking.obj
 0001:0000b4d0       ?split@SubSortSAH@physx@@QEAAIPEAII@Z 000000018000c4d0 f i RTreeCooking.obj
 0001:0000bfb0       ?computeLocalBounds@MeshBulider@physx@@IEAAXAEAVMeshDataBase@Gu@2@@Z 000000018000cfb0 f   MeshBuilder.obj
 0001:0000c040       ??$?_UG@@YAPEAX_KV?$ReflectionAllocator@G@shdfnd@physx@@PEBDH@Z 000000018000d040 f i TriangleMeshBuilder.obj
 0001:0000c0e0       ??$median3@UEdgeTriLookup@physx@@$$CBU?$Less@UEdgeTriLookup@physx@@@shdfnd@2@@internal@shdfnd@physx@@YAXPEAUEdgeTriLookup@2@HHAEBU?$Less@UEdgeTriLookup@physx@@@12@@Z 000000018000d0e0 f i TriangleMeshBuilder.obj
 0001:0000c230       ??$sort@UEdgeTriLookup@physx@@U?$Less@UEdgeTriLookup@physx@@@shdfnd@2@V?$ReflectionAllocator@UEdgeTriLookup@physx@@@42@@shdfnd@physx@@YAXPEAUEdgeTriLookup@1@IAEBU?$Less@UEdgeTriLookup@physx@@@01@AEBV?$ReflectionAllocator@UEdgeTriLookup@physx@@@01@I@Z 000000018000d230 f i TriangleMeshBuilder.obj
 0001:0000c6d0       ??0BV4TriangleMeshBuilder@physx@@QEAA@AEBUPxCookingParams@1@@Z 000000018000d6d0 f   TriangleMeshBuilder.obj
 0001:0000c7a0       ??0RTreeTriangleMeshBuilder@physx@@QEAA@AEBUPxCookingParams@1@@Z 000000018000d7a0 f   TriangleMeshBuilder.obj
 0001:0000c860       ??1BV4TriangleMeshBuilder@physx@@UEAA@XZ 000000018000d860 f   TriangleMeshBuilder.obj
 0001:0000c8c0       ??1MeshDataBase@Gu@physx@@UEAA@XZ 000000018000d8c0 f i TriangleMeshBuilder.obj
 0001:0000c9b0       ??1RTreeTriangleData@Gu@physx@@UEAA@XZ 000000018000d9b0 f i TriangleMeshBuilder.obj
 0001:0000ca20       ??1RTreeTriangleMeshBuilder@physx@@UEAA@XZ 000000018000da20 f   TriangleMeshBuilder.obj
 0001:0000ca50       ??1TriangleMeshBuilder@physx@@UEAA@XZ 000000018000da50 f   TriangleMeshBuilder.obj
 0001:0000cac0       ??1TriangleMeshData@Gu@physx@@UEAA@XZ 000000018000dac0 f i TriangleMeshBuilder.obj
 0001:0000cb90       ??_EBV4TriangleData@Gu@physx@@UEAAPEAXI@Z 000000018000db90 f i TriangleMeshBuilder.obj
 0001:0000cb90       ??_GBV4TriangleData@Gu@physx@@UEAAPEAXI@Z 000000018000db90 f i TriangleMeshBuilder.obj
 0001:0000cc20       ??_EBV4TriangleMeshBuilder@physx@@UEAAPEAXI@Z 000000018000dc20 f i TriangleMeshBuilder.obj
 0001:0000cc20       ??_GBV4TriangleMeshBuilder@physx@@UEAAPEAXI@Z 000000018000dc20 f i TriangleMeshBuilder.obj
 0001:0000cca0       ??_EMeshDataBase@Gu@physx@@UEAAPEAXI@Z 000000018000dca0 f i TriangleMeshBuilder.obj
 0001:0000cca0       ??_GMeshDataBase@Gu@physx@@UEAAPEAXI@Z 000000018000dca0 f i TriangleMeshBuilder.obj
 0001:0000cd10       ??_ERTreeCookerRemap@physx@@UEAAPEAXI@Z 000000018000dd10 f i TriangleMeshBuilder.obj
 0001:0000cd10       ??_GRTreeCookerRemap@physx@@UEAAPEAXI@Z 000000018000dd10 f i TriangleMeshBuilder.obj
 0001:0000cd40       ??_ERTreeTriangleData@Gu@physx@@UEAAPEAXI@Z 000000018000dd40 f i TriangleMeshBuilder.obj
 0001:0000cd40       ??_GRTreeTriangleData@Gu@physx@@UEAAPEAXI@Z 000000018000dd40 f i TriangleMeshBuilder.obj
 0001:0000cdb0       ??_ERTreeTriangleMeshBuilder@physx@@UEAAPEAXI@Z 000000018000ddb0 f i TriangleMeshBuilder.obj
 0001:0000cdb0       ??_GRTreeTriangleMeshBuilder@physx@@UEAAPEAXI@Z 000000018000ddb0 f i TriangleMeshBuilder.obj
 0001:0000ce00       ??_ERemapCallback@RTreeCooker@physx@@UEAAPEAXI@Z 000000018000de00 f i TriangleMeshBuilder.obj
 0001:0000ce00       ??_GRemapCallback@RTreeCooker@physx@@UEAAPEAXI@Z 000000018000de00 f i TriangleMeshBuilder.obj
 0001:0000ce30       ??_ETriangleMeshBuilder@physx@@UEAAPEAXI@Z 000000018000de30 f i TriangleMeshBuilder.obj
 0001:0000ce30       ??_GTriangleMeshBuilder@physx@@UEAAPEAXI@Z 000000018000de30 f i TriangleMeshBuilder.obj
 0001:0000ce70       ??_ETriangleMeshData@Gu@physx@@UEAAPEAXI@Z 000000018000de70 f i TriangleMeshBuilder.obj
 0001:0000ce70       ??_GTriangleMeshData@Gu@physx@@UEAAPEAXI@Z 000000018000de70 f i TriangleMeshBuilder.obj
 0001:0000cee0       ?allocateTriangles@TriangleMeshData@Gu@physx@@QEAAPEAXI_NI@Z 000000018000dee0 f i TriangleMeshBuilder.obj
 0001:0000cfc0       ?allocateVertices@MeshDataBase@Gu@physx@@QEAAPEAVPxVec3@3@I@Z 000000018000dfc0 f i TriangleMeshBuilder.obj
 0001:0000d510       ?checkMeshIndicesSize@TriangleMeshBuilder@physx@@QEAAXXZ 000000018000e510 f   TriangleMeshBuilder.obj
 0001:0000d820       ?cleanMesh@TriangleMeshBuilder@physx@@QEAA_N_NPEAW4Enum@PxTriangleMeshCookingResult@2@@Z 000000018000e820 f   TriangleMeshBuilder.obj
 0001:0000dcf0       ?createGRBMidPhaseAndData@TriangleMeshBuilder@physx@@QEAAXI@Z 000000018000ecf0 f   TriangleMeshBuilder.obj
 0001:0000e090       ?createMidPhaseStructure@BV4TriangleMeshBuilder@physx@@UEAAXXZ 000000018000f090 f   TriangleMeshBuilder.obj
 0001:0000e310       ?createMidPhaseStructure@RTreeTriangleMeshBuilder@physx@@UEAAXXZ 000000018000f310 f   TriangleMeshBuilder.obj
 0001:0000e3f0       ?createSharedEdgeData@TriangleMeshBuilder@physx@@QEAAX_N0@Z 000000018000f3f0 f   TriangleMeshBuilder.obj
 0001:0000ea50       ?getMidphaseID@BV4TriangleMeshBuilder@physx@@UEBA?AW4Enum@PxMeshMidPhase@2@XZ 000000018000fa50 f i TriangleMeshBuilder.obj
 0001:0000ea50       ?length@charNode@@UEBAHXZ  000000018000fa50 f i libvcruntime:undname.obj
 0001:0000ea50       ?raw_length@charNode@@UEBAHXZ 000000018000fa50 f i libvcruntime:undname.obj
 0001:0000ea50       DllMain                    000000018000fa50 f i LIBCMT:dll_dllmain_stub.obj
 0001:0000ea50       _get_startup_argv_mode     000000018000fa50 f i LIBCMT:argv_mode.obj
 0001:0000ea60       ?getMidphaseID@RTreeTriangleMeshBuilder@physx@@UEBA?AW4Enum@PxMeshMidPhase@2@XZ 000000018000fa60 f i TriangleMeshBuilder.obj
 0001:0000ea70       ?importMesh@TriangleMeshBuilder@physx@@IEAA_NAEBVPxTriangleMeshDesc@2@AEBUPxCookingParams@2@PEAW4Enum@PxTriangleMeshCookingResult@2@_N@Z 000000018000fa70 f   TriangleMeshBuilder.obj
 0001:0000ed20       ?loadFromDesc@TriangleMeshBuilder@physx@@QEAA_NAEBVPxTriangleMeshDesc@2@PEAW4Enum@PxTriangleMeshCookingResult@2@_N@Z 000000018000fd20 f   TriangleMeshBuilder.obj
 0001:0000f110       ?onMeshIndexFormatChange@BV4TriangleMeshBuilder@physx@@UEAAXXZ 0000000180010110 f   TriangleMeshBuilder.obj
 0001:0000f150       ?remap@RTreeCookerRemap@physx@@UEAAXPEAIII@Z 0000000180010150 f i TriangleMeshBuilder.obj
 0001:0000f170       ?remapTopology@TriangleMeshBuilder@physx@@QEAAXPEBI@Z 0000000180010170 f   TriangleMeshBuilder.obj
 0001:0000f3c0       ?save@TriangleMeshBuilder@physx@@QEBA_NAEAVPxOutputStream@2@_NAEBUPxCookingParams@2@@Z 00000001800103c0 f   TriangleMeshBuilder.obj
 0001:0000f990       ?saveMidPhaseStructure@BV4TriangleMeshBuilder@physx@@UEBAXAEAVPxOutputStream@2@_N@Z 0000000180010990 f   TriangleMeshBuilder.obj
 0001:0000fb30       ?saveMidPhaseStructure@RTreeTriangleMeshBuilder@physx@@UEBAXAEAVPxOutputStream@2@_N@Z 0000000180010b30 f   TriangleMeshBuilder.obj
 0001:0000fd70       ??0BigConvexDataBuilder@physx@@QEAA@PEBUConvexHullData@Gu@1@PEAVBigConvexData@1@PEBVPxVec3@1@@Z 0000000180010d70 f   BigConvexDataBuilder.obj
 0001:0000fd80       ??4BigConvexData@physx@@QEAAAEAV01@AEBV01@@Z 0000000180010d80 f i BigConvexDataBuilder.obj
 0001:0000fda0       ?GetAdjacentVerts@BigConvexData@physx@@QEBAPEBEXZ 0000000180010da0 f i BigConvexDataBuilder.obj
 0001:0000fdb0       ?GetNbNeighbors@BigConvexData@physx@@QEBAGI@Z 0000000180010db0 f i BigConvexDataBuilder.obj
 0001:0000fdb0       ?GetValency@BigConvexData@physx@@QEBAGI@Z 0000000180010db0 f i BigConvexDataBuilder.obj
 0001:0000fdc0       ?GetNbSamples@BigConvexData@physx@@QEBAIXZ 0000000180010dc0 f i BigConvexDataBuilder.obj
 0001:0000fdd0       ?GetNbVerts@BigConvexData@physx@@QEBAIXZ 0000000180010dd0 f i BigConvexDataBuilder.obj
 0001:0000fdd0       ?length@pcharNode@@UEBAHXZ 0000000180010dd0 f i libvcruntime:undname.obj
 0001:0000fdd0       ?raw_length@pcharNode@@UEBAHXZ 0000000180010dd0 f i libvcruntime:undname.obj
 0001:0000fde0       ?GetNeighbors@BigConvexData@physx@@QEBAPEBEI@Z 0000000180010de0 f i BigConvexDataBuilder.obj
 0001:0000fdf0       ?GetOffset@BigConvexData@physx@@QEBAGI@Z 0000000180010df0 f i BigConvexDataBuilder.obj
 0001:0000fe00       ?GetSubdiv@BigConvexData@physx@@QEBAIXZ 0000000180010e00 f i BigConvexDataBuilder.obj
 0001:0000fe10       ?computeValencies@BigConvexDataBuilder@physx@@QEAA_NAEBVConvexHullBuilder@2@@Z 0000000180010e10 f   BigConvexDataBuilder.obj
 0001:000101d0       ?precompute@BigConvexDataBuilder@physx@@QEAA_NI@Z 00000001800111d0 f   BigConvexDataBuilder.obj
 0001:00010e00       ?save@BigConvexDataBuilder@physx@@QEBA_NAEAVPxOutputStream@2@_N@Z 0000000180011e00 f   BigConvexDataBuilder.obj
 0001:00010ee0       ?saveValencies@BigConvexDataBuilder@physx@@QEBA_NAEAVPxOutputStream@2@_N@Z 0000000180011ee0 f   BigConvexDataBuilder.obj
 0001:00011090       ??$?_UE@@YAPEAX_KV?$ReflectionAllocator@E@shdfnd@physx@@PEBDH@Z 0000000180012090 f i ConvexHullBuilder.obj
 0001:00011130       ??0ConvexHullBuilder@physx@@QEAA@PEAUConvexHullData@Gu@1@_N@Z 0000000180012130 f   ConvexHullBuilder.obj
 0001:00011160       ??1ConvexHullBuilder@physx@@QEAA@XZ 0000000180012160 f   ConvexHullBuilder.obj
 0001:00011270       ?calculateVertexMapTable@ConvexHullBuilder@physx@@QEAA_NI_N@Z 0000000180012270 f   ConvexHullBuilder.obj
 0001:00011430       ?checkHullPolygons@ConvexHullBuilder@physx@@QEBA_NXZ 0000000180012430 f   ConvexHullBuilder.obj
 0001:00011c30       ?computeGeomCenter@ConvexHullBuilder@physx@@IEBA_NAEAVPxVec3@2@IPEAUHullTriangleData@2@@Z 0000000180012c30 f   ConvexHullBuilder.obj
 0001:00011ee0       ?copy@ConvexHullBuilder@physx@@QEAA_NAEAUConvexHullData@Gu@2@AEAI@Z 0000000180012ee0 f   ConvexHullBuilder.obj
 0001:00012160       ?createEdgeList@ConvexHullBuilder@physx@@QEAA_N_NI@Z 0000000180013160 f   ConvexHullBuilder.obj
 0001:00012950       ?init@ConvexHullBuilder@physx@@QEAA_NIPEBVPxVec3@2@PEBIIIPEBUPxHullPolygon@2@_NPEAVConvexHullLib@2@@Z 0000000180013950 f   ConvexHullBuilder.obj
 0001:00012d60       ?save@ConvexHullBuilder@physx@@QEBA_NAEAVPxOutputStream@2@_N@Z 0000000180013d60 f   ConvexHullBuilder.obj
 0001:000130a0       ??1ConvexHullLib@physx@@UEAA@XZ 00000001800140a0 f   ConvexHullLib.obj
 0001:00013100       ??_EConvexHullLib@physx@@UEAAPEAXI@Z 0000000180014100 f i ConvexHullLib.obj
 0001:00013100       ??_GConvexHullLib@physx@@UEAAPEAXI@Z 0000000180014100 f i ConvexHullLib.obj
 0001:00013580       ?cleanupVertices@ConvexHullLib@physx@@IEAA_NIPEBVPxVec3@2@IAEAIPEAV32@AEAV32@3@Z 0000000180014580 f   ConvexHullLib.obj
 0001:00013a00       ?shiftAndcleanupVertices@ConvexHullLib@physx@@IEAA_NIPEBVPxVec3@2@IAEAIPEAV32@AEAV32@3@Z 0000000180014a00 f   ConvexHullLib.obj
 0001:00013eb0       ?shiftConvexMeshDesc@ConvexHullLib@physx@@IEAAXAEAVPxConvexMeshDesc@2@@Z 0000000180014eb0 f   ConvexHullLib.obj
 0001:00013f70       ?swapLargestFace@ConvexHullLib@physx@@IEAAXAEAVPxConvexMeshDesc@2@@Z 0000000180014f70 f   ConvexHullLib.obj
 0001:00014160       ??0Box@Gu@physx@@QEAA@AEBV012@@Z 0000000180015160 f i ConvexHullUtils.obj
 0001:00014160       ??4Box@Gu@physx@@QEAAAEBV012@AEBV012@@Z 0000000180015160 f i ConvexHullUtils.obj
 0001:000141c0       ??0Box@Gu@physx@@QEAA@AEBVPxVec3@2@0AEBVPxMat33@2@@Z 00000001800151c0 f i ConvexHullUtils.obj
 0001:00014230       ??0ConvexHull@physx@@QEAA@AEBVPxVec3@1@AEBVPxTransform@1@AEBV?$Array@VPxPlane@physx@@V?$ReflectionAllocator@VPxPlane@physx@@@shdfnd@2@@shdfnd@1@@Z 0000000180015230 f   ConvexHullUtils.obj
 0001:000153e0       ??0PxQuat@physx@@QEAA@AEBVPxMat33@1@@Z 00000001800163e0 f i ConvexHullUtils.obj
 0001:000155d0       ?allocate@?$Array@VHalfEdge@ConvexHull@physx@@V?$ReflectionAllocator@VHalfEdge@ConvexHull@physx@@@shdfnd@3@@shdfnd@physx@@IEAAPEAVHalfEdge@ConvexHull@3@I@Z 00000001800165d0 f i ConvexHullUtils.obj
 0001:00015670       ?allocate@?$Array@VPxPlane@physx@@V?$ReflectionAllocator@VPxPlane@physx@@@shdfnd@2@@shdfnd@physx@@IEAAPEAVPxPlane@3@I@Z 0000000180016670 f i ConvexHullUtils.obj
 0001:00015710       ?assertIntact@ConvexHull@physx@@QEBA_NM@Z 0000000180016710 f   ConvexHullUtils.obj
 0001:00015a20       ?computeAABBExtent@Box@Gu@physx@@QEBA?AVPxVec3@3@XZ 0000000180016a20 f i ConvexHullUtils.obj
 0001:00015ae0       ?computeBoxPoints@Box@Gu@physx@@QEBAXPEIAVPxVec3@3@@Z 0000000180016ae0 f i ConvexHullUtils.obj
 0001:00015b20       ?computeOBBFromConvex@physx@@YA_NAEBVPxConvexMeshDesc@1@AEAVPxVec3@1@AEAVPxTransform@1@@Z 0000000180016b20 f   ConvexHullUtils.obj
 0001:00016260       ?computeOBBSIMD@local@@YAXIPEBT__m128@@AEAT2@AEBT2@1@Z 0000000180017260 f   ConvexHullUtils.obj
 0001:00016640       ?convexHullCrop@physx@@YAPEAVConvexHull@1@AEBV21@AEBVPxPlane@1@M@Z 0000000180017640 f   ConvexHullUtils.obj
 0001:00017430       ?copy@?$Array@VPxPlane@physx@@V?$ReflectionAllocator@VPxPlane@physx@@@shdfnd@2@@shdfnd@physx@@KAXPEAVPxPlane@3@0PEBV43@@Z 0000000180018430 f i ConvexHullUtils.obj
 0001:00017520       ?findCandidatePlane@ConvexHull@physx@@QEBAHMM@Z 0000000180018520 f   ConvexHullUtils.obj
 0001:00017970       ?getInverse@PxMat33@physx@@QEBA?BV12@XZ 0000000180018970 f i ConvexHullUtils.obj
 0001:00017bb0       ?getTransform@Box@Gu@physx@@QEBA?AVPxTransform@3@XZ 0000000180018bb0 f i ConvexHullUtils.obj
 0001:00017c10       ?growAndPushBack@?$Array@VHalfEdge@ConvexHull@physx@@V?$ReflectionAllocator@VHalfEdge@ConvexHull@physx@@@shdfnd@3@@shdfnd@physx@@IEAAAEAVHalfEdge@ConvexHull@3@AEBV453@@Z 0000000180018c10 f i ConvexHullUtils.obj
 0001:00017cd0       ?growAndPushBack@?$Array@VPxPlane@physx@@V?$ReflectionAllocator@VPxPlane@physx@@@shdfnd@2@@shdfnd@physx@@IEAAAEAVPxPlane@3@AEBV43@@Z 0000000180018cd0 f i ConvexHullUtils.obj
 0001:00017da0       ?isValid@Box@Gu@physx@@QEBA_NXZ 0000000180018da0 f i ConvexHullUtils.obj
 0001:00017dc0       ?maxNumVertsPerFace@ConvexHull@physx@@QEBAIXZ 0000000180018dc0 f   ConvexHullUtils.obj
 0001:00017e60       ?recreate@?$Array@VHalfEdge@ConvexHull@physx@@V?$ReflectionAllocator@VHalfEdge@ConvexHull@physx@@@shdfnd@3@@shdfnd@physx@@IEAAXI@Z 0000000180018e60 f i ConvexHullUtils.obj
 0001:00017f00       ?recreate@?$Array@VPxPlane@physx@@V?$ReflectionAllocator@VPxPlane@physx@@@shdfnd@2@@shdfnd@physx@@IEAAXI@Z 0000000180018f00 f i ConvexHullUtils.obj
 0001:00017f80       ?resize@?$Array@VHalfEdge@ConvexHull@physx@@V?$ReflectionAllocator@VHalfEdge@ConvexHull@physx@@@shdfnd@3@@shdfnd@physx@@QEAAXIAEBVHalfEdge@ConvexHull@3@@Z 0000000180018f80 f i ConvexHullUtils.obj
 0001:00018040       ?resize@?$Array@VPxPlane@physx@@V?$ReflectionAllocator@VPxPlane@physx@@@shdfnd@2@@shdfnd@physx@@QEAAXIAEBVPxPlane@3@@Z 0000000180019040 f i ConvexHullUtils.obj
 0001:00018150       ?resize@?$Array@VPxVec3@physx@@V?$ReflectionAllocator@VPxVec3@physx@@@shdfnd@2@@shdfnd@physx@@QEAAXIAEBVPxVec3@3@@Z 0000000180019150 f i ConvexHullUtils.obj
 0001:00018240       ?rotate@Box@Gu@physx@@QEBA?AVPxVec3@3@AEBV43@@Z 0000000180019240 f i ConvexHullUtils.obj
 0001:000182d0       ?rotateInv@Box@Gu@physx@@QEBA?AVPxVec3@3@AEBV43@@Z 00000001800192d0 f i ConvexHullUtils.obj
 0001:00018360       ?setAxes@Box@Gu@physx@@QEAAXAEBVPxVec3@3@00@Z 0000000180019360 f i ConvexHullUtils.obj
 0001:000183a0       ?setEmpty@Box@Gu@physx@@QEAAXXZ 00000001800193a0 f i ConvexHullUtils.obj
 0001:000183e0       ?transform@Box@Gu@physx@@QEBA?AVPxVec3@3@AEBV43@@Z 00000001800193e0 f i ConvexHullUtils.obj
 0001:00018480       ??0ConvexMeshBuilder@physx@@QEAA@_N@Z 0000000180019480 f   ConvexMeshBuilder.obj
 0001:000184e0       ??1ConvexMeshBuilder@physx@@QEAA@XZ 00000001800194e0 f   ConvexMeshBuilder.obj
 0001:00018930       ?build@ConvexMeshBuilder@physx@@QEAA_NAEBVPxConvexMeshDesc@2@I_NPEAVConvexHullLib@2@@Z 0000000180019930 f   ConvexMeshBuilder.obj
 0001:00018c50       ?computeHullPolygons@ConvexMeshBuilder@physx@@QEAA_NAEBIPEBVPxVec3@2@0PEBIAEAVPxAllocatorCallback@2@AEAIAEAPEAV32@4AEAPEAI4AEAPEAUPxHullPolygon@2@@Z 0000000180019c50 f   ConvexMeshBuilder.obj
 0001:00018e90       ?computeMassInfo@ConvexMeshBuilder@physx@@QEAAX_N@Z 0000000180019e90 f   ConvexMeshBuilder.obj
 0001:000192e0       ?copy@ConvexMeshBuilder@physx@@QEAA_NAEAUConvexHullInitData@Gu@2@@Z 000000018001a2e0 f   ConvexMeshBuilder.obj
 0001:00019400       ?isFinite@PxVec3@physx@@QEBA_NXZ 000000018001a400 f i ConvexMeshBuilder.obj
 0001:00019460       ?loadConvexHull@ConvexMeshBuilder@physx@@QEAA_NAEBVPxConvexMeshDesc@2@PEAVConvexHullLib@2@@Z 000000018001a460 f   ConvexMeshBuilder.obj
 0001:000196e0       ?save@ConvexMeshBuilder@physx@@QEBA_NAEAVPxOutputStream@2@_N@Z 000000018001a6e0 f   ConvexMeshBuilder.obj
 0001:000198f0       ??$?_UUHullTriangleData@physx@@@@YAPEAX_KV?$ReflectionAllocator@UHullTriangleData@physx@@@shdfnd@physx@@PEBDH@Z 000000018001a8f0 f i ConvexPolygonsBuilder.obj
 0001:00019990       ??$copy@V?$ReflectionAllocator@VPair@@@shdfnd@physx@@@?$Array@VPair@@V?$ReflectionAllocator@VPair@@@shdfnd@physx@@@shdfnd@physx@@IEAAXAEBV012@@Z 000000018001a990 f i ConvexPolygonsBuilder.obj
 0001:00019a10       ??0ConvexPolygonsBuilder@physx@@QEAA@PEAUConvexHullData@Gu@1@_N@Z 000000018001aa10 f   ConvexPolygonsBuilder.obj
 0001:00019a30       ??1ConvexPolygonsBuilder@physx@@QEAA@XZ 000000018001aa30 f   ConvexPolygonsBuilder.obj
 0001:0001a270       ?allocate@?$Array@VPair@@V?$ReflectionAllocator@VPair@@@shdfnd@physx@@@shdfnd@physx@@IEAAPEAVPair@@I@Z 000000018001b270 f i ConvexPolygonsBuilder.obj
 0001:0001aad0       ?computeHullPolygons@ConvexPolygonsBuilder@physx@@QEAA_NAEBIPEBVPxVec3@2@0PEBI@Z 000000018001bad0 f   ConvexPolygonsBuilder.obj
 0001:0001c100       ?createPolygonData@ConvexPolygonsBuilder@physx@@AEAA_NXZ 000000018001d100 f   ConvexPolygonsBuilder.obj
 0001:0001cad0       ?createTrianglesFromPolygons@ConvexPolygonsBuilder@physx@@AEAA_NXZ 000000018001dad0 f   ConvexPolygonsBuilder.obj
 0001:0001e0e0       ?growAndPushBack@?$Array@VPair@@V?$ReflectionAllocator@VPair@@@shdfnd@physx@@@shdfnd@physx@@IEAAAEAVPair@@AEBV4@@Z 000000018001f0e0 f i ConvexPolygonsBuilder.obj
 0001:0001e1b0       ??0QuickHull@local@@QEAA@AEBUPxCookingParams@physx@@AEBVPxConvexMeshDesc@3@@Z 000000018001f1b0 f   QuickHullConvexHullLib.obj
 0001:0001e260       ??0QuickHullConvexHullLib@physx@@QEAA@AEBVPxConvexMeshDesc@1@AEBUPxCookingParams@1@@Z 000000018001f260 f   QuickHullConvexHullLib.obj
 0001:0001e350       ??1?$MemBlock@UQuickHullFace@local@@$00@local@@QEAA@XZ 000000018001f350 f i QuickHullConvexHullLib.obj
 0001:0001e350       ??1?$MemBlock@UQuickHullHalfEdge@local@@$0A@@local@@QEAA@XZ 000000018001f350 f i QuickHullConvexHullLib.obj
 0001:0001e3f0       ??1QuickHull@local@@QEAA@XZ 000000018001f3f0 f   QuickHullConvexHullLib.obj
 0001:0001e550       ??_GConvexHull@physx@@QEAAPEAXI@Z 000000018001f550 f i QuickHullConvexHullLib.obj
 0001:0001e640       ??_EQuickHullConvexHullLib@physx@@UEAAPEAXI@Z 000000018001f640 f i QuickHullConvexHullLib.obj
 0001:0001e640       ??_GQuickHullConvexHullLib@physx@@UEAAPEAXI@Z 000000018001f640 f i QuickHullConvexHullLib.obj
 0001:0001e750       ?addPointToHull@QuickHull@local@@IEAA_NPEBUQuickHullVertex@2@AEAUQuickHullFace@2@AEA_N@Z 000000018001f750 f   QuickHullConvexHullLib.obj
 0001:0001ea20       ?addSimplex@QuickHull@local@@IEAAXPEAUQuickHullVertex@2@_N@Z 000000018001fa20 f   QuickHullConvexHullLib.obj
 0001:0001ef10       ?allocate@?$Array@PEAUQuickHullFace@local@@V?$ReflectionAllocator@PEAUQuickHullFace@local@@@shdfnd@physx@@@shdfnd@physx@@IEAAPEAPEAUQuickHullFace@local@@I@Z 000000018001ff10 f i QuickHullConvexHullLib.obj
 0001:0001efb0       ?allocate@?$Array@PEAUQuickHullHalfEdge@local@@V?$ReflectionAllocator@PEAUQuickHullHalfEdge@local@@@shdfnd@physx@@@shdfnd@physx@@IEAAPEAPEAUQuickHullHalfEdge@local@@I@Z 000000018001ffb0 f i QuickHullConvexHullLib.obj
 0001:0001f050       ?allocate@?$Array@PEAUQuickHullVertex@local@@V?$ReflectionAllocator@PEAUQuickHullVertex@local@@@shdfnd@physx@@@shdfnd@physx@@IEAAPEAPEAUQuickHullVertex@local@@I@Z 0000000180020050 f i QuickHullConvexHullLib.obj
 0001:0001f0f0       ?allocate@?$Array@UExpandPoint@local@@V?$ReflectionAllocator@UExpandPoint@local@@@shdfnd@physx@@@shdfnd@physx@@IEAAPEAUExpandPoint@local@@I@Z 00000001800200f0 f i QuickHullConvexHullLib.obj
 0001:0001f190       ?buildHull@QuickHull@local@@QEAA?AW4Enum@QuickHullResult@2@XZ 0000000180020190 f   QuickHullConvexHullLib.obj
 0001:0001f3b0       ?calculateHorizon@QuickHull@local@@IEAAXAEBVPxVec3@physx@@PEAUQuickHullHalfEdge@2@AEAUQuickHullFace@2@AEAV?$Array@PEAUQuickHullHalfEdge@local@@V?$ReflectionAllocator@PEAUQuickHullHalfEdge@local@@@shdfnd@physx@@@shdfnd@4@AEAV?$Array@PEAUQuickHullFace@local@@V?$ReflectionAllocator@PEAUQuickHullFace@local@@@shdfnd@physx@@@84@@Z 00000001800203b0 f   QuickHullConvexHullLib.obj
 0001:0001f560       ?canMergeFaces@QuickHull@local@@IEAA_NAEBUQuickHullHalfEdge@2@@Z 0000000180020560 f   QuickHullConvexHullLib.obj
 0001:0001fd80       ?cleanupForSimplex@QuickHullConvexHullLib@physx@@IEAA_NPEAVPxVec3@2@IPEAUQuickHullVertex@local@@1AEAM2@Z 0000000180020d80 f   QuickHullConvexHullLib.obj
 0001:00020ce0       ?computeMinMaxVerts@QuickHull@local@@IEAAXXZ 0000000180021ce0 f   QuickHullConvexHullLib.obj
 0001:000210c0       ?connectHalfEdges@QuickHullFace@local@@AEAAPEAU12@PEAUQuickHullHalfEdge@2@0@Z 00000001800220c0 f   QuickHullConvexHullLib.obj
 0001:00021430       ?copy@?$Array@UExpandPoint@local@@V?$ReflectionAllocator@UExpandPoint@local@@@shdfnd@physx@@@shdfnd@physx@@KAXPEAUExpandPoint@local@@0PEBU45@@Z 0000000180022430 f i QuickHullConvexHullLib.obj
 0001:00021680       ?createConvexHull@QuickHullConvexHullLib@physx@@UEAA?AW4Enum@PxConvexMeshCookingResult@2@XZ 0000000180022680 f   QuickHullConvexHullLib.obj
 0001:00021aa0       ?createEdgeList@QuickHullConvexHullLib@physx@@UEAA_NIPEBEPEAPEAEPEAPEAG2@Z 0000000180022aa0 f   QuickHullConvexHullLib.obj
 0001:00021cf0       ?createTriangle@QuickHull@local@@IEAAPEAUQuickHullFace@2@AEBUQuickHullVertex@2@00@Z 0000000180022cf0 f   QuickHullConvexHullLib.obj
 0001:000220c0       ?doAdjacentMerge@QuickHull@local@@IEAA_NAEAUQuickHullFace@2@_NAEA_N@Z 00000001800230c0 f   QuickHullConvexHullLib.obj
 0001:00022410       ?expandHull@QuickHullConvexHullLib@physx@@IEAA?AW4Enum@PxConvexMeshCookingResult@2@XZ 0000000180023410 f   QuickHullConvexHullLib.obj
 0001:00022d50       ?expandHullOBB@QuickHullConvexHullLib@physx@@IEAA?AW4Enum@PxConvexMeshCookingResult@2@XZ 0000000180023d50 f   QuickHullConvexHullLib.obj
 0001:00023190       ?fillConvexMeshDesc@QuickHullConvexHullLib@physx@@UEAAXAEAVPxConvexMeshDesc@2@@Z 0000000180024190 f   QuickHullConvexHullLib.obj
 0001:000231e0       ?fillConvexMeshDescFromCroppedHull@QuickHullConvexHullLib@physx@@IEAAXAEAVPxConvexMeshDesc@2@@Z 00000001800241e0 f   QuickHullConvexHullLib.obj
 0001:000233d0       ?fillConvexMeshDescFromQuickHull@QuickHullConvexHullLib@physx@@IEAAXAEAVPxConvexMeshDesc@2@@Z 00000001800243d0 f   QuickHullConvexHullLib.obj
 0001:00023750       ?findSimplex@QuickHull@local@@IEAA_NXZ 0000000180024750 f   QuickHullConvexHullLib.obj
 0001:00024390       ?getFreeItem@?$MemBlock@UQuickHullFace@local@@$00@local@@QEAAPEAUQuickHullFace@2@XZ 0000000180025390 f i QuickHullConvexHullLib.obj
 0001:000244d0       ?getFreeItem@?$MemBlock@UQuickHullHalfEdge@local@@$0A@@local@@QEAAPEAUQuickHullHalfEdge@2@XZ 00000001800254d0 f i QuickHullConvexHullLib.obj
 0001:000245a0       ?growAndPushBack@?$Array@PEAUQuickHullFace@local@@V?$ReflectionAllocator@PEAUQuickHullFace@local@@@shdfnd@physx@@@shdfnd@physx@@IEAAAEAPEAUQuickHullFace@local@@AEBQEAU45@@Z 00000001800255a0 f i QuickHullConvexHullLib.obj
 0001:00024670       ?growAndPushBack@?$Array@PEAUQuickHullHalfEdge@local@@V?$ReflectionAllocator@PEAUQuickHullHalfEdge@local@@@shdfnd@physx@@@shdfnd@physx@@IEAAAEAPEAUQuickHullHalfEdge@local@@AEBQEAU45@@Z 0000000180025670 f i QuickHullConvexHullLib.obj
 0001:00024740       ?growAndPushBack@?$Array@PEAUQuickHullVertex@local@@V?$ReflectionAllocator@PEAUQuickHullVertex@local@@@shdfnd@physx@@@shdfnd@physx@@IEAAAEAPEAUQuickHullVertex@local@@AEBQEAU45@@Z 0000000180025740 f i QuickHullConvexHullLib.obj
 0001:00024810       ?growAndPushBack@?$Array@UExpandPoint@local@@V?$ReflectionAllocator@UExpandPoint@local@@@shdfnd@physx@@@shdfnd@physx@@IEAAAEAUExpandPoint@local@@AEBU45@@Z 0000000180025810 f i QuickHullConvexHullLib.obj
 0001:00024930       ?init@?$MemBlock@UQuickHullFace@local@@$00@local@@QEAAXI@Z 0000000180025930 f i QuickHullConvexHullLib.obj
 0001:00024a20       ?init@?$MemBlock@UQuickHullHalfEdge@local@@$0A@@local@@QEAAXI@Z 0000000180025a20 f i QuickHullConvexHullLib.obj
 0001:00024ac0       ?mergeAdjacentFace@QuickHullFace@local@@QEAA_NPEAUQuickHullHalfEdge@2@AEAV?$Array@PEAUQuickHullFace@local@@V?$ReflectionAllocator@PEAUQuickHullFace@local@@@shdfnd@physx@@@shdfnd@physx@@@Z 0000000180025ac0 f   QuickHullConvexHullLib.obj
 0001:00024f10       ?nextPointToAdd@QuickHull@local@@IEAAPEAUQuickHullVertex@2@AEAPEAUQuickHullFace@2@@Z 0000000180025f10 f   QuickHullConvexHullLib.obj
 0001:00025090       ?parseInputVertices@QuickHull@local@@QEAAXPEBVPxVec3@physx@@I@Z 0000000180026090 f   QuickHullConvexHullLib.obj
 0001:00025210       ?postMergeHull@QuickHull@local@@IEAAXXZ 0000000180026210 f   QuickHullConvexHullLib.obj
 0001:00025470       ?preallocate@QuickHull@local@@QEAAXI@Z 0000000180026470 f   QuickHullConvexHullLib.obj
 0001:000255b0       ?recreate@?$Array@PEAUQuickHullFace@local@@V?$ReflectionAllocator@PEAUQuickHullFace@local@@@shdfnd@physx@@@shdfnd@physx@@IEAAXI@Z 00000001800265b0 f i QuickHullConvexHullLib.obj
 0001:00025650       ?recreate@?$Array@PEAUQuickHullHalfEdge@local@@V?$ReflectionAllocator@PEAUQuickHullHalfEdge@local@@@shdfnd@physx@@@shdfnd@physx@@IEAAXI@Z 0000000180026650 f i QuickHullConvexHullLib.obj
 0001:000256f0       ?recreate@?$Array@PEAUQuickHullVertex@local@@V?$ReflectionAllocator@PEAUQuickHullVertex@local@@@shdfnd@physx@@@shdfnd@physx@@IEAAXI@Z 00000001800266f0 f i QuickHullConvexHullLib.obj
 0001:00025790       ?recreate@?$Array@UExpandPoint@local@@V?$ReflectionAllocator@UExpandPoint@local@@@shdfnd@physx@@@shdfnd@physx@@IEAAXI@Z 0000000180026790 f i QuickHullConvexHullLib.obj
 0001:00025810       ?resolveUnclaimedPoints@QuickHull@local@@IEAAXAEBV?$Array@PEAUQuickHullFace@local@@V?$ReflectionAllocator@PEAUQuickHullFace@local@@@shdfnd@physx@@@shdfnd@physx@@@Z 0000000180026810 f   QuickHullConvexHullLib.obj
 0001:00026580       ?computeVolumeIntegralsEberly@physx@@YA_NAEBVPxConvexMeshDesc@1@MAEAUPxIntegrals@1@AEBVPxVec3@1@@Z 0000000180027580 f   VolumeIntegration.obj
 0001:000265c0       ?computeVolumeIntegralsEberlySIMD@physx@@YA_NAEBVPxConvexMeshDesc@1@MAEAUPxIntegrals@1@AEBVPxVec3@1@@Z 00000001800275c0 f   VolumeIntegration.obj
 0001:00026c20       ?cookingDelayHook@@YAP6A_JXZIPEAUDelayLoadInfo@@@Z 0000000180027c20 f   WindowsCookingDelayLoadHook.obj
 0001:00026d00       PxSetPhysXCookingDelayLoadHook 0000000180027d00 f   WindowsCookingDelayLoadHook.obj
 0001:00026d08       ??0RadixSortBuffered@Cm@physx@@QEAA@XZ 0000000180027d08 f   PhysXCommon_64:PhysXCommon_64.dll
 0001:00026d0e       __tailMerge_physxcommon_64_dll 0000000180027d0e     PhysXCommon_64:PhysXCommon_64.dll
 0001:00026d87       __imp_load_??0RadixSortBuffered@Cm@physx@@QEAA@XZ 0000000180027d87 f   PhysXCommon_64:PhysXCommon_64.dll
 0001:00026d93       ??1RadixSortBuffered@Cm@physx@@UEAA@XZ 0000000180027d93 f   PhysXCommon_64:PhysXCommon_64.dll
 0001:00026d99       __imp_load_??1RadixSortBuffered@Cm@physx@@UEAA@XZ 0000000180027d99 f   PhysXCommon_64:PhysXCommon_64.dll
 0001:00026da5       ?Sort@RadixSortBuffered@Cm@physx@@QEAAAEAV123@PEBIIW4RadixHint@23@@Z 0000000180027da5 f   PhysXCommon_64:PhysXCommon_64.dll
 0001:00026dab       __imp_load_?Sort@RadixSortBuffered@Cm@physx@@QEAAAEAV123@PEBIIW4RadixHint@23@@Z 0000000180027dab f   PhysXCommon_64:PhysXCommon_64.dll
 0001:00026db7       ??0HeightField@Gu@physx@@QEAA@PEAVGuMeshFactory@2@@Z 0000000180027db7 f   PhysXCommon_64:PhysXCommon_64.dll
 0001:00026dbd       __imp_load_??0HeightField@Gu@physx@@QEAA@PEAVGuMeshFactory@2@@Z 0000000180027dbd f   PhysXCommon_64:PhysXCommon_64.dll
 0001:00026dc9       ?loadFromDesc@HeightField@Gu@physx@@QEAA_NAEBVPxHeightFieldDesc@3@@Z 0000000180027dc9 f   PhysXCommon_64:PhysXCommon_64.dll
 0001:00026dcf       __imp_load_?loadFromDesc@HeightField@Gu@physx@@QEAA_NAEBVPxHeightFieldDesc@3@@Z 0000000180027dcf f   PhysXCommon_64:PhysXCommon_64.dll
 0001:00026ddb       ?computeCellCoordinates@HeightField@Gu@physx@@QEBAIMMAEAM0@Z 0000000180027ddb f   PhysXCommon_64:PhysXCommon_64.dll
 0001:00026de1       __imp_load_?computeCellCoordinates@HeightField@Gu@physx@@QEBAIMMAEAM0@Z 0000000180027de1 f   PhysXCommon_64:PhysXCommon_64.dll
 0001:00026ded       ?releaseMemory@HeightField@Gu@physx@@QEAAXXZ 0000000180027ded f   PhysXCommon_64:PhysXCommon_64.dll
 0001:00026df3       __imp_load_?releaseMemory@HeightField@Gu@physx@@QEAAXXZ 0000000180027df3 f   PhysXCommon_64:PhysXCommon_64.dll
 0001:00026dff       ??1HeightField@Gu@physx@@UEAA@XZ 0000000180027dff f   PhysXCommon_64:PhysXCommon_64.dll
 0001:00026e05       __imp_load_??1HeightField@Gu@physx@@UEAA@XZ 0000000180027e05 f   PhysXCommon_64:PhysXCommon_64.dll
 0001:00026e11       ??0NodeAllocator@Gu@physx@@QEAA@XZ 0000000180027e11 f   PhysXCommon_64:PhysXCommon_64.dll
 0001:00026e17       __imp_load_??0NodeAllocator@Gu@physx@@QEAA@XZ 0000000180027e17 f   PhysXCommon_64:PhysXCommon_64.dll
 0001:00026e23       ??1NodeAllocator@Gu@physx@@QEAA@XZ 0000000180027e23 f   PhysXCommon_64:PhysXCommon_64.dll
 0001:00026e29       __imp_load_??1NodeAllocator@Gu@physx@@QEAA@XZ 0000000180027e29 f   PhysXCommon_64:PhysXCommon_64.dll
 0001:00026e35       ?release@NodeAllocator@Gu@physx@@QEAAXXZ 0000000180027e35 f   PhysXCommon_64:PhysXCommon_64.dll
 0001:00026e3b       __imp_load_?release@NodeAllocator@Gu@physx@@QEAAXXZ 0000000180027e3b f   PhysXCommon_64:PhysXCommon_64.dll
 0001:00026e47       ?buildAABBTree@Gu@physx@@YA_NAEAVAABBTreeBuildParams@12@AEAVNodeAllocator@12@AEAUBuildStats@12@AEAPEAI@Z 0000000180027e47 f   PhysXCommon_64:PhysXCommon_64.dll
 0001:00026e4d       __imp_load_?buildAABBTree@Gu@physx@@YA_NAEAVAABBTreeBuildParams@12@AEAVNodeAllocator@12@AEAUBuildStats@12@AEAPEAI@Z 0000000180027e4d f   PhysXCommon_64:PhysXCommon_64.dll
 0001:00026e59       ?writeDword@physx@@YAXI_NAEAVPxOutputStream@1@@Z 0000000180027e59 f   PhysXCommon_64:PhysXCommon_64.dll
 0001:00026e5f       __imp_load_?writeDword@physx@@YAXI_NAEAVPxOutputStream@1@@Z 0000000180027e5f f   PhysXCommon_64:PhysXCommon_64.dll
 0001:00026e6b       ?writeFloatBuffer@physx@@YAXPEBMI_NAEAVPxOutputStream@1@@Z 0000000180027e6b f   PhysXCommon_64:PhysXCommon_64.dll
 0001:00026e71       __imp_load_?writeFloatBuffer@physx@@YAXPEBMI_NAEAVPxOutputStream@1@@Z 0000000180027e71 f   PhysXCommon_64:PhysXCommon_64.dll
 0001:00026e7d       ?writeHeader@physx@@YA_NCCCCI_NAEAVPxOutputStream@1@@Z 0000000180027e7d f   PhysXCommon_64:PhysXCommon_64.dll
 0001:00026e83       __imp_load_?writeHeader@physx@@YA_NCCCCI_NAEAVPxOutputStream@1@@Z 0000000180027e83 f   PhysXCommon_64:PhysXCommon_64.dll
 0001:00026e8f       ?writeWord@physx@@YAXG_NAEAVPxOutputStream@1@@Z 0000000180027e8f f   PhysXCommon_64:PhysXCommon_64.dll
 0001:00026e95       __imp_load_?writeWord@physx@@YAXG_NAEAVPxOutputStream@1@@Z 0000000180027e95 f   PhysXCommon_64:PhysXCommon_64.dll
 0001:00026ea1       ?writeFloat@physx@@YAXM_NAEAVPxOutputStream@1@@Z 0000000180027ea1 f   PhysXCommon_64:PhysXCommon_64.dll
 0001:00026ea7       __imp_load_?writeFloat@physx@@YAXM_NAEAVPxOutputStream@1@@Z 0000000180027ea7 f   PhysXCommon_64:PhysXCommon_64.dll
 0001:00026eb3       ?computeBoundsAroundVertices@Gu@physx@@YAXAEAVPxBounds3@2@IPEIBVPxVec3@2@@Z 0000000180027eb3 f   PhysXCommon_64:PhysXCommon_64.dll
 0001:00026eb9       __imp_load_?computeBoundsAroundVertices@Gu@physx@@YAXAEAVPxBounds3@2@IPEIBVPxVec3@2@@Z 0000000180027eb9 f   PhysXCommon_64:PhysXCommon_64.dll
 0001:00026ec5       ??0SourceMesh@Gu@physx@@QEAA@XZ 0000000180027ec5 f   PhysXCommon_64:PhysXCommon_64.dll
 0001:00026ecb       __imp_load_??0SourceMesh@Gu@physx@@QEAA@XZ 0000000180027ecb f   PhysXCommon_64:PhysXCommon_64.dll
 0001:00026ed7       ??1SourceMesh@Gu@physx@@QEAA@XZ 0000000180027ed7 f   PhysXCommon_64:PhysXCommon_64.dll
 0001:00026edd       __imp_load_??1SourceMesh@Gu@physx@@QEAA@XZ 0000000180027edd f   PhysXCommon_64:PhysXCommon_64.dll
 0001:00026ee9       ??0BV4Tree@Gu@physx@@QEAA@XZ 0000000180027ee9 f   PhysXCommon_64:PhysXCommon_64.dll
 0001:00026eef       __imp_load_??0BV4Tree@Gu@physx@@QEAA@XZ 0000000180027eef f   PhysXCommon_64:PhysXCommon_64.dll
 0001:00026efb       ??1BV4Tree@Gu@physx@@QEAA@XZ 0000000180027efb f   PhysXCommon_64:PhysXCommon_64.dll
 0001:00026f01       __imp_load_??1BV4Tree@Gu@physx@@QEAA@XZ 0000000180027f01 f   PhysXCommon_64:PhysXCommon_64.dll
 0001:00026f0d       ??0BV32Tree@Gu@physx@@QEAA@XZ 0000000180027f0d f   PhysXCommon_64:PhysXCommon_64.dll
 0001:00026f13       __imp_load_??0BV32Tree@Gu@physx@@QEAA@XZ 0000000180027f13 f   PhysXCommon_64:PhysXCommon_64.dll
 0001:00026f1f       ??1BV32Tree@Gu@physx@@QEAA@XZ 0000000180027f1f f   PhysXCommon_64:PhysXCommon_64.dll
 0001:00026f25       __imp_load_??1BV32Tree@Gu@physx@@QEAA@XZ 0000000180027f25 f   PhysXCommon_64:PhysXCommon_64.dll
 0001:00026f31       ?writeWordBuffer@physx@@YAXPEBGI_NAEAVPxOutputStream@1@@Z 0000000180027f31 f   PhysXCommon_64:PhysXCommon_64.dll
 0001:00026f37       __imp_load_?writeWordBuffer@physx@@YAXPEBGI_NAEAVPxOutputStream@1@@Z 0000000180027f37 f   PhysXCommon_64:PhysXCommon_64.dll
 0001:00026f43       ?computeMaxIndex@physx@@YAIPEBII@Z 0000000180027f43 f   PhysXCommon_64:PhysXCommon_64.dll
 0001:00026f49       __imp_load_?computeMaxIndex@physx@@YAIPEBII@Z 0000000180027f49 f   PhysXCommon_64:PhysXCommon_64.dll
 0001:00026f55       ?storeIndices@physx@@YAXIIPEBIAEAVPxOutputStream@1@_N@Z 0000000180027f55 f   PhysXCommon_64:PhysXCommon_64.dll
 0001:00026f5b       __imp_load_?storeIndices@physx@@YAXIIPEBIAEAVPxOutputStream@1@_N@Z 0000000180027f5b f   PhysXCommon_64:PhysXCommon_64.dll
 0001:00026f67       ?BuildBV4Ex@Gu@physx@@YA_NAEAVBV4Tree@12@AEAVSourceMesh@12@MI@Z 0000000180027f67 f   PhysXCommon_64:PhysXCommon_64.dll
 0001:00026f6d       __imp_load_?BuildBV4Ex@Gu@physx@@YA_NAEAVBV4Tree@12@AEAVSourceMesh@12@MI@Z 0000000180027f6d f   PhysXCommon_64:PhysXCommon_64.dll
 0001:00026f79       ?BuildBV32Ex@Gu@physx@@YA_NAEAVBV32Tree@12@AEAVSourceMesh@12@MI@Z 0000000180027f79 f   PhysXCommon_64:PhysXCommon_64.dll
 0001:00026f7f       __imp_load_?BuildBV32Ex@Gu@physx@@YA_NAEAVBV32Tree@12@AEAVSourceMesh@12@MI@Z 0000000180027f7f f   PhysXCommon_64:PhysXCommon_64.dll
 0001:00026f8b       ?computeMaxIndex@physx@@YAGPEBGI@Z 0000000180027f8b f   PhysXCommon_64:PhysXCommon_64.dll
 0001:00026f91       __imp_load_?computeMaxIndex@physx@@YAGPEBGI@Z 0000000180027f91 f   PhysXCommon_64:PhysXCommon_64.dll
 0001:00026f9d       ?WriteHeader@Gu@physx@@YA_NEEEEI_NAEAVPxOutputStream@2@@Z 0000000180027f9d f   PhysXCommon_64:PhysXCommon_64.dll
 0001:00026fa3       __imp_load_?WriteHeader@Gu@physx@@YA_NEEEEI_NAEAVPxOutputStream@2@@Z 0000000180027fa3 f   PhysXCommon_64:PhysXCommon_64.dll
 0001:00026faf       ?StoreIndices@Gu@physx@@YAXGIPEBGAEAVPxOutputStream@2@_N@Z 0000000180027faf f   PhysXCommon_64:PhysXCommon_64.dll
 0001:00026fb5       __imp_load_?StoreIndices@Gu@physx@@YAXGIPEBGAEAVPxOutputStream@2@_N@Z 0000000180027fb5 f   PhysXCommon_64:PhysXCommon_64.dll
 0001:00026fc1       ?CreateOffsets@BigConvexData@physx@@IEAAXXZ 0000000180027fc1 f   PhysXCommon_64:PhysXCommon_64.dll
 0001:00026fc7       __imp_load_?CreateOffsets@BigConvexData@physx@@IEAAXXZ 0000000180027fc7 f   PhysXCommon_64:PhysXCommon_64.dll
 0001:00026fd3       ?computeOBBPoints@Gu@physx@@YAXPEIAVPxVec3@2@AEBV32@1111@Z 0000000180027fd3 f   PhysXCommon_64:PhysXCommon_64.dll
 0001:00026fd9       __imp_load_?computeOBBPoints@Gu@physx@@YAXPEIAVPxVec3@2@AEBV32@1111@Z 0000000180027fd9 f   PhysXCommon_64:PhysXCommon_64.dll
 0001:00026fe5       ??0BigConvexData@physx@@QEAA@XZ 0000000180027fe5 f   PhysXCommon_64:PhysXCommon_64.dll
 0001:00026feb       __imp_load_??0BigConvexData@physx@@QEAA@XZ 0000000180027feb f   PhysXCommon_64:PhysXCommon_64.dll
 0001:00026ff7       ??1BigConvexData@physx@@QEAA@XZ 0000000180027ff7 f   PhysXCommon_64:PhysXCommon_64.dll
 0001:00026ffd       __imp_load_??1BigConvexData@physx@@QEAA@XZ 0000000180027ffd f   PhysXCommon_64:PhysXCommon_64.dll
 0001:00027009       PxGetFoundation            0000000180028009 f   PhysXFoundation_64:PhysXFoundation_64.dll
 0001:0002700f       __tailMerge_physxfoundation_64_dll 000000018002800f     PhysXFoundation_64:PhysXFoundation_64.dll
 0001:00027088       __imp_load_PxGetFoundation 0000000180028088 f   PhysXFoundation_64:PhysXFoundation_64.dll
 0001:00027094       ?getAllocator@shdfnd@physx@@YAAEAVPxAllocatorCallback@2@XZ 0000000180028094 f   PhysXFoundation_64:PhysXFoundation_64.dll
 0001:0002709a       __imp_load_?getAllocator@shdfnd@physx@@YAAEAVPxAllocatorCallback@2@XZ 000000018002809a f   PhysXFoundation_64:PhysXFoundation_64.dll
 0001:000270a6       ?getInstance@Foundation@shdfnd@physx@@SAAEAV123@XZ 00000001800280a6 f   PhysXFoundation_64:PhysXFoundation_64.dll
 0001:000270ac       __imp_load_?getInstance@Foundation@shdfnd@physx@@SAAEAV123@XZ 00000001800280ac f   PhysXFoundation_64:PhysXFoundation_64.dll
 0001:000270b8       ?error@Foundation@shdfnd@physx@@QEAAXW4Enum@PxErrorCode@3@PEBDH1ZZ 00000001800280b8 f   PhysXFoundation_64:PhysXFoundation_64.dll
 0001:000270be       __imp_load_?error@Foundation@shdfnd@physx@@QEAAXW4Enum@PxErrorCode@3@PEBDH1ZZ 00000001800280be f   PhysXFoundation_64:PhysXFoundation_64.dll
 0001:000270ca       ?incRefCount@Foundation@shdfnd@physx@@SAXXZ 00000001800280ca f   PhysXFoundation_64:PhysXFoundation_64.dll
 0001:000270d0       __imp_load_?incRefCount@Foundation@shdfnd@physx@@SAXXZ 00000001800280d0 f   PhysXFoundation_64:PhysXFoundation_64.dll
 0001:000270dc       ?decRefCount@Foundation@shdfnd@physx@@SAXXZ 00000001800280dc f   PhysXFoundation_64:PhysXFoundation_64.dll
 0001:000270e2       __imp_load_?decRefCount@Foundation@shdfnd@physx@@SAXXZ 00000001800280e2 f   PhysXFoundation_64:PhysXFoundation_64.dll
 0001:000270ee       ??0FPUGuard@shdfnd@physx@@QEAA@XZ 00000001800280ee f   PhysXFoundation_64:PhysXFoundation_64.dll
 0001:000270f4       __imp_load_??0FPUGuard@shdfnd@physx@@QEAA@XZ 00000001800280f4 f   PhysXFoundation_64:PhysXFoundation_64.dll
 0001:00027100       ??1FPUGuard@shdfnd@physx@@QEAA@XZ 0000000180028100 f   PhysXFoundation_64:PhysXFoundation_64.dll
 0001:00027106       __imp_load_??1FPUGuard@shdfnd@physx@@QEAA@XZ 0000000180028106 f   PhysXFoundation_64:PhysXFoundation_64.dll
 0001:00027112       ?allocate@TempAllocator@shdfnd@physx@@QEAAPEAX_KPEBDH@Z 0000000180028112 f   PhysXFoundation_64:PhysXFoundation_64.dll
 0001:00027118       __imp_load_?allocate@TempAllocator@shdfnd@physx@@QEAAPEAX_KPEBDH@Z 0000000180028118 f   PhysXFoundation_64:PhysXFoundation_64.dll
 0001:00027124       ?deallocate@TempAllocator@shdfnd@physx@@QEAAXPEAX@Z 0000000180028124 f   PhysXFoundation_64:PhysXFoundation_64.dll
 0001:0002712a       __imp_load_?deallocate@TempAllocator@shdfnd@physx@@QEAAXPEAX@Z 000000018002812a f   PhysXFoundation_64:PhysXFoundation_64.dll
 0001:00027136       ?PxDiagonalize@physx@@YA?AVPxVec3@1@AEBVPxMat33@1@AEAVPxQuat@1@@Z 0000000180028136 f   PhysXFoundation_64:PhysXFoundation_64.dll
 0001:0002713c       __imp_load_?PxDiagonalize@physx@@YA?AVPxVec3@1@AEBVPxMat33@1@AEAVPxQuat@1@@Z 000000018002813c f   PhysXFoundation_64:PhysXFoundation_64.dll
 0001:00027234       ?DloadAcquireSectionWriteAccess@@YAXXZ 0000000180028234 f i Delayimp:delayhlp.obj
 0001:000272f0       ?DloadGetSRWLockFunctionPointers@@YAEXZ 00000001800282f0 f i Delayimp:delayhlp.obj
 0001:00027390       ?DloadMakePermanentImageCommit@@YAXPEAX_K@Z 0000000180028390 f i Delayimp:delayhlp.obj
 0001:00027428       ?DloadObtainSection@@YAPEAXPEAK0@Z 0000000180028428 f i Delayimp:delayhlp.obj
 0001:000274c4       ?DloadProtectSection@@YAXPEAX_KKPEAK@Z 00000001800284c4 f i Delayimp:delayhlp.obj
 0001:000275bc       ?DloadReleaseSectionWriteAccess@@YAXXZ 00000001800285bc f i Delayimp:delayhlp.obj
 0001:00027668       __delayLoadHelper2         0000000180028668 f   Delayimp:delayhlp.obj
 0001:00027964       ??3@YAXPEAX_K@Z            0000000180028964 f   LIBCMT:delete_scalar_size.obj
 0001:00027964       ??_V@YAXPEAX@Z             0000000180028964 f   LIBCMT:delete_array.obj
 0001:0002796c       ??_Etype_info@@UEAAPEAXI@Z 000000018002896c f i LIBCMT:std_type_info_static.obj
 0001:0002796c       ??_Gtype_info@@UEAAPEAXI@Z 000000018002896c f i LIBCMT:std_type_info_static.obj
 0001:00027998       ?__scrt_initialize_type_info@@YAXXZ 0000000180028998 f   LIBCMT:tncleanup.obj
 0001:000279a8       ?__scrt_uninitialize_type_info@@YAXXZ 00000001800289a8 f   LIBCMT:tncleanup.obj
 0001:000279d0       __chkstk                   00000001800289d0 f   LIBCMT:chkstk.obj
 0001:000279d0       _alloca_probe              00000001800289d0 f   LIBCMT:chkstk.obj
 0001:00027a20       ??3@YAXPEAX@Z              0000000180028a20 f   LIBCMT:delete_scalar.obj
 0001:00027a30       __vdecl_sinf4              0000000180028a30 f   LIBCMT:svml_ssinf4_dispatch.obj
 0001:00027a50       __libm_sse2_sincosf_       0000000180028a50 f   LIBCMT:svml_ssinf4_dispatch.obj
 0001:00027a93       __libm_sse2_sincosf4_      0000000180028a93 f   LIBCMT:svml_ssinf4_dispatch.obj
 0001:00027db4       _DllMainCRTStartup         0000000180028db4 f   LIBCMT:dll_dllmain.obj
 0001:00027df4       __isa_available_init       0000000180028df4 f   LIBCMT:cpu_disp.obj
 0001:00028090       __sse2_sinf4@@16           0000000180029090 f   LIBCMT:svml_ssinf4_sse2.obj
 0001:000289d0       __sse4_sinf4@@16           00000001800299d0 f   LIBCMT:svml_ssinf4_sse4.obj
 0001:00029144       __security_init_cookie     000000018002a144 f   LIBCMT:gs_support.obj
 0001:000291f4       __local_stdio_printf_options 000000018002a1f4 f i LIBCMT:default_local_stdio_options.obj
 0001:000291fc       __local_stdio_scanf_options 000000018002a1fc f i LIBCMT:default_local_stdio_options.obj
 0001:00029204       __scrt_initialize_default_local_stdio_options 000000018002a204 f   LIBCMT:default_local_stdio_options.obj
 0001:00029220       __scrt_acquire_startup_lock 000000018002a220 f   LIBCMT:utility.obj
 0001:0002925c       __scrt_dllmain_after_initialize_c 000000018002a25c f   LIBCMT:utility.obj
 0001:00029290       __scrt_dllmain_before_initialize_c 000000018002a290 f   LIBCMT:utility.obj
 0001:000292a8       __scrt_dllmain_crt_thread_attach 000000018002a2a8 f   LIBCMT:utility.obj
 0001:000292d0       __scrt_dllmain_crt_thread_detach 000000018002a2d0 f   LIBCMT:utility.obj
 0001:000292e8       __scrt_dllmain_exception_filter 000000018002a2e8 f   LIBCMT:utility.obj
 0001:00029348       __scrt_dllmain_uninitialize_c 000000018002a348 f   LIBCMT:utility.obj
 0001:00029378       __scrt_dllmain_uninitialize_critical 000000018002a378 f   LIBCMT:utility.obj
 0001:0002938c       __scrt_initialize_crt      000000018002a38c f   LIBCMT:utility.obj
 0001:000293c8       __scrt_initialize_onexit_tables 000000018002a3c8 f   LIBCMT:utility.obj
 0001:00029454       __scrt_is_nonwritable_in_current_image 000000018002a454 f   LIBCMT:utility.obj
 0001:000294ec       __scrt_release_startup_lock 000000018002a4ec f   LIBCMT:utility.obj
 0001:00029510       __scrt_uninitialize_crt    000000018002a510 f   LIBCMT:utility.obj
 0001:0002953c       __scrt_get_dyn_tls_init_callback 000000018002a53c f   LIBCMT:dyn_tls_init.obj
 0001:00029544       __crt_debugger_hook        000000018002a544 f   LIBCMT:utility_desktop.obj
 0001:00029550       __scrt_fastfail            000000018002a550 f   LIBCMT:utility_desktop.obj
 0001:0002969c       _RTC_Initialize            000000018002a69c f   LIBCMT:initsect.obj
 0001:000296d8       _RTC_Terminate             000000018002a6d8 f   LIBCMT:initsect.obj
 0001:00029720       __common_ssin_cout_rare    000000018002a720 f   LIBCMT:svml_s_sin_cout.obj
 0001:00029790       __scrt_is_ucrt_dll_in_use  000000018002a790 f   LIBCMT:ucrt_detection.obj
 0001:0002979c       _get_purecall_handler      000000018002a79c f   libvcruntime:purevirt.obj
 0001:000297a8       _purecall                  000000018002a7a8 f   libvcruntime:purevirt.obj
 0001:000297cc       __std_type_info_compare    000000018002a7cc f   libvcruntime:std_type_info.obj
 0001:000297f4       __std_type_info_destroy_list 000000018002a7f4 f   libvcruntime:std_type_info.obj
 0001:00029820       __std_type_info_name       000000018002a820 f   libvcruntime:std_type_info.obj
 0001:00029930       strstr                     000000018002a930 f   libvcruntime:strstr.obj
 0001:00029b24       __C_specific_handler       000000018002ab24 f   libvcruntime:riscchandler.obj
 0001:00029d3c       __vcrt_initialize          000000018002ad3c f   libvcruntime:initialization.obj
 0001:00029d64       __vcrt_thread_attach       000000018002ad64 f   libvcruntime:initialization.obj
 0001:00029d78       __vcrt_thread_detach       000000018002ad78 f   libvcruntime:initialization.obj
 0001:00029d88       __vcrt_uninitialize        000000018002ad88 f   libvcruntime:initialization.obj
 0001:00029da4       __vcrt_uninitialize_critical 000000018002ada4 f   libvcruntime:initialization.obj
 0001:00029db4       __DestructExceptionObject  000000018002adb4 f   libvcruntime:ehhelpers.obj
 0001:00029e28       ?_CallMemberFunction0@@YAXQEAX0@Z 000000018002ae28 f i libvcruntime:ehhelpers.obj
 0001:00029e2c       _IsExceptionObjectToBeDestroyed 000000018002ae2c f   libvcruntime:ehhelpers.obj
 0001:00029e5c       __AdjustPointer            000000018002ae5c f   libvcruntime:ehhelpers.obj
 0001:00029e80       __FrameUnwindFilter        000000018002ae80 f   libvcruntime:ehhelpers.obj
 0001:00029ee8       __std_terminate            000000018002aee8 f   libvcruntime:ehhelpers.obj
 0001:00029ef4       ??$?0$00@DName@@QEAA@PEAVUnDecorator@@PEBDU?$StringLifeSelector@$00@@@Z 000000018002aef4 f i libvcruntime:undname.obj
 0001:00029f40       ??$?0$01@DName@@QEAA@PEAVUnDecorator@@PEBDU?$StringLifeSelector@$01@@@Z 000000018002af40 f i libvcruntime:undname.obj
 0001:00029f40       ??$?0$0A@@DName@@QEAA@PEAVUnDecorator@@PEBDU?$StringLifeSelector@$0A@@@@Z 000000018002af40 f i libvcruntime:undname.obj
 0001:00029f8c       ??$?0$01@pcharNode@@QEAA@PEBDHU?$StringLifeSelector@$01@@AEAV_HeapManager@@@Z 000000018002af8c f i libvcruntime:undname.obj
 0001:00029f8c       ??$?0$0A@@pcharNode@@QEAA@PEBDHU?$StringLifeSelector@$0A@@@AEAV_HeapManager@@@Z 000000018002af8c f i libvcruntime:undname.obj
 0001:0002a000       ??$append@VDNameNode@@@DName@@AEAAXPEBVDNameNode@@@Z 000000018002b000 f i libvcruntime:undname.obj
 0001:0002a000       ??$append@VDNameStatusNode@@@DName@@AEAAXPEBVDNameStatusNode@@@Z 000000018002b000 f i libvcruntime:undname.obj
 0001:0002a000       ??$append@VcharNode@@@DName@@AEAAXPEBVcharNode@@@Z 000000018002b000 f i libvcruntime:undname.obj
 0001:0002a000       ??$append@VpcharNode@@@DName@@AEAAXPEBVpcharNode@@@Z 000000018002b000 f i libvcruntime:undname.obj
 0001:0002a06c       ??$doPchar@$00@DName@@AEAAXPEBDH@Z 000000018002b06c f i libvcruntime:undname.obj
 0001:0002a114       ??$doPchar@$01@DName@@AEAAXPEBDH@Z 000000018002b114 f i libvcruntime:undname.obj
 0001:0002a114       ??$doPchar@$0A@@DName@@AEAAXPEBDH@Z 000000018002b114 f i libvcruntime:undname.obj
 0001:0002a1cc       ??0DName@@QEAA@PEAVUnDecorator@@AEAPEBDD@Z 000000018002b1cc f   libvcruntime:undname.obj
 0001:0002a290       ??0DName@@QEAA@PEAVUnDecorator@@AEBUStringLiteral@@@Z 000000018002b290 f   libvcruntime:undname.obj
 0001:0002a2c8       ??0DName@@QEAA@PEAVUnDecorator@@D@Z 000000018002b2c8 f   libvcruntime:undname.obj
 0001:0002a2f4       ??0DName@@QEAA@PEAVUnDecorator@@PEAV0@@Z 000000018002b2f4 f   libvcruntime:undname.obj
 0001:0002a37c       ??0DName@@QEAA@PEAVUnDecorator@@W4DNameStatus@@@Z 000000018002b37c f   libvcruntime:undname.obj
 0001:0002a3b0       ??0DName@@QEAA@PEAVUnDecorator@@_J@Z 000000018002b3b0 f   libvcruntime:undname.obj
 0001:0002a45c       ??0DName@@QEAA@PEAVUnDecorator@@_K@Z 000000018002b45c f   libvcruntime:undname.obj
 0001:0002a4e8       ??0DNameNode@@IEAA@XZ      000000018002b4e8 f i libvcruntime:undname.obj
 0001:0002a4f8       ??0UnDecorator@@QEAA@PEBDP6APEADJ@ZKP6APEAX_K@ZP6AXPEAX@Z@Z 000000018002b4f8 f i libvcruntime:undname.obj
 0001:0002a5e8       ??2@YAPEAX_KAEAV_HeapManager@@H@Z 000000018002b5e8 f   libvcruntime:undname.obj
 0001:0002a610       ??4DName@@QEAAAEAV0@AEBUStringLiteral@@@Z 000000018002b610 f   libvcruntime:undname.obj
 0001:0002a63c       ??AReplicator@@QEBA?AVDName@@H@Z 000000018002b63c f   libvcruntime:undname.obj
 0001:0002a698       ??HDName@@QEBA?AV0@AEBUStringLiteral@@@Z 000000018002b698 f   libvcruntime:undname.obj
 0001:0002a6cc       ??HDName@@QEBA?AV0@AEBV0@@Z 000000018002b6cc f   libvcruntime:undname.obj
 0001:0002a700       ??HDName@@QEBA?AV0@D@Z     000000018002b700 f   libvcruntime:undname.obj
 0001:0002a734       ??HDName@@QEBA?AV0@W4DNameStatus@@@Z 000000018002b734 f   libvcruntime:undname.obj
 0001:0002a768       ??YDName@@QEAAAEAV0@AEBUStringLiteral@@@Z 000000018002b768 f   libvcruntime:undname.obj
 0001:0002a7e0       ??YDName@@QEAAAEAV0@AEBV0@@Z 000000018002b7e0 f   libvcruntime:undname.obj
 0001:0002a898       ??YDName@@QEAAAEAV0@D@Z    000000018002b898 f   libvcruntime:undname.obj
 0001:0002a910       ??YDName@@QEAAAEAV0@W4DNameStatus@@@Z 000000018002b910 f   libvcruntime:undname.obj
 0001:0002a97c       ??YReplicator@@QEAAAEAV0@AEBVDName@@@Z 000000018002b97c f   libvcruntime:undname.obj
 0001:0002a9e0       ?UScore@UnDecorator@@QEAA?AUStringLiteral@@W4Tokens@@@Z 000000018002b9e0 f   libvcruntime:undname.obj
 0001:0002aa20       ?composeDeclaration@UnDecorator@@AEAA?AVDName@@AEBV2@@Z 000000018002ba20 f i libvcruntime:undname.obj
 0001:0002bc3c       ?doPchar@DName@@AEAAXD@Z   000000018002cc3c f   libvcruntime:undname.obj
 0001:0002bc94       ?getAddressOf@UnDecorator@@AEAA?AVDName@@XZ 000000018002cc94 f   libvcruntime:undname.obj
 0001:0002bd34       ?getArgumentList@UnDecorator@@AEAA?AVDName@@XZ 000000018002cd34 f   libvcruntime:undname.obj
 0001:0002bee0       ?getArgumentTypes@UnDecorator@@AEAA?AVDName@@XZ 000000018002cee0 f   libvcruntime:undname.obj
 0001:0002c050       ?getArrayAccess@UnDecorator@@AEAA?AVDName@@XZ 000000018002d050 f   libvcruntime:undname.obj
 0001:0002c100       ?getArrayObject@UnDecorator@@AEAA?AVDName@@XZ 000000018002d100 f   libvcruntime:undname.obj
 0001:0002c1e8       ?getArrayType@UnDecorator@@AEAA?AVDName@@AEBV2@@Z 000000018002d1e8 f i libvcruntime:undname.obj
 0001:0002c460       ?getBasedType@UnDecorator@@AEAA?AVDName@@XZ 000000018002d460 f   libvcruntime:undname.obj
 0001:0002c574       ?getBasicDataType@UnDecorator@@AEAA?AVDName@@AEBV2@@Z 000000018002d574 f   libvcruntime:undname.obj
 0001:0002ccb8       ?getCallingConvention@UnDecorator@@AEAA?AVDName@@XZ 000000018002dcb8 f   libvcruntime:undname.obj
 0001:0002cdf8       ?getDataIndirectType@UnDecorator@@AEAA?AVDName@@AEBV2@W4IndirectionKind@@0H@Z 000000018002ddf8 f   libvcruntime:undname.obj
 0001:0002d994       ?getDataType@UnDecorator@@AEAA?AVDName@@PEAV2@@Z 000000018002e994 f   libvcruntime:undname.obj
 0001:0002dad8       ?getDecoratedName@UnDecorator@@AEAA?AVDName@@XZ 000000018002ead8 f   libvcruntime:undname.obj
 0001:0002de14       ?getDimension@UnDecorator@@AEAA?AVDName@@_N@Z 000000018002ee14 f   libvcruntime:undname.obj
 0001:0002df7c       ?getDispatchTarget@UnDecorator@@AEAA?AVDName@@XZ 000000018002ef7c f   libvcruntime:undname.obj
 0001:0002dff4       ?getECSUDataType@UnDecorator@@AEAA?AVDName@@XZ 000000018002eff4 f   libvcruntime:undname.obj
 0001:0002e238       ?getEnumType@UnDecorator@@AEAA?AVDName@@XZ 000000018002f238 f i libvcruntime:undname.obj
 0001:0002e398       ?getExtendedDataIndirectType@UnDecorator@@AEAA?AVDName@@AEAW4IndirectionKind@@AEA_NH@Z 000000018002f398 f   libvcruntime:undname.obj
 0001:0002e618       ?getExternalDataType@UnDecorator@@AEAA?AVDName@@AEBV2@@Z 000000018002f618 f i libvcruntime:undname.obj
 0001:0002e714       ?getFloatingPoint@UnDecorator@@AEAA?AVDName@@H@Z 000000018002f714 f   libvcruntime:undname.obj
 0001:0002e87c       ?getFunctionIndirectType@UnDecorator@@AEAA?AVDName@@AEBV2@@Z 000000018002f87c f   libvcruntime:undname.obj
 0001:0002ee20       ?getLastChar@DNameStatusNode@@UEBADXZ 000000018002fe20 f i libvcruntime:undname.obj
 0001:0002ee2c       ?getLastChar@charNode@@UEBADXZ 000000018002fe2c f i libvcruntime:undname.obj
 0001:0002ee30       ?getLastChar@pDNameNode@@UEBADXZ 000000018002fe30 f i libvcruntime:undname.obj
 0001:0002ee5c       ?getLastChar@pairNode@@UEBADXZ 000000018002fe5c f i libvcruntime:undname.obj
 0001:0002ee94       ?getLastChar@pcharNode@@UEBADXZ 000000018002fe94 f i libvcruntime:undname.obj
 0001:0002eea8       ?getMemberAccess@UnDecorator@@AEAA?AVDName@@XZ 000000018002fea8 f   libvcruntime:undname.obj
 0001:0002ef54       ?getMemoryWithBuffer@_HeapManager@@QEAAPEAX_K@Z 000000018002ff54 f   libvcruntime:undname.obj
 0001:0002efe4       ?getNoexcept@UnDecorator@@AEAA?AVDName@@XZ 000000018002ffe4 f   libvcruntime:undname.obj
 0001:0002f058       ?getNumberOfDimensions@UnDecorator@@AEAAHXZ 0000000180030058 f   libvcruntime:undname.obj
 0001:0002f0c0       ?getOperatorName@UnDecorator@@AEAA?AVDName@@_NPEA_N@Z 00000001800300c0 f i libvcruntime:undname.obj
 0001:0002fc74       ?getPointerToMember@UnDecorator@@AEAA?AVDName@@XZ 0000000180030c74 f   libvcruntime:undname.obj
 0001:0002fd84       ?getPrimaryDataType@UnDecorator@@AEAA?AVDName@@AEBV2@@Z 0000000180030d84 f   libvcruntime:undname.obj
 0001:0003009c       ?getPtrRefDataType@UnDecorator@@AEAA?AVDName@@AEBV2@H@Z 000000018003109c f   libvcruntime:undname.obj
 0001:0003029c       ?getPtrRefType@UnDecorator@@AEAA?AVDName@@AEBV2@0W4IndirectionKind@@@Z 000000018003129c f   libvcruntime:undname.obj
 0001:00030408       ?getRestrictionSpec@UnDecorator@@AEAA?AVDName@@XZ 0000000180031408 f   libvcruntime:undname.obj
 0001:0003066c       ?getReturnType@UnDecorator@@AEAA?AVDName@@PEAV2@@Z 000000018003166c f   libvcruntime:undname.obj
 0001:000306a8       ?getScope@UnDecorator@@AEAA?AVDName@@XZ 00000001800316a8 f   libvcruntime:undname.obj
 0001:00030b70       ?getScopedName@UnDecorator@@AEAA?AVDName@@XZ 0000000180031b70 f   libvcruntime:undname.obj
 0001:00030ce4       ?getSignedDimension@UnDecorator@@AEAA?AVDName@@XZ 0000000180031ce4 f   libvcruntime:undname.obj
 0001:00030d68       ?getString@DNameStatusNode@@UEBAPEADPEAD0@Z 0000000180031d68 f i libvcruntime:undname.obj
 0001:00030db0       ?getString@charNode@@UEBAPEADPEAD0@Z 0000000180031db0 f i libvcruntime:undname.obj
 0001:00030dc4       ?getString@pDNameNode@@UEBAPEADPEAD0@Z 0000000180031dc4 f i libvcruntime:undname.obj
 0001:00030df4       ?getString@pairNode@@UEBAPEADPEAD0@Z 0000000180031df4 f i libvcruntime:undname.obj
 0001:00030e40       ?getString@pcharNode@@UEBAPEADPEAD0@Z 0000000180031e40 f i libvcruntime:undname.obj
 0001:00030e78       ?getStringEncoding@UnDecorator@@AEAA?AVDName@@W4PrefixKind@@H@Z 0000000180031e78 f   libvcruntime:undname.obj
 0001:00030fa8       ?getStringObject@UnDecorator@@AEAA?AVDName@@XZ 0000000180031fa8 f   libvcruntime:undname.obj
 0001:00031050       ?getSymbolName@UnDecorator@@AEAA?AVDName@@XZ 0000000180032050 f i libvcruntime:undname.obj
 0001:000310a0       ?getTemplateArgumentList@UnDecorator@@AEAA?AVDName@@XZ 00000001800320a0 f   libvcruntime:undname.obj
 0001:00031304       ?getTemplateName@UnDecorator@@AEAA?AVDName@@_N@Z 0000000180032304 f   libvcruntime:undname.obj
 0001:0003161c       ?getTemplateNonTypeArgument@UnDecorator@@AEAA?AVDName@@XZ 000000018003261c f   libvcruntime:undname.obj
 0001:00031ac0       ?getTemplateTypeArgument@UnDecorator@@AEAA?AVDName@@XZ 0000000180032ac0 f   libvcruntime:undname.obj
 0001:00031c3c       ?getThrowTypes@UnDecorator@@AEAA?AVDName@@XZ 0000000180032c3c f   libvcruntime:undname.obj
 0001:00031c68       ?getTypeEncoding@UnDecorator@@AEAAHXZ 0000000180032c68 f i libvcruntime:undname.obj
 0001:00032024       ?getUndecoratedName@UnDecorator@@QEAAPEADPEADH@Z 0000000180033024 f i libvcruntime:undname.obj
 0001:00032158       ?getUnionObject@UnDecorator@@AEAA?AVDName@@XZ 0000000180033158 f   libvcruntime:undname.obj
 0001:00032248       ?getVCallThunkType@UnDecorator@@AEAA?AVDName@@XZ 0000000180033248 f i libvcruntime:undname.obj
 0001:000322bc       ?getValue@UnDecorator@@AEAA?AV?$optional@_K@std@@XZ 00000001800332bc f   libvcruntime:undname.obj
 0001:00032300       ?getValueObject@UnDecorator@@AEAA?AVDName@@XZ 0000000180033300 f   libvcruntime:undname.obj
 0001:000324a0       ?getVdispMapType@UnDecorator@@AEAA?AVDName@@AEBV2@@Z 00000001800334a0 f i libvcruntime:undname.obj
 0001:00032538       ?getVfTableType@UnDecorator@@AEAA?AVDName@@AEBV2@@Z 0000000180033538 f i libvcruntime:undname.obj
 0001:00032774       ?getZName@UnDecorator@@AEAA?AVDName@@_N0@Z 0000000180033774 f   libvcruntime:undname.obj
 0001:00032a70       ?length@DNameStatusNode@@UEBAHXZ 0000000180033a70 f i libvcruntime:undname.obj
 0001:00032a70       ?raw_length@DNameStatusNode@@UEBAHXZ 0000000180033a70 f i libvcruntime:undname.obj
 0001:00032a74       ?length@pDNameNode@@UEBAHXZ 0000000180033a74 f i libvcruntime:undname.obj
 0001:00032a9c       ?length@pairNode@@UEBAHXZ  0000000180033a9c f i libvcruntime:undname.obj
 0001:00032af0       ?make@DNameStatusNode@@SAPEBV1@W4DNameStatus@@@Z 0000000180033af0 f i libvcruntime:undname.obj
 0001:00032b10       ?parseDecoratedName@UnDecorator@@AEAA?AVDName@@XZ 0000000180033b10 f   libvcruntime:undname.obj
 0001:00032c44       ?raw_length@pDNameNode@@UEBAHXZ 0000000180033c44 f i libvcruntime:undname.obj
 0001:00032c48       ?raw_length@pairNode@@UEBAHXZ 0000000180033c48 f i libvcruntime:undname.obj
 0001:00032c4c       __unDName                  0000000180033c4c f   libvcruntime:undname.obj
 0001:00032c78       __unDNameEx                0000000180033c78 f   libvcruntime:undname.obj
 0001:00032d54       snprintf                   0000000180033d54 f i libvcruntime:undname.obj
 0001:00032db0       sprintf_s                  0000000180033db0 f i libvcruntime:undname.obj
 0001:00032e40       _NLG_Notify                0000000180033e40 f   libvcruntime:notify.obj
 0001:00032e60       __NLG_Dispatch2            0000000180033e60 f   libvcruntime:notify.obj
 0001:00032e70       __NLG_Return2              0000000180033e70 f   libvcruntime:notify.obj
 0001:00032e74       __except_validate_context_record 0000000180033e74 f   libvcruntime:jbcxrval.obj
 0001:00032eac       __vcrt_freefls             0000000180033eac f   libvcruntime:per_thread_data.obj
 0001:00032ecc       __vcrt_freeptd_for_this_thread 0000000180033ecc f   libvcruntime:per_thread_data.obj
 0001:00032f14       __vcrt_getptd              0000000180033f14 f   libvcruntime:per_thread_data.obj
 0001:00032f30       __vcrt_getptd_noexit       0000000180033f30 f   libvcruntime:per_thread_data.obj
 0001:00032ffc       __vcrt_initialize_ptd      0000000180033ffc f   libvcruntime:per_thread_data.obj
 0001:00033044       __vcrt_uninitialize_ptd    0000000180034044 f   libvcruntime:per_thread_data.obj
 0001:0003306c       __vcrt_initialize_locks    000000018003406c f   libvcruntime:locks.obj
 0001:000330b4       __vcrt_lock                00000001800340b4 f   libvcruntime:locks.obj
 0001:000330d0       __vcrt_uninitialize_locks  00000001800340d0 f   libvcruntime:locks.obj
 0001:00033108       __vcrt_unlock              0000000180034108 f   libvcruntime:locks.obj
 0001:00033124       ??$_CallSETranslator@V__FrameHandler3@@@@YAHPEAUEHExceptionRecord@@PEA_KPEAU_CONTEXT@@PEAU_xDISPATCHER_CONTEXT@@PEBU_s_FuncInfo@@K1H@Z 0000000180034124 f i libvcruntime:risctrnsctrl.obj
 0001:00033178       ??$_CallSETranslator@V__FrameHandler4@@@@YAHPEAUEHExceptionRecord@@PEA_KPEAU_CONTEXT@@PEAU_xDISPATCHER_CONTEXT@@PEAUFuncInfo4@FH4@@K1H@Z 0000000180034178 f i libvcruntime:risctrnsctrl.obj
 0001:000331cc       ?CatchTryBlock@__FrameHandler3@@SAPEBU_s_TryBlockMapEntry@@PEBU_s_FuncInfo@@H@Z 00000001800341cc f   libvcruntime:risctrnsctrl.obj
 0001:00033230       ?DecompFuncInfo@FH4@@YA_JPEAEAEAUFuncInfo4@1@_KH_N@Z 0000000180034230 f i libvcruntime:risctrnsctrl.obj
 0001:0003335c       ?ExecutionInCatch@__FrameHandler3@@SA_NPEAU_xDISPATCHER_CONTEXT@@PEBU_s_FuncInfo@@@Z 000000018003435c f   libvcruntime:risctrnsctrl.obj
 0001:00033388       ?ExecutionInCatch@__FrameHandler4@@SA_NPEAU_xDISPATCHER_CONTEXT@@PEAUFuncInfo4@FH4@@@Z 0000000180034388 f   libvcruntime:risctrnsctrl.obj
 0001:00033390       ?FrameUnwindToEmptyState@__FrameHandler3@@SAXPEA_KPEAU_xDISPATCHER_CONTEXT@@PEBU_s_FuncInfo@@@Z 0000000180034390 f   libvcruntime:risctrnsctrl.obj
 0001:000333f4       ?FrameUnwindToEmptyState@__FrameHandler4@@SAXPEA_KPEAU_xDISPATCHER_CONTEXT@@PEAUFuncInfo4@FH4@@@Z 00000001800343f4 f   libvcruntime:risctrnsctrl.obj
 0001:00033428       ?GetEstablisherFrame@__FrameHandler3@@SAPEA_KPEA_KPEAU_xDISPATCHER_CONTEXT@@PEBU_s_FuncInfo@@0@Z 0000000180034428 f   libvcruntime:risctrnsctrl.obj
 0001:00033510       ?GetEstablisherFrame@__FrameHandler4@@SAPEA_KPEA_KPEAU_xDISPATCHER_CONTEXT@@PEAUFuncInfo4@FH4@@0@Z 0000000180034510 f   libvcruntime:risctrnsctrl.obj
 0001:00033534       ?GetRangeOfTrysToCheck@__FrameHandler3@@SA?AU?$pair@Viterator@TryBlockMap@__FrameHandler3@@V123@@std@@AEAVTryBlockMap@1@HPEAU_xDISPATCHER_CONTEXT@@PEBU_s_FuncInfo@@H@Z 0000000180034534 f   libvcruntime:risctrnsctrl.obj
 0001:0003366c       ?GetRangeOfTrysToCheck@__FrameHandler4@@SA?AU?$pair@Viterator@TryBlockMap4@FH4@@V123@@std@@AEAVTryBlockMap4@FH4@@HPEAU_xDISPATCHER_CONTEXT@@PEAUFuncInfo4@5@H@Z 000000018003466c f   libvcruntime:risctrnsctrl.obj
 0001:000337ec       ?UnwindNestedFrames@__FrameHandler3@@SAXPEA_KPEAUEHExceptionRecord@@PEAU_CONTEXT@@0PEAXPEBU_s_FuncInfo@@HHPEBU_s_HandlerType@@PEAU_xDISPATCHER_CONTEXT@@E@Z 00000001800347ec f   libvcruntime:risctrnsctrl.obj
 0001:000338f0       ?UnwindNestedFrames@__FrameHandler4@@SAXPEA_KPEAUEHExceptionRecord@@PEAU_CONTEXT@@0PEAXPEAUFuncInfo4@FH4@@HHPEAUHandlerType4@5@PEAU_xDISPATCHER_CONTEXT@@E@Z 00000001800348f0 f   libvcruntime:risctrnsctrl.obj
 0001:00033a10       ?setBuffer@TryBlockMap4@FH4@@QEAAXViterator@12@@Z 0000000180034a10 f i libvcruntime:risctrnsctrl.obj
 0001:00033bfc       _CreateFrameInfo           0000000180034bfc f   libvcruntime:risctrnsctrl.obj
 0001:00033c38       _FindAndUnlinkFrame        0000000180034c38 f   libvcruntime:risctrnsctrl.obj
 0001:00033c8c       _GetImageBase              0000000180034c8c f   libvcruntime:risctrnsctrl.obj
 0001:00033ca0       _GetThrowImageBase         0000000180034ca0 f   libvcruntime:risctrnsctrl.obj
 0001:00033cb4       _SetImageBase              0000000180034cb4 f   libvcruntime:risctrnsctrl.obj
 0001:00033ccc       _SetThrowImageBase         0000000180034ccc f   libvcruntime:risctrnsctrl.obj
 0001:00033ce4       __CxxFrameHandler3         0000000180034ce4 f   libvcruntime:risctrnsctrl.obj
 0001:00033d6c       __CxxFrameHandler4         0000000180034d6c f   libvcruntime:risctrnsctrl.obj
 0001:00033f8c       __vcrt_FlsAlloc            0000000180034f8c f   libvcruntime:winapi_downlevel.obj
 0001:00033fd4       __vcrt_FlsFree             0000000180034fd4 f   libvcruntime:winapi_downlevel.obj
 0001:0003401c       __vcrt_FlsGetValue         000000018003501c f   libvcruntime:winapi_downlevel.obj
 0001:00034064       __vcrt_FlsSetValue         0000000180035064 f   libvcruntime:winapi_downlevel.obj
 0001:000340b8       __vcrt_InitializeCriticalSectionEx 00000001800350b8 f   libvcruntime:winapi_downlevel.obj
 0001:0003411c       ?GetCurrentState@__FrameHandler3@@SAHPEA_KPEAU_xDISPATCHER_CONTEXT@@PEBU_s_FuncInfo@@@Z 000000018003511c f   libvcruntime:ehstate.obj
 0001:00034144       ?GetUnwindTryBlock@__FrameHandler3@@SAHPEA_KPEAU_xDISPATCHER_CONTEXT@@PEBU_s_FuncInfo@@@Z 0000000180035144 f   libvcruntime:ehstate.obj
 0001:00034170       ?SetState@__FrameHandler3@@SAXPEA_KPEBU_s_FuncInfo@@H@Z 0000000180035170 f   libvcruntime:ehstate.obj
 0001:0003417c       ?SetUnwindTryBlock@__FrameHandler3@@SAXPEA_KPEAU_xDISPATCHER_CONTEXT@@PEBU_s_FuncInfo@@H@Z 000000018003517c f   libvcruntime:ehstate.obj
 0001:000341b8       ?StateFromControlPc@__FrameHandler3@@SAHPEBU_s_FuncInfo@@PEAU_xDISPATCHER_CONTEXT@@@Z 00000001800351b8 f   libvcruntime:ehstate.obj
 0001:000341c0       ?StateFromControlPc@__FrameHandler4@@SAHPEAUFuncInfo4@FH4@@PEAU_xDISPATCHER_CONTEXT@@@Z 00000001800351c0 f   libvcruntime:ehstate.obj
 0001:000341c8       ?StateFromIp@__FrameHandler3@@SAHPEBU_s_FuncInfo@@PEAU_xDISPATCHER_CONTEXT@@_K@Z 00000001800351c8 f   libvcruntime:ehstate.obj
 0001:00034230       ?StateFromIp@__FrameHandler4@@SAHPEAUFuncInfo4@FH4@@PEAU_xDISPATCHER_CONTEXT@@_K@Z 0000000180035230 f   libvcruntime:ehstate.obj
 0001:000359dc       ??$TypeMatchHelper@V__FrameHandler3@@@@YAHPEBU_s_HandlerType@@PEBU_s_CatchableType@@PEBU_s_ThrowInfo@@@Z 00000001800369dc f i libvcruntime:frame.obj
 0001:00035b0c       ??$TypeMatchHelper@V__FrameHandler4@@@@YAHPEAUHandlerType4@FH4@@PEBU_s_CatchableType@@PEBU_s_ThrowInfo@@@Z 0000000180036b0c f i libvcruntime:frame.obj
 0001:00035c5c       ??$__InternalCxxFrameHandler@V__FrameHandler3@@@@YA?AW4_EXCEPTION_DISPOSITION@@PEAUEHExceptionRecord@@PEA_KPEAU_CONTEXT@@PEAU_xDISPATCHER_CONTEXT@@PEBU_s_FuncInfo@@H1E@Z 0000000180036c5c f i libvcruntime:frame.obj
 0001:00035e90       ??$__InternalCxxFrameHandler@V__FrameHandler4@@@@YA?AW4_EXCEPTION_DISPOSITION@@PEAUEHExceptionRecord@@PEA_KPEAU_CONTEXT@@PEAU_xDISPATCHER_CONTEXT@@PEAUFuncInfo4@FH4@@H1E@Z 0000000180036e90 f i libvcruntime:frame.obj
 0001:00036138       ??$__InternalCxxFrameHandlerWrapper@V__FrameHandler3@@@@YA?AW4_EXCEPTION_DISPOSITION@@PEAUEHExceptionRecord@@PEA_KPEAU_CONTEXT@@PEAU_xDISPATCHER_CONTEXT@@PEBU_s_FuncInfo@@H1E@Z 0000000180037138 f i libvcruntime:frame.obj
 0001:00036140       ??$__InternalCxxFrameHandlerWrapper@V__FrameHandler4@@@@YA?AW4_EXCEPTION_DISPOSITION@@PEAUEHExceptionRecord@@PEA_KPEAU_CONTEXT@@PEAU_xDISPATCHER_CONTEXT@@PEAUFuncInfo4@FH4@@H1E@Z 0000000180037140 f i libvcruntime:frame.obj
 0001:0003618c       ??0HandlerMap4@FH4@@QEAA@PEBUTryBlockMapEntry4@1@_KH@Z 000000018003718c f i libvcruntime:frame.obj
 0001:00036210       ??0TryBlockMap4@FH4@@QEAA@PEBUFuncInfo4@1@_K@Z 0000000180037210 f i libvcruntime:frame.obj
 0001:000362f4       ??0bad_exception@std@@QEAA@AEBV01@@Z 00000001800372f4 f i libvcruntime:frame.obj
 0001:00036330       ??0bad_exception@std@@QEAA@XZ 0000000180037330 f i libvcruntime:frame.obj
 0001:00036354       ??0exception@std@@QEAA@AEBV01@@Z 0000000180037354 f i libvcruntime:frame.obj
 0001:00036388       ??1bad_exception@std@@UEAA@XZ 0000000180037388 f i libvcruntime:frame.obj
 0001:0003639c       ??_Ebad_exception@std@@UEAAPEAXI@Z 000000018003739c f i libvcruntime:frame.obj
 0001:0003639c       ??_Eexception@std@@UEAAPEAXI@Z 000000018003739c f i libvcruntime:frame.obj
 0001:0003639c       ??_Gbad_exception@std@@UEAAPEAXI@Z 000000018003739c f i libvcruntime:frame.obj
 0001:0003639c       ??_Gexception@std@@UEAAPEAXI@Z 000000018003739c f i libvcruntime:frame.obj
 0001:000363e0       ?CxxCallCatchBlock@__FrameHandler3@@SAPEAXPEAU_EXCEPTION_RECORD@@@Z 00000001800373e0 f   libvcruntime:frame.obj
 0001:000365cc       ?CxxCallCatchBlock@__FrameHandler4@@SAPEAXPEAU_EXCEPTION_RECORD@@@Z 00000001800375cc f   libvcruntime:frame.obj
 0001:0003680c       ?DecompHandler@HandlerMap4@FH4@@AEAAXXZ 000000018003780c f i libvcruntime:frame.obj
 0001:00036a5c       ?FrameUnwindToState@__FrameHandler3@@SAXPEA_KPEAU_xDISPATCHER_CONTEXT@@PEBU_s_FuncInfo@@H@Z 0000000180037a5c f   libvcruntime:frame.obj
 0001:00036be8       ?FrameUnwindToState@__FrameHandler4@@SAXPEA_KPEAU_xDISPATCHER_CONTEXT@@PEAUFuncInfo4@FH4@@H@Z 0000000180037be8 f   libvcruntime:frame.obj
 0001:00036ef4       ?GetHandlerSearchState@__FrameHandler3@@SAHPEA_KPEAU_xDISPATCHER_CONTEXT@@PEBU_s_FuncInfo@@@Z 0000000180037ef4 f i libvcruntime:frame.obj
 0001:000370fc       ?ReadEntry@UWMap4@FH4@@AEAAXPEAPEAE@Z 00000001800380fc f i libvcruntime:frame.obj
 0001:0003719c       ?_CallMemberFunction1@@YAXQEAX00@Z 000000018003819c f i libvcruntime:frame.obj
 0001:000371a8       ?_CallMemberFunction2@@YAXQEAX00H@Z 00000001800381a8 f i libvcruntime:frame.obj
 0001:000371b8       ?getStartStop@UWMap4@FH4@@QEAAXHHAEAViterator@12@0@Z 00000001800381b8 f i libvcruntime:frame.obj
 0001:00037288       ?getStateFromIterators@UWMap4@FH4@@SAHAEBViterator@12@H0H0@Z 0000000180038288 f i libvcruntime:frame.obj
 0001:00037338       ?what@exception@std@@UEBAPEBDXZ 0000000180038338 f i libvcruntime:frame.obj
 0001:00037390       _CallSettingFrame          0000000180038390 f   libvcruntime:handlers.obj
 0001:000373d0       _CallSettingFrame_LookupContinuationIndex 00000001800383d0 f   libvcruntime:handlers.obj
 0001:00037400       _CallSettingFrame_NotifyContinuationAddr 0000000180038400 f   libvcruntime:handlers.obj
 0001:00037430       _CallSettingFrameEncoded   0000000180038430 f   libvcruntime:handlers.obj
 0001:00037478       __std_exception_copy       0000000180038478 f   libvcruntime:std_exception.obj
 0001:00037500       __std_exception_destroy    0000000180038500 f   libvcruntime:std_exception.obj
 0001:00037528       _CxxThrowException         0000000180038528 f   libvcruntime:throw.obj
 0001:000375e0       strcmp                     00000001800385e0 f   libucrt:strcmp.obj
 0001:00037648       atan2f                     0000000180038648 f   libucrt:atan2f.obj
 0001:00037a40       cosf                       0000000180038a40 f   libucrt:cosf.obj
 0001:00037f40       sinf                       0000000180038f40 f   libucrt:sinf.obj
 0001:00038638       _fpclass                   0000000180039638 f   libucrt:ieeemisc.obj
 0001:000386c0       free                       00000001800396c0 f   libucrt:free.obj
 0001:000386d4       _initterm                  00000001800396d4 f   libucrt:initterm.obj
 0001:00038718       _initterm_e                0000000180039718 f   libucrt:initterm.obj
 0001:00038760       _seh_filter_dll            0000000180039760 f   libucrt:exception_filter.obj
 0001:00038774       _seh_filter_exe            0000000180039774 f   libucrt:exception_filter.obj
 0001:00038b8c       __acrt_initialize_thread_local_exit_callback 0000000180039b8c f   libucrt:exit.obj
 0001:00038b94       _cexit                     0000000180039b94 f   libucrt:exit.obj
 0001:00038ba4       _exit                      0000000180039ba4 f   libucrt:exit.obj
 0001:00038bb0       _is_c_termination_complete 0000000180039bb0 f   libucrt:exit.obj
 0001:00038d80       __acrt_allocate_buffer_for_argv 0000000180039d80 f   libucrt:argv_parsing.obj
 0001:00038de0       _configure_narrow_argv     0000000180039de0 f   libucrt:argv_parsing.obj
 0001:00039168       __dcrt_uninitialize_environments_nolock 000000018003a168 f   libucrt:environment_initialization.obj
 0001:000391ac       _initialize_narrow_environment 000000018003a1ac f   libucrt:environment_initialization.obj
 0001:00039310       _execute_onexit_table      000000018003a310 f   libucrt:onexit.obj
 0001:00039354       _initialize_onexit_table   000000018003a354 f   libucrt:onexit.obj
 0001:000393b4       __acrt_uninitialize_command_line 000000018003a3b4 f   libucrt:argv_data.obj
 0001:000394ac       __acrt_initialize          000000018003a4ac f   libucrt:initialization.obj
 0001:000394c0       __acrt_thread_attach       000000018003a4c0 f   libucrt:initialization.obj
 0001:000394d4       __acrt_thread_detach       000000018003a4d4 f   libucrt:initialization.obj
 0001:000394e4       __acrt_uninitialize        000000018003a4e4 f   libucrt:initialization.obj
 0001:0003951c       __acrt_uninitialize_critical 000000018003a51c f   libucrt:initialization.obj
 0001:0003952c       terminate                  000000018003a52c f   libucrt:terminate.obj
 0001:00039558       abort                      000000018003a558 f   libucrt:abort.obj
 0001:000395b0       malloc                     000000018003a5b0 f   libucrt:malloc.obj
 0001:000395b8       strcpy_s                   000000018003a5b8 f   libucrt:strcpy_s.obj
 0001:000397c8       ??$ensure_buffer_is_big_enough@D@formatting_buffer@__crt_stdio_output@@QEAA_N_KAEAV__crt_cached_ptd_host@@@Z 000000018003a7c8 f i libucrt:output.obj
 0001:00039870       ??$parse_integer@KV?$c_string_character_source@D@__crt_strtox@@$0A@@__crt_strtox@@YAKAEAV__crt_cached_ptd_host@@V?$c_string_character_source@D@0@H_N@Z 000000018003a870 f i libucrt:output.obj
 0001:00039b24       ??$type_case_integer@$07@?$output_processor@DV?$string_output_adapter@D@__crt_stdio_output@@V?$format_validation_base@DV?$string_output_adapter@D@__crt_stdio_output@@@2@@__crt_stdio_output@@AEAA_N_N@Z 000000018003ab24 f i libucrt:output.obj
 0001:00039b24       ??$type_case_integer@$07@?$output_processor@DV?$string_output_adapter@D@__crt_stdio_output@@V?$standard_base@DV?$string_output_adapter@D@__crt_stdio_output@@@2@@__crt_stdio_output@@AEAA_N_N@Z 000000018003ab24 f i libucrt:output.obj
 0001:00039d28       ??$type_case_integer@$09@?$output_processor@DV?$string_output_adapter@D@__crt_stdio_output@@V?$format_validation_base@DV?$string_output_adapter@D@__crt_stdio_output@@@2@@__crt_stdio_output@@AEAA_N_N@Z 000000018003ad28 f i libucrt:output.obj
 0001:00039d28       ??$type_case_integer@$09@?$output_processor@DV?$string_output_adapter@D@__crt_stdio_output@@V?$standard_base@DV?$string_output_adapter@D@__crt_stdio_output@@@2@@__crt_stdio_output@@AEAA_N_N@Z 000000018003ad28 f i libucrt:output.obj
 0001:00039f2c       ??$type_case_integer@$0BA@@?$output_processor@DV?$string_output_adapter@D@__crt_stdio_output@@V?$format_validation_base@DV?$string_output_adapter@D@__crt_stdio_output@@@2@@__crt_stdio_output@@AEAA_N_N@Z 000000018003af2c f i libucrt:output.obj
 0001:00039f2c       ??$type_case_integer@$0BA@@?$output_processor@DV?$string_output_adapter@D@__crt_stdio_output@@V?$standard_base@DV?$string_output_adapter@D@__crt_stdio_output@@@2@@__crt_stdio_output@@AEAA_N_N@Z 000000018003af2c f i libucrt:output.obj
 0001:0003a130       ??$type_case_integer_parse_into_buffer@I$07@?$output_processor@DV?$string_output_adapter@D@__crt_stdio_output@@V?$format_validation_base@DV?$string_output_adapter@D@__crt_stdio_output@@@2@@__crt_stdio_output@@AEAAXI_N@Z 000000018003b130 f i libucrt:output.obj
 0001:0003a130       ??$type_case_integer_parse_into_buffer@I$07@?$output_processor@DV?$string_output_adapter@D@__crt_stdio_output@@V?$standard_base@DV?$string_output_adapter@D@__crt_stdio_output@@@2@@__crt_stdio_output@@AEAAXI_N@Z 000000018003b130 f i libucrt:output.obj
 0001:0003a1a0       ??$type_case_integer_parse_into_buffer@I$09@?$output_processor@DV?$string_output_adapter@D@__crt_stdio_output@@V?$format_validation_base@DV?$string_output_adapter@D@__crt_stdio_output@@@2@@__crt_stdio_output@@AEAAXI_N@Z 000000018003b1a0 f i libucrt:output.obj
 0001:0003a1a0       ??$type_case_integer_parse_into_buffer@I$09@?$output_processor@DV?$string_output_adapter@D@__crt_stdio_output@@V?$standard_base@DV?$string_output_adapter@D@__crt_stdio_output@@@2@@__crt_stdio_output@@AEAAXI_N@Z 000000018003b1a0 f i libucrt:output.obj
 0001:0003a24c       ??$type_case_integer_parse_into_buffer@I$0BA@@?$output_processor@DV?$string_output_adapter@D@__crt_stdio_output@@V?$format_validation_base@DV?$string_output_adapter@D@__crt_stdio_output@@@2@@__crt_stdio_output@@AEAAXI_N@Z 000000018003b24c f i libucrt:output.obj
 0001:0003a24c       ??$type_case_integer_parse_into_buffer@I$0BA@@?$output_processor@DV?$string_output_adapter@D@__crt_stdio_output@@V?$standard_base@DV?$string_output_adapter@D@__crt_stdio_output@@@2@@__crt_stdio_output@@AEAAXI_N@Z 000000018003b24c f i libucrt:output.obj
 0001:0003a2d0       ??$type_case_integer_parse_into_buffer@_K$07@?$output_processor@DV?$string_output_adapter@D@__crt_stdio_output@@V?$format_validation_base@DV?$string_output_adapter@D@__crt_stdio_output@@@2@@__crt_stdio_output@@AEAAX_K_N@Z 000000018003b2d0 f i libucrt:output.obj
 0001:0003a2d0       ??$type_case_integer_parse_into_buffer@_K$07@?$output_processor@DV?$string_output_adapter@D@__crt_stdio_output@@V?$standard_base@DV?$string_output_adapter@D@__crt_stdio_output@@@2@@__crt_stdio_output@@AEAAX_K_N@Z 000000018003b2d0 f i libucrt:output.obj
 0001:0003a340       ??$type_case_integer_parse_into_buffer@_K$09@?$output_processor@DV?$string_output_adapter@D@__crt_stdio_output@@V?$format_validation_base@DV?$string_output_adapter@D@__crt_stdio_output@@@2@@__crt_stdio_output@@AEAAX_K_N@Z 000000018003b340 f i libucrt:output.obj
 0001:0003a340       ??$type_case_integer_parse_into_buffer@_K$09@?$output_processor@DV?$string_output_adapter@D@__crt_stdio_output@@V?$standard_base@DV?$string_output_adapter@D@__crt_stdio_output@@@2@@__crt_stdio_output@@AEAAX_K_N@Z 000000018003b340 f i libucrt:output.obj
 0001:0003a3f0       ??$type_case_integer_parse_into_buffer@_K$0BA@@?$output_processor@DV?$string_output_adapter@D@__crt_stdio_output@@V?$format_validation_base@DV?$string_output_adapter@D@__crt_stdio_output@@@2@@__crt_stdio_output@@AEAAX_K_N@Z 000000018003b3f0 f i libucrt:output.obj
 0001:0003a3f0       ??$type_case_integer_parse_into_buffer@_K$0BA@@?$output_processor@DV?$string_output_adapter@D@__crt_stdio_output@@V?$standard_base@DV?$string_output_adapter@D@__crt_stdio_output@@@2@@__crt_stdio_output@@AEAAX_K_N@Z 000000018003b3f0 f i libucrt:output.obj
 0001:0003a474       ?crop_zeroes@__crt_stdio_output@@YAXPEADQEAU__crt_locale_pointers@@@Z 000000018003b474 f i libucrt:output.obj
 0001:0003a4e0       ?get_raw_ptd@__crt_cached_ptd_host@@QEAAPEAU__acrt_ptd@@XZ 000000018003b4e0 f i libucrt:output.obj
 0001:0003a548       ?parse_int_from_format_string@?$output_processor@DV?$string_output_adapter@D@__crt_stdio_output@@V?$format_validation_base@DV?$string_output_adapter@D@__crt_stdio_output@@@2@@__crt_stdio_output@@AEAA_NQEAH@Z 000000018003b548 f i libucrt:output.obj
 0001:0003a548       ?parse_int_from_format_string@?$output_processor@DV?$string_output_adapter@D@__crt_stdio_output@@V?$standard_base@DV?$string_output_adapter@D@__crt_stdio_output@@@2@@__crt_stdio_output@@AEAA_NQEAH@Z 000000018003b548 f i libucrt:output.obj
 0001:0003a5d8       ?process@?$output_processor@DV?$string_output_adapter@D@__crt_stdio_output@@V?$format_validation_base@DV?$string_output_adapter@D@__crt_stdio_output@@@2@@__crt_stdio_output@@QEAAHXZ 000000018003b5d8 f i libucrt:output.obj
 0001:0003a95c       ?process@?$output_processor@DV?$string_output_adapter@D@__crt_stdio_output@@V?$standard_base@DV?$string_output_adapter@D@__crt_stdio_output@@@2@@__crt_stdio_output@@QEAAHXZ 000000018003b95c f i libucrt:output.obj
 0001:0003acdc       ?state_case_size@?$output_processor@DV?$string_output_adapter@D@__crt_stdio_output@@V?$format_validation_base@DV?$string_output_adapter@D@__crt_stdio_output@@@2@@__crt_stdio_output@@AEAA_NXZ 000000018003bcdc f i libucrt:output.obj
 0001:0003acdc       ?state_case_size@?$output_processor@DV?$string_output_adapter@D@__crt_stdio_output@@V?$standard_base@DV?$string_output_adapter@D@__crt_stdio_output@@@2@@__crt_stdio_output@@AEAA_NXZ 000000018003bcdc f i libucrt:output.obj
 0001:0003ae64       ?state_case_type@?$output_processor@DV?$string_output_adapter@D@__crt_stdio_output@@V?$format_validation_base@DV?$string_output_adapter@D@__crt_stdio_output@@@2@@__crt_stdio_output@@AEAA_NXZ 000000018003be64 f i libucrt:output.obj
 0001:0003ae64       ?state_case_type@?$output_processor@DV?$string_output_adapter@D@__crt_stdio_output@@V?$standard_base@DV?$string_output_adapter@D@__crt_stdio_output@@@2@@__crt_stdio_output@@AEAA_NXZ 000000018003be64 f i libucrt:output.obj
 0001:0003b268       ?type_case_Z@?$output_processor@DV?$string_output_adapter@D@__crt_stdio_output@@V?$format_validation_base@DV?$string_output_adapter@D@__crt_stdio_output@@@2@@__crt_stdio_output@@AEAA_NXZ 000000018003c268 f i libucrt:output.obj
 0001:0003b268       ?type_case_Z@?$output_processor@DV?$string_output_adapter@D@__crt_stdio_output@@V?$standard_base@DV?$string_output_adapter@D@__crt_stdio_output@@@2@@__crt_stdio_output@@AEAA_NXZ 000000018003c268 f i libucrt:output.obj
 0001:0003b2e4       ?type_case_a@?$output_processor@DV?$string_output_adapter@D@__crt_stdio_output@@V?$format_validation_base@DV?$string_output_adapter@D@__crt_stdio_output@@@2@@__crt_stdio_output@@AEAA_NXZ 000000018003c2e4 f i libucrt:output.obj
 0001:0003b2e4       ?type_case_a@?$output_processor@DV?$string_output_adapter@D@__crt_stdio_output@@V?$standard_base@DV?$string_output_adapter@D@__crt_stdio_output@@@2@@__crt_stdio_output@@AEAA_NXZ 000000018003c2e4 f i libucrt:output.obj
 0001:0003b538       ?type_case_c_tchar@?$output_processor@DV?$string_output_adapter@D@__crt_stdio_output@@V?$format_validation_base@DV?$string_output_adapter@D@__crt_stdio_output@@@2@@__crt_stdio_output@@AEAA_ND@Z 000000018003c538 f i libucrt:output.obj
 0001:0003b538       ?type_case_c_tchar@?$output_processor@DV?$string_output_adapter@D@__crt_stdio_output@@V?$standard_base@DV?$string_output_adapter@D@__crt_stdio_output@@@2@@__crt_stdio_output@@AEAA_ND@Z 000000018003c538 f i libucrt:output.obj
 0001:0003b60c       ?type_case_n@?$output_processor@DV?$string_output_adapter@D@__crt_stdio_output@@V?$format_validation_base@DV?$string_output_adapter@D@__crt_stdio_output@@@2@@__crt_stdio_output@@AEAA_NXZ 000000018003c60c f i libucrt:output.obj
 0001:0003b60c       ?type_case_n@?$output_processor@DV?$string_output_adapter@D@__crt_stdio_output@@V?$standard_base@DV?$string_output_adapter@D@__crt_stdio_output@@@2@@__crt_stdio_output@@AEAA_NXZ 000000018003c60c f i libucrt:output.obj
 0001:0003b6c4       ?type_case_s@?$output_processor@DV?$string_output_adapter@D@__crt_stdio_output@@V?$format_validation_base@DV?$string_output_adapter@D@__crt_stdio_output@@@2@@__crt_stdio_output@@AEAA_NXZ 000000018003c6c4 f i libucrt:output.obj
 0001:0003b6c4       ?type_case_s@?$output_processor@DV?$string_output_adapter@D@__crt_stdio_output@@V?$standard_base@DV?$string_output_adapter@D@__crt_stdio_output@@@2@@__crt_stdio_output@@AEAA_NXZ 000000018003c6c4 f i libucrt:output.obj
 0001:0003b760       ?update_locale_slow@__crt_cached_ptd_host@@AEAAXXZ 000000018003c760 f i libucrt:output.obj
 0001:0003b7d8       ?write_string@?$string_output_adapter@D@__crt_stdio_output@@QEBAXQEBDHQEAHAEAV__crt_cached_ptd_host@@@Z 000000018003c7d8 f i libucrt:output.obj
 0001:0003b87c       __stdio_common_vsprintf    000000018003c87c f   libucrt:output.obj
 0001:0003bad0       __stdio_common_vsprintf_s  000000018003cad0 f   libucrt:output.obj
 0001:0003bbe4       ??$parse_integer@KV?$c_string_character_source@D@__crt_strtox@@$00@__crt_strtox@@YAKAEAV__crt_cached_ptd_host@@V?$c_string_character_source@D@0@H_N@Z 000000018003cbe4 f i libucrt:atox.obj
 0001:0003bed4       _ischartype_l              000000018003ced4 f i libucrt:atox.obj
 0001:0003bf4c       atol                       000000018003cf4c f   libucrt:atox.obj
 0001:0003c010       strncmp                    000000018003d010 f   libucrt:strncmp.obj
 0001:0003c090       calloc                     000000018003d090 f   libucrt:calloc.obj
 0001:0003c098       wcsncmp                    000000018003d098 f   libucrt:wcsncmp.obj
 0001:0003c0c4       _clrfp                     000000018003d0c4 f   libucrt:fpctrl.obj
 0001:0003c0e4       _ctrlfp                    000000018003d0e4 f   libucrt:fpctrl.obj
 0001:0003c160       _set_statfp                000000018003d160 f   libucrt:fpctrl.obj
 0001:0003c180       _statfp                    000000018003d180 f   libucrt:fpctrl.obj
 0001:0003c2b8       _handle_error              000000018003d2b8 f   libucrt:libm_error.obj
 0001:0003c3e0       _handle_errorf             000000018003d3e0 f   libucrt:libm_error.obj
 0001:0003c514       _handle_nan                000000018003d514 f   libucrt:libm_error.obj
 0001:0003c530       _handle_nanf               000000018003d530 f   libucrt:libm_error.obj
 0001:0003c540       __remainder_piby2d2f_forAsm 000000018003d540 f   libucrt:remainder_piby2f_forasm.obj
 0001:0003c690       __remainder_piby2_fma3     000000018003d690 f   libucrt:remainder_piby2_forfma3.obj
 0001:0003c880       __remainder_piby2_fma3_bdl 000000018003d880 f   libucrt:remainder_piby2_forfma3.obj
 0001:0003c8f8       _cosf_special              000000018003d8f8 f   libucrt:sincos_special.obj
 0001:0003c998       _sinf_special              000000018003d998 f   libucrt:sincos_special.obj
 0001:0003c9b0       __acrt_initialize_fma3     000000018003d9b0 f   libucrt:fma3_available.obj
 0001:0003ca20       __remainder_piby2d2f_forC  000000018003da20 f   libucrt:remainder_piby2f_forc.obj
 0001:0003cbac       _free_base                 000000018003dbac f   libucrt:free_base.obj
 0001:0003cf60       __acrt_freeptd             000000018003df60 f   libucrt:per_thread_data.obj
 0001:0003cfa4       __acrt_getptd              000000018003dfa4 f   libucrt:per_thread_data.obj
 0001:0003d078       __acrt_getptd_head         000000018003e078 f   libucrt:per_thread_data.obj
 0001:0003d11c       __acrt_getptd_noexit       000000018003e11c f   libucrt:per_thread_data.obj
 0001:0003d1e4       __acrt_getptd_noexit_explicit 000000018003e1e4 f   libucrt:per_thread_data.obj
 0001:0003d2a4       __acrt_initialize_ptd      000000018003e2a4 f   libucrt:per_thread_data.obj
 0001:0003d2e0       __acrt_uninitialize_ptd    000000018003e2e0 f   libucrt:per_thread_data.obj
 0001:0003d304       __acrt_initialize_locks    000000018003e304 f   libucrt:locks.obj
 0001:0003d34c       __acrt_lock                000000018003e34c f   libucrt:locks.obj
 0001:0003d368       __acrt_uninitialize_locks  000000018003e368 f   libucrt:locks.obj
 0001:0003d3a0       __acrt_unlock              000000018003e3a0 f   libucrt:locks.obj
 0001:0003d3bc       __acrt_app_verifier_enabled 000000018003e3bc f   libucrt:peb_access.obj
 0001:0003d3d8       __acrt_is_secure_process   000000018003e3d8 f   libucrt:peb_access.obj
 0001:0003d3f0       __acrt_get_process_end_policy 000000018003e3f0 f   libucrt:win_policies.obj
 0001:0003d420       ?get_raw_ptd_noexit@__crt_cached_ptd_host@@QEAAPEAU__acrt_ptd@@XZ 000000018003e420 f i libucrt:invalid_parameter.obj
 0001:0003d48c       ?value@?$dual_state_global@P6AXPEB_W00I_K@Z@__crt_state_management@@QEAAAEAP6AXPEB_W00I_K@ZAEAV__crt_cached_ptd_host@@@Z 000000018003e48c f i libucrt:invalid_parameter.obj
 0001:0003d4d8       __acrt_call_reportfault    000000018003e4d8 f   libucrt:invalid_parameter.obj
 0001:0003d634       __acrt_initialize_invalid_parameter_handler 000000018003e634 f   libucrt:invalid_parameter.obj
 0001:0003d63c       _invalid_parameter         000000018003e63c f   libucrt:invalid_parameter.obj
 0001:0003d6d8       _invalid_parameter_internal 000000018003e6d8 f   libucrt:invalid_parameter.obj
 0001:0003d7a4       _invalid_parameter_noinfo  000000018003e7a4 f   libucrt:invalid_parameter.obj
 0001:0003d7c4       _invoke_watson             000000018003e7c4 f   libucrt:invalid_parameter.obj
 0001:0003d80c       __acrt_errno_from_os_error 000000018003e80c f   libucrt:errno.obj
 0001:0003d854       __acrt_errno_map_os_error  000000018003e854 f   libucrt:errno.obj
 0001:0003d89c       __acrt_errno_map_os_error_ptd 000000018003e89c f   libucrt:errno.obj
 0001:0003d8c0       __doserrno                 000000018003e8c0 f   libucrt:errno.obj
 0001:0003d8e0       _errno                     000000018003e8e0 f   libucrt:errno.obj
 0001:0003d900       _calloc_base               000000018003e900 f   libucrt:calloc_base.obj
 0001:0003d98c       ??$__acrt_convert_wcs_mbs_cp@D_WV<lambda_7c9dea7b4ca7285d2cdb541a38da6275>@@U__crt_win32_buffer_internal_dynamic_resizing@@@@YAHQEBDAEAV?$__crt_win32_buffer@_WU__crt_win32_buffer_internal_dynamic_resizing@@@@AEBV<lambda_7c9dea7b4ca7285d2cdb541a38da6275>@@I@Z 000000018003e98c f i libucrt:argv_wildcards.obj
 0001:0003db08       ??$__acrt_convert_wcs_mbs_cp@_WDV<lambda_d8593a27d1aa8c02be35c86a17d324c4>@@U__crt_win32_buffer_internal_dynamic_resizing@@@@YAHQEB_WAEAV?$__crt_win32_buffer@DU__crt_win32_buffer_internal_dynamic_resizing@@@@AEBV<lambda_d8593a27d1aa8c02be35c86a17d324c4>@@I@Z 000000018003eb08 f i libucrt:argv_wildcards.obj
 0001:0003e3ac       ??0_LocaleUpdate@@QEAA@QEAU__crt_locale_pointers@@@Z 000000018003f3ac f i libucrt:argv_wildcards.obj
 0001:0003e448       __acrt_expand_narrow_argv_wildcards 000000018003f448 f   libucrt:argv_wildcards.obj
 0001:0003e450       ??$__acrt_convert_wcs_mbs_cp@_WDV<lambda_f788ae46380686e8b737efdd8c720d07>@@U__crt_win32_buffer_no_resizing@@@@YAHQEB_WAEAV?$__crt_win32_buffer@DU__crt_win32_buffer_no_resizing@@@@AEBV<lambda_f788ae46380686e8b737efdd8c720d07>@@I@Z 000000018003f450 f i libucrt:getmodulefilenamea.obj
 0001:0003e56c       __acrt_GetModuleFileNameA  000000018003f56c f   libucrt:getmodulefilenamea.obj
 0001:0003ee88       __acrt_initialize_multibyte 000000018003fe88 f   libucrt:mbctype.obj
 0001:0003eee8       __acrt_update_thread_multibyte_data 000000018003fee8 f   libucrt:mbctype.obj
 0001:0003ef04       _setmbcp_nolock            000000018003ff04 f   libucrt:mbctype.obj
 0001:0003f238       _ismbblead                 0000000180040238 f   libucrt:ismbbyte.obj
 0001:0003f24c       __acrt_initialize_command_line 000000018004024c f   libucrt:argv_data.obj
 0001:0003f274       __acrt_MultiByteToWideChar 0000000180040274 f   libucrt:multibytetowidechar.obj
 0001:0003f304       __acrt_WideCharToMultiByte 0000000180040304 f   libucrt:widechartomultibyte.obj
 0001:0003f3e4       __dcrt_get_narrow_environment_from_os 00000001800403e4 f   libucrt:get_environment_from_os.obj
 0001:0003f4f4       _recalloc_base             00000001800404f4 f   libucrt:recalloc.obj
 0001:0003f748       __acrt_AppPolicyGetProcessTerminationMethodInternal 0000000180040748 f   libucrt:winapi_thunks.obj
 0001:0003f7a0       __acrt_AreFileApisANSI     00000001800407a0 f   libucrt:winapi_thunks.obj
 0001:0003f7e4       __acrt_FlsAlloc            00000001800407e4 f   libucrt:winapi_thunks.obj
 0001:0003f7ec       __acrt_FlsFree             00000001800407ec f   libucrt:winapi_thunks.obj
 0001:0003f7f4       __acrt_FlsGetValue         00000001800407f4 f   libucrt:winapi_thunks.obj
 0001:0003f7fc       __acrt_FlsSetValue         00000001800407fc f   libucrt:winapi_thunks.obj
 0001:0003f804       __acrt_InitializeCriticalSectionEx 0000000180040804 f   libucrt:winapi_thunks.obj
 0001:0003f874       __acrt_LCMapStringEx       0000000180040874 f   libucrt:winapi_thunks.obj
 0001:0003f960       __acrt_LocaleNameToLCID    0000000180040960 f   libucrt:winapi_thunks.obj
 0001:0003f9c0       __acrt_initialize_winapi_thunks 00000001800409c0 f   libucrt:winapi_thunks.obj
 0001:0003f9e4       __acrt_uninitialize_winapi_thunks 00000001800409e4 f   libucrt:winapi_thunks.obj
 0001:0003fa28       __acrt_initialize_heap     0000000180040a28 f   libucrt:heap_handle.obj
 0001:0003fa44       __acrt_uninitialize_heap   0000000180040a44 f   libucrt:heap_handle.obj
 0001:0003fc48       __acrt_initialize_lowio    0000000180040c48 f   libucrt:ioinit.obj
 0001:0003fc84       __acrt_uninitialize_lowio  0000000180040c84 f   libucrt:ioinit.obj
 0001:0003fcc4       __acrt_execute_initializers 0000000180040cc4 f   libucrt:shared_initialization.obj
 0001:0003fd58       __acrt_execute_uninitializers 0000000180040d58 f   libucrt:shared_initialization.obj
 0001:0003fda0       __acrt_initialize_new_handler 0000000180040da0 f   libucrt:new_handler.obj
 0001:0003fda8       _callnewh                  0000000180040da8 f   libucrt:new_handler.obj
 0001:0003fde8       _query_new_handler         0000000180040de8 f   libucrt:new_handler.obj
 0001:0003fe68       __acrt_get_sigabrt_handler 0000000180040e68 f   libucrt:signal.obj
 0001:0003fe98       __acrt_initialize_signal_handlers 0000000180040e98 f   libucrt:signal.obj
 0001:0003feb8       raise                      0000000180040eb8 f   libucrt:signal.obj
 0001:00040134       __acrt_has_user_matherr    0000000180041134 f   libucrt:matherr.obj
 0001:00040154       __acrt_initialize_user_matherr 0000000180041154 f   libucrt:matherr.obj
 0001:0004015c       __acrt_invoke_user_matherr 000000018004115c f   libucrt:matherr.obj
 0001:00040378       __acrt_stdio_flush_nolock  0000000180041378 f   libucrt:fflush.obj
 0001:00040404       _fflush_nolock             0000000180041404 f   libucrt:fflush.obj
 0001:000404d8       _flushall                  00000001800414d8 f   libucrt:fflush.obj
 0001:000404e0       __acrt_initialize_stdio    00000001800414e0 f   libucrt:_file.obj
 0001:00040600       __acrt_uninitialize_stdio  0000000180041600 f   libucrt:_file.obj
 0001:0004065c       _lock_file                 000000018004165c f   libucrt:_file.obj
 0001:00040668       _unlock_file               0000000180041668 f   libucrt:_file.obj
 0001:00040674       _malloc_base               0000000180041674 f   libucrt:malloc_base.obj
 0001:000406d4       strnlen                    00000001800416d4 f   libucrt:strnlen.obj
 0001:00040824       wcsnlen                    0000000180041824 f   libucrt:strnlen.obj
 0001:000409fc       __acrt_update_locale_info  00000001800419fc f   libucrt:locale_update.obj
 0001:00040a30       __acrt_update_locale_info_explicit 0000000180041a30 f   libucrt:locale_update.obj
 0001:00040a68       __acrt_update_multibyte_info 0000000180041a68 f   libucrt:locale_update.obj
 0001:00040a9c       __acrt_update_multibyte_info_explicit 0000000180041a9c f   libucrt:locale_update.obj
 0001:000415e8       __acrt_fp_format           00000001800425e8 f   libucrt:cvt.obj
 0001:000418d0       _wctomb_internal           00000001800428d0 f   libucrt:wctomb.obj
 0001:00041a80       _mbtowc_internal           0000000180042a80 f   libucrt:mbtowc.obj
 0001:00041bf8       _fileno                    0000000180042bf8 f   libucrt:fileno.obj
 0001:00041c20       _get_printf_count_output   0000000180042c20 f   libucrt:printf_count_output.obj
 0001:00041ca8       __acrt_set_locale_changed  0000000180042ca8 f   libucrt:wsetlocale.obj
 0001:00041cb4       __acrt_uninitialize_locale 0000000180042cb4 f   libucrt:wsetlocale.obj
 0001:00041ce4       __pctype_func              0000000180042ce4 f   libucrt:ctype.obj
 0001:00041d14       _isctype_l                 0000000180042d14 f   libucrt:isctype.obj
 0001:00041e30       _get_fpsr                  0000000180042e30 f   libucrt:fpsr.obj
 0001:00041e40       _set_fpsr                  0000000180042e40 f   libucrt:fpsr.obj
 0001:00041e4a       _fclrf                     0000000180042e4a f   libucrt:fpsr.obj
 0001:00041e5e       _frnd                      0000000180042e5e f   libucrt:fpsr.obj
 0001:00041e80       _raise_exc                 0000000180042e80 f   libucrt:fpexcept.obj
 0001:00041ea8       _raise_exc_ex              0000000180042ea8 f   libucrt:fpexcept.obj
 0001:000421b0       _raise_excf                00000001800431b0 f   libucrt:fpexcept.obj
 0001:000421dc       _set_errno_from_matherr    00000001800431dc f   libucrt:fpexcept.obj
 0001:0004220c       __acrt_add_locale_ref      000000018004320c f   libucrt:locale_refcounting.obj
 0001:00042298       __acrt_free_locale         0000000180043298 f   libucrt:locale_refcounting.obj
 0001:00042410       __acrt_locale_add_lc_time_reference 0000000180043410 f   libucrt:locale_refcounting.obj
 0001:00042438       __acrt_locale_free_lc_time_if_unreferenced 0000000180043438 f   libucrt:locale_refcounting.obj
 0001:00042470       __acrt_locale_release_lc_time_reference 0000000180043470 f   libucrt:locale_refcounting.obj
 0001:00042498       __acrt_release_locale_ref  0000000180043498 f   libucrt:locale_refcounting.obj
 0001:00042540       __acrt_update_thread_locale_data 0000000180043540 f   libucrt:locale_refcounting.obj
 0001:000425b0       _updatetlocinfoEx_nolock   00000001800435b0 f   libucrt:locale_refcounting.obj
 0001:00042618       _query_new_mode            0000000180043618 f   libucrt:new_mode.obj
 0001:00042620       qsort                      0000000180043620 f   libucrt:qsort.obj
 0001:00042a30       strncpy_s                  0000000180043a30 f   libucrt:strncpy_s.obj
 0001:00042bc0       strpbrk                    0000000180043bc0 f   libucrt:strpbrk.obj
 0001:00042f88       _mbsdec                    0000000180043f88 f   libucrt:mbsdec.obj
 0001:00042f90       _mbsdec_l                  0000000180043f90 f   libucrt:mbsdec.obj
 0001:00043024       __acrt_GetStringTypeA      0000000180044024 f   libucrt:getstringtypea.obj
 0001:000434e8       __acrt_LCMapStringA        00000001800444e8 f   libucrt:lcmapstringa.obj
 0001:00043598       _msize_base                0000000180044598 f   libucrt:msize.obj
 0001:000435d4       _realloc_base              00000001800445d4 f   libucrt:realloc_base.obj
 0001:00043650       __acrt_DownlevelLocaleNameToLCID 0000000180044650 f   libucrt:lcidtoname_downlevel.obj
 0001:000436f4       __acrt_lowio_create_handle_array 00000001800446f4 f   libucrt:osfinfo.obj
 0001:0004379c       __acrt_lowio_destroy_handle_array 000000018004479c f   libucrt:osfinfo.obj
 0001:000437ec       __acrt_lowio_ensure_fh_exists 00000001800447ec f   libucrt:osfinfo.obj
 0001:00043894       __acrt_lowio_lock_fh       0000000180044894 f   libucrt:osfinfo.obj
 0001:000438bc       __acrt_lowio_unlock_fh     00000001800448bc f   libucrt:osfinfo.obj
 0001:000438e4       _free_osfhnd               00000001800448e4 f   libucrt:osfinfo.obj
 0001:000439a0       _get_osfhandle             00000001800449a0 f   libucrt:osfinfo.obj
 0001:00043aa4       _commit                    0000000180044aa4 f   libucrt:commit.obj
 0001:00044340       _write_internal            0000000180045340 f   libucrt:write.obj
 0001:00044460       _write_nolock              0000000180045460 f   libucrt:write.obj
 0001:00044768       _fcloseall                 0000000180045768 f   libucrt:closeall.obj
 0001:0004481c       __acrt_stdio_free_buffer_nolock 000000018004581c f   libucrt:_freebuf.obj
 0001:00044860       _isatty                    0000000180045860 f   libucrt:isatty.obj
 0001:00044990       __acrt_fp_strflt_to_string 0000000180045990 f   libucrt:_fptostr.obj
 0001:00044aa0       ?divide@__crt_strtox@@YA_KAEAUbig_integer@1@AEBU21@@Z 0000000180045aa0 f i libucrt:cfout.obj
 0001:00044f3c       __acrt_fltout              0000000180045f3c f   libucrt:cfout.obj
 0001:00046254       fegetround                 0000000180047254 f   libucrt:fegetround.obj
 0001:00046268       ?__c32rtomb_utf8@__crt_mbstring@@YA_KPEAD_UPEAU_Mbstatet@@AEAV__crt_cached_ptd_host@@@Z 0000000180047268 f   libucrt:c32rtomb.obj
 0001:0004630c       ?__mbrtowc_utf8@__crt_mbstring@@YA_KPEA_WPEBD_KPEAU_Mbstatet@@AEAV__crt_cached_ptd_host@@@Z 000000018004730c f   libucrt:mbrtowc.obj
 0001:00046350       ?__mbsrtowcs_utf8@__crt_mbstring@@YA_KPEA_WPEAPEBD_KPEAU_Mbstatet@@AEAV__crt_cached_ptd_host@@@Z 0000000180047350 f   libucrt:mbrtowc.obj
 0001:000464f4       __acrt_locale_free_monetary 00000001800474f4 f   libucrt:initmon.obj
 0001:00046600       __acrt_locale_free_numeric 0000000180047600 f   libucrt:initnum.obj
 0001:000466a0       __acrt_locale_free_time    00000001800476a0 f   libucrt:inittime.obj
 0001:000467a8       __strncnt                  00000001800477a8 f   libucrt:strncnt.obj
 0001:000467c0       __ascii_wcsnicmp           00000001800477c0 f   libucrt:wcsnicmp.obj
 0001:0004680c       _query_app_type            000000018004780c f   libucrt:report_runtime_error.obj
 0001:000468c0       _lseeki64_nolock_internal  00000001800478c0 f   libucrt:lseek.obj
 0001:000468c8       _putwch_nolock             00000001800478c8 f   libucrt:putwch.obj
 0001:00046a28       fclose                     0000000180047a28 f   libucrt:fclose.obj
 0001:00046ac0       _controlfp_s               0000000180047ac0 f   libucrt:contrlfp.obj
 0001:00046b24       fegetenv                   0000000180047b24 f   libucrt:fegetenv.obj
 0001:00046b44       fesetenv                   0000000180047b44 f   libucrt:fesetenv.obj
 0001:00046b9c       feholdexcept               0000000180047b9c f   libucrt:feholdexcept.obj
 0001:00046bec       ceil                       0000000180047bec f   libucrt:ceil.obj
 0001:00046cb0       log10                      0000000180047cb0 f   libucrt:log10.obj
 0001:0004725c       __acrt_fenv_get_common_round_control 000000018004825c f   libucrt:_fenvutils.obj
 0001:00047268       __acrt_fenv_get_control    0000000180048268 f   libucrt:_fenvutils.obj
 0001:0004734c       __acrt_fenv_get_status     000000018004834c f   libucrt:_fenvutils.obj
 0001:000473a4       __acrt_fenv_set_control    00000001800483a4 f   libucrt:_fenvutils.obj
 0001:000474dc       __acrt_fenv_set_status     00000001800484dc f   libucrt:_fenvutils.obj
 0001:00047550       ?reset_and_return@__crt_mbstring@@YA_K_KPEAU_Mbstatet@@@Z 0000000180048550 f   libucrt:common_utf8.obj
 0001:00047558       ?return_illegal_sequence@__crt_mbstring@@YA_KPEAU_Mbstatet@@AEAV__crt_cached_ptd_host@@@Z 0000000180048558 f   libucrt:common_utf8.obj
 0001:0004756c       ?__mbrtoc32_utf8@__crt_mbstring@@YA_KPEA_UPEBD_KPEAU_Mbstatet@@AEAV__crt_cached_ptd_host@@@Z 000000018004856c f   libucrt:mbrtoc32.obj
 0001:00047748       __dcrt_lowio_ensure_console_output_initialized 0000000180048748 f   libucrt:initcon.obj
 0001:0004779c       __dcrt_terminate_console_output 000000018004879c f   libucrt:initcon.obj
 0001:000477b8       __dcrt_write_console       00000001800487b8 f   libucrt:initcon.obj
 0001:000478f0       _close_internal            00000001800488f0 f   libucrt:close.obj
 0001:000479b4       _close_nolock_internal     00000001800489b4 f   libucrt:close.obj
 0001:00047a84       ?__acrt_stdio_free_stream@@YAXV__crt_stdio_stream@@@Z 0000000180048a84 f   libucrt:stream.obj
 0001:00047aa0       _clearfp                   0000000180048aa0 f   libucrt:ieee.obj
 0001:00047b0c       _control87                 0000000180048b0c f   libucrt:ieee.obj
 0001:00047db0       _log10_special             0000000180048db0 f   libucrt:log_special.obj
 0001:00047e70       _FindPESection             0000000180048e70 f   LIBCMT:pesect.obj
 0001:00047ec0       _IsNonwritableInCurrentImage 0000000180048ec0 f   LIBCMT:pesect.obj
 0001:00047f10       _ValidateImageBase         0000000180048f10 f   LIBCMT:pesect.obj
 0001:00047f3c       __GSHandlerCheck           0000000180048f3c f   LIBCMT:gshandler.obj
 0001:00047f5c       __GSHandlerCheckCommon     0000000180048f5c f   LIBCMT:gshandler.obj
 0001:00047fd0       __security_check_cookie    0000000180048fd0 f   LIBCMT:amdsecgs.obj
 0001:00047ff0       __GSHandlerCheck_SEH       0000000180048ff0 f   LIBCMT:gshandlerseh.obj
 0001:00048078       __raise_securityfailure    0000000180049078 f   LIBCMT:gs_report.obj
 0001:000480ac       __report_gsfailure         00000001800490ac f   LIBCMT:gs_report.obj
 0001:00048180       __report_rangecheckfailure 0000000180049180 f   LIBCMT:gs_report.obj
 0001:00048194       __report_securityfailure   0000000180049194 f   LIBCMT:gs_report.obj
 0001:00048318       __GSHandlerCheck_EH        0000000180049318 f   LIBCMT:gshandlereh.obj
 0001:00048398       __C_specific_handler_noexcept 0000000180049398 f   libvcruntime:chandler_noexcept.obj
 0001:000483e4       strrchr                    00000001800493e4 f   libvcruntime:strrchr.obj
 0001:00048530       _guard_dispatch_icall_nop  0000000180049530 f   LIBCMT:guard_dispatch.obj
 0001:00048550       _guard_xfg_dispatch_icall_nop 0000000180049550 f   LIBCMT:guard_xfg_dispatch.obj
 0001:00048580       memset_repstos             0000000180049580 f   libvcruntime:memset.obj
 0001:00048590       memset                     0000000180049590 f   libvcruntime:memset.obj
 0001:00048940       memcpy_repmovs             0000000180049940 f   libvcruntime:memcpy.obj
 0001:00048950       memcpy                     0000000180049950 f   libvcruntime:memcpy.obj
 0001:00048950       memcpy_$fo_default$        0000000180049950     libvcruntime:memcpy.obj
 0001:00048950       memmove                    0000000180049950 f   libvcruntime:memcpy.obj
 0002:00000000       __imp_LoadLibraryA         000000018004b000     kernel32:KERNEL32.dll
 0002:00000008       __imp_WriteConsoleW        000000018004b008     kernel32:KERNEL32.dll
 0002:00000010       __imp_RaiseException       000000018004b010     kernel32:KERNEL32.dll
 0002:00000018       __imp_GetLastError         000000018004b018     kernel32:KERNEL32.dll
 0002:00000020       __imp_GetSystemInfo        000000018004b020     kernel32:KERNEL32.dll
 0002:00000028       __imp_VirtualProtect       000000018004b028     kernel32:KERNEL32.dll
 0002:00000030       __imp_VirtualQuery         000000018004b030     kernel32:KERNEL32.dll
 0002:00000038       __imp_FreeLibrary          000000018004b038     kernel32:KERNEL32.dll
 0002:00000040       __imp_GetModuleHandleW     000000018004b040     kernel32:KERNEL32.dll
 0002:00000048       __imp_GetProcAddress       000000018004b048     kernel32:KERNEL32.dll
 0002:00000050       __imp_LoadLibraryExA       000000018004b050     kernel32:KERNEL32.dll
 0002:00000058       __imp_InitializeSListHead  000000018004b058     kernel32:KERNEL32.dll
 0002:00000060       __imp_QueryPerformanceCounter 000000018004b060     kernel32:KERNEL32.dll
 0002:00000068       __imp_GetCurrentProcessId  000000018004b068     kernel32:KERNEL32.dll
 0002:00000070       __imp_GetCurrentThreadId   000000018004b070     kernel32:KERNEL32.dll
 0002:00000078       __imp_GetSystemTimeAsFileTime 000000018004b078     kernel32:KERNEL32.dll
 0002:00000080       __imp_RtlCaptureContext    000000018004b080     kernel32:KERNEL32.dll
 0002:00000088       __imp_RtlLookupFunctionEntry 000000018004b088     kernel32:KERNEL32.dll
 0002:00000090       __imp_RtlVirtualUnwind     000000018004b090     kernel32:KERNEL32.dll
 0002:00000098       __imp_IsDebuggerPresent    000000018004b098     kernel32:KERNEL32.dll
 0002:000000a0       __imp_UnhandledExceptionFilter 000000018004b0a0     kernel32:KERNEL32.dll
 0002:000000a8       __imp_SetUnhandledExceptionFilter 000000018004b0a8     kernel32:KERNEL32.dll
 0002:000000b0       __imp_GetStartupInfoW      000000018004b0b0     kernel32:KERNEL32.dll
 0002:000000b8       __imp_IsProcessorFeaturePresent 000000018004b0b8     kernel32:KERNEL32.dll
 0002:000000c0       __imp_InterlockedPushEntrySList 000000018004b0c0     kernel32:KERNEL32.dll
 0002:000000c8       __imp_InterlockedFlushSList 000000018004b0c8     kernel32:KERNEL32.dll
 0002:000000d0       __imp_RtlUnwindEx          000000018004b0d0     kernel32:KERNEL32.dll
 0002:000000d8       __imp_SetLastError         000000018004b0d8     kernel32:KERNEL32.dll
 0002:000000e0       __imp_EnterCriticalSection 000000018004b0e0     kernel32:KERNEL32.dll
 0002:000000e8       __imp_LeaveCriticalSection 000000018004b0e8     kernel32:KERNEL32.dll
 0002:000000f0       __imp_DeleteCriticalSection 000000018004b0f0     kernel32:KERNEL32.dll
 0002:000000f8       __imp_InitializeCriticalSectionAndSpinCount 000000018004b0f8     kernel32:KERNEL32.dll
 0002:00000100       __imp_TlsAlloc             000000018004b100     kernel32:KERNEL32.dll
 0002:00000108       __imp_TlsGetValue          000000018004b108     kernel32:KERNEL32.dll
 0002:00000110       __imp_TlsSetValue          000000018004b110     kernel32:KERNEL32.dll
 0002:00000118       __imp_TlsFree              000000018004b118     kernel32:KERNEL32.dll
 0002:00000120       __imp_LoadLibraryExW       000000018004b120     kernel32:KERNEL32.dll
 0002:00000128       __imp_EncodePointer        000000018004b128     kernel32:KERNEL32.dll
 0002:00000130       __imp_RtlPcToFileHeader    000000018004b130     kernel32:KERNEL32.dll
 0002:00000138       __imp_GetCurrentProcess    000000018004b138     kernel32:KERNEL32.dll
 0002:00000140       __imp_ExitProcess          000000018004b140     kernel32:KERNEL32.dll
 0002:00000148       __imp_TerminateProcess     000000018004b148     kernel32:KERNEL32.dll
 0002:00000150       __imp_GetModuleHandleExW   000000018004b150     kernel32:KERNEL32.dll
 0002:00000158       __imp_GetModuleFileNameW   000000018004b158     kernel32:KERNEL32.dll
 0002:00000160       __imp_HeapFree             000000018004b160     kernel32:KERNEL32.dll
 0002:00000168       __imp_HeapAlloc            000000018004b168     kernel32:KERNEL32.dll
 0002:00000170       __imp_FindClose            000000018004b170     kernel32:KERNEL32.dll
 0002:00000178       __imp_FindFirstFileExW     000000018004b178     kernel32:KERNEL32.dll
 0002:00000180       __imp_FindNextFileW        000000018004b180     kernel32:KERNEL32.dll
 0002:00000188       __imp_IsValidCodePage      000000018004b188     kernel32:KERNEL32.dll
 0002:00000190       __imp_GetACP               000000018004b190     kernel32:KERNEL32.dll
 0002:00000198       __imp_GetOEMCP             000000018004b198     kernel32:KERNEL32.dll
 0002:000001a0       __imp_GetCPInfo            000000018004b1a0     kernel32:KERNEL32.dll
 0002:000001a8       __imp_GetCommandLineA      000000018004b1a8     kernel32:KERNEL32.dll
 0002:000001b0       __imp_GetCommandLineW      000000018004b1b0     kernel32:KERNEL32.dll
 0002:000001b8       __imp_MultiByteToWideChar  000000018004b1b8     kernel32:KERNEL32.dll
 0002:000001c0       __imp_WideCharToMultiByte  000000018004b1c0     kernel32:KERNEL32.dll
 0002:000001c8       __imp_GetEnvironmentStringsW 000000018004b1c8     kernel32:KERNEL32.dll
 0002:000001d0       __imp_FreeEnvironmentStringsW 000000018004b1d0     kernel32:KERNEL32.dll
 0002:000001d8       __imp_FlsAlloc             000000018004b1d8     kernel32:KERNEL32.dll
 0002:000001e0       __imp_FlsGetValue          000000018004b1e0     kernel32:KERNEL32.dll
 0002:000001e8       __imp_FlsSetValue          000000018004b1e8     kernel32:KERNEL32.dll
 0002:000001f0       __imp_FlsFree              000000018004b1f0     kernel32:KERNEL32.dll
 0002:000001f8       __imp_LCMapStringW         000000018004b1f8     kernel32:KERNEL32.dll
 0002:00000200       __imp_GetProcessHeap       000000018004b200     kernel32:KERNEL32.dll
 0002:00000208       __imp_GetStdHandle         000000018004b208     kernel32:KERNEL32.dll
 0002:00000210       __imp_GetFileType          000000018004b210     kernel32:KERNEL32.dll
 0002:00000218       __imp_GetStringTypeW       000000018004b218     kernel32:KERNEL32.dll
 0002:00000220       __imp_HeapSize             000000018004b220     kernel32:KERNEL32.dll
 0002:00000228       __imp_HeapReAlloc          000000018004b228     kernel32:KERNEL32.dll
 0002:00000230       __imp_SetStdHandle         000000018004b230     kernel32:KERNEL32.dll
 0002:00000238       __imp_FlushFileBuffers     000000018004b238     kernel32:KERNEL32.dll
 0002:00000240       __imp_WriteFile            000000018004b240     kernel32:KERNEL32.dll
 0002:00000248       __imp_GetConsoleOutputCP   000000018004b248     kernel32:KERNEL32.dll
 0002:00000250       __imp_GetConsoleMode       000000018004b250     kernel32:KERNEL32.dll
 0002:00000258       __imp_SetFilePointerEx     000000018004b258     kernel32:KERNEL32.dll
 0002:00000260       __imp_CreateFileW          000000018004b260     kernel32:KERNEL32.dll
 0002:00000268       __imp_CloseHandle          000000018004b268     kernel32:KERNEL32.dll
 0002:00000270       \177KERNEL32_NULL_THUNK_DATA 000000018004b270     kernel32:KERNEL32.dll
 0002:00000278       __guard_check_icall_fptr   000000018004b278     LIBCMT:guard_support.obj
 0002:00000280       __guard_xfg_check_icall_fptr 000000018004b280     LIBCMT:guard_support.obj
 0002:00000288       __guard_dispatch_icall_fptr 000000018004b288     LIBCMT:guard_support.obj
 0002:00000290       __guard_xfg_dispatch_icall_fptr 000000018004b290     LIBCMT:guard_support.obj
 0002:00000298       __guard_xfg_table_dispatch_icall_fptr 000000018004b298     LIBCMT:guard_support.obj
 0002:000002a0       __castguard_check_failure_os_handled_fptr 000000018004b2a0     LIBCMT:guard_support.obj
 0002:000002a8       __guard_memcpy_fptr        000000018004b2a8     libvcruntime:softmemtag.obj
 0002:000002b0       __xc_a                     000000018004b2b0     LIBCMT:initializers.obj
 0002:00000498       __xc_z                     000000018004b498     LIBCMT:initializers.obj
 0002:000004a0       __xi_a                     000000018004b4a0     LIBCMT:initializers.obj
 0002:000004a8       __acrt_tran_fma3_initializer 000000018004b4a8     libucrt:fma3_initializer.obj
 0002:000004b0       __acrt_multibyte_initializer 000000018004b4b0     libucrt:multibyte_initializer.obj
 0002:000004b8       __acrt_stdio_initializer   000000018004b4b8     libucrt:stdio_initializer.obj
 0002:000004c0       __xi_z                     000000018004b4c0     LIBCMT:initializers.obj
 0002:000004c8       __xp_a                     000000018004b4c8     LIBCMT:initializers.obj
 0002:000004d0       __acrt_locale_terminator   000000018004b4d0     libucrt:locale_initializer.obj
 0002:000004d8       __dcrt_console_output_terminator 000000018004b4d8     libucrt:console_output_initializer.obj
 0002:000004e0       __acrt_stdio_terminator    000000018004b4e0     libucrt:stdio_initializer.obj
 0002:000004e8       __xp_z                     000000018004b4e8     LIBCMT:initializers.obj
 0002:000004f0       __xt_a                     000000018004b4f0     LIBCMT:initializers.obj
 0002:000004f8       __xt_z                     000000018004b4f8     LIBCMT:initializers.obj
 0002:00000500       ??_7PxFoundation@physx@@6B@ 000000018004b500     Adjacencies.obj
 0002:00000540       ??_C@_0FB@GADKLPLB@C?3?2Users?2Jungle?2source?2repos?2Ph@ 000000018004b540     Adjacencies.obj
 0002:00000598       ??_C@_0DA@FMEHLBKI@Adjacencies?3?3UpdateLink?3?5invali@ 000000018004b598     Adjacencies.obj
 0002:000005d0       ??_C@_0EA@CPHOACLK@Adjacencies?3?3CreateDatabase?3?5ca@ 000000018004b5d0     Adjacencies.obj
 0002:00000610       ??_C@_0BM@OIFKLHDN@?$DMallocation?5names?5disabled?$DO@ 000000018004b610     Adjacencies.obj
 0002:00000650       ?sBufferSize@DebugText@Cm@physx@@2HB 000000018004b650     Cooking.obj
 0002:00000654       ??_C@_06EJKDJEDO@PxBase@   000000018004b654     Cooking.obj
 0002:00000660       ??_C@_0N@CDGINLLF@PxConvexMesh@ 000000018004b660     Cooking.obj
 0002:00000670       ??_C@_0O@PBAKPCEC@PxHeightField@ 000000018004b670     Cooking.obj
 0002:00000680       ??_7PxBase@physx@@6B@      000000018004b680     Cooking.obj
 0002:000006a8       ??_7PxCooking@physx@@6B@   000000018004b6a8     Cooking.obj
 0002:00000728       ??_7Cooking@physx@@6B@     000000018004b728     Cooking.obj
 0002:000007b0       ??_C@_0FC@PJIHAFK@Cooking?3?3validateTriangleMesh?3?5@ 000000018004b7b0     Cooking.obj
 0002:00000810       ??_C@_0EN@NCEJAHBE@C?3?2Users?2Jungle?2source?2repos?2Ph@ 000000018004b810     Cooking.obj
 0002:00000860       ??_C@_0EK@EKAIJEBL@Cooking?3?3cookConvexMesh?3?5user?9p@ 000000018004b860     Cooking.obj
 0002:000008b0       ??_C@_0FA@GFFGAPML@Cooking?3?3cookConvexMesh?3?5provid@ 000000018004b8b0     Cooking.obj
 0002:00000900       ??_C@_0EP@PKDCPNNO@Cooking?3?3cookConvexMesh?3?5provid@ 000000018004b900     Cooking.obj
 0002:00000950       ??_C@_0EO@LKFMMDE@Cooking?3?3cookConvexMesh?3?5user?9p@ 000000018004b950     Cooking.obj
 0002:000009a0       ??_C@_0EN@NJCBGDHJ@C?3?2Users?2Jungle?2source?2repos?2Ph@ 000000018004b9a0     Cooking.obj
 0002:000009f0       __real@3f800000            000000018004b9f0     Cooking.obj
 0002:00000a00       __xmm@000000003a83126f3a83126f3a83126f 000000018004ba00     Cooking.obj
 0002:00000a10       __xmm@00000000ba83126fba83126fba83126f 000000018004ba10     Cooking.obj
 0002:00000a20       __xmm@3a83126f3a83126f3a83126f3a83126f 000000018004ba20     Cooking.obj
 0002:00000a30       __xmm@80000000800000008000000080000000 000000018004ba30     Cooking.obj
 0002:00000a40       __xmm@ba83126fba83126fba83126fba83126f 000000018004ba40     Cooking.obj
 0002:00000a50       ??_C@_0BA@DLCJDKDM@NonTrackedAlloc@ 000000018004ba50     CookingUtils.obj
 0002:00000a60       ??_C@_0FC@GAGKDCAF@C?3?2Users?2Jungle?2source?2repos?2Ph@ 000000018004ba60     CookingUtils.obj
 0002:00000ac0       ??_C@_0EO@FOKCHHJJ@C?3?2Users?2Jungle?2source?2repos?2Ph@ 000000018004bac0     EdgeList.obj
 0002:00000b10       ??_C@_0CO@GBNJFPN@EdgeList?3?3CreateFacesToEdges?3?5N@ 000000018004bb10     EdgeList.obj
 0002:00000b40       ??_C@_0CO@EHJBBMNK@EdgeList?3?3ComputeActiveEdges?3?5N@ 000000018004bb40     EdgeList.obj
 0002:00000b70       ??_C@_0DI@GBHLFOFP@ActiveEdges?3?3ComputeConvexEdges@ 000000018004bb70     EdgeList.obj
 0002:00000ba8       ??_C@_0DM@JOGBLHDI@ActiveEdges?3?3ComputeConvexEdges@ 000000018004bba8     EdgeList.obj
 0002:00000bf0       ??_C@_0ED@FEMJKPEL@ActiveEdges?3?3ComputeConvexEdges@ 000000018004bbf0     EdgeList.obj
 0002:00000c40       ??_C@_0EB@BFDPMFCD@ActiveEdges?3?3ComputeConvexEdges@ 000000018004bc40     EdgeList.obj
 0002:00000c84       __real@bf7fbe77            000000018004bc84     EdgeList.obj
 0002:00000c90       __xmm@7fffffff7fffffff7fffffff7fffffff 000000018004bc90     EdgeList.obj
 0002:00000ca0       ??_C@_0FB@EFGBJCOF@C?3?2Users?2Jungle?2source?2repos?2Ph@ 000000018004bca0     MeshCleaner.obj
 0002:00000cf4       __real@3f000000            000000018004bcf4     MeshCleaner.obj
 0002:00000cf8       ??_7Quantizer@physx@@6B@   000000018004bcf8     Quantizer.obj
 0002:00000d20       ??_7QuantizerImpl@@6B@     000000018004bd20     Quantizer.obj
 0002:00000d50       ??_C@_0EP@EAGAPMHF@C?3?2Users?2Jungle?2source?2repos?2Ph@ 000000018004bd50     Quantizer.obj
 0002:00000da0       __real@38d1b717            000000018004bda0     Quantizer.obj
 0002:00000da4       __real@3c23d70a            000000018004bda4     Quantizer.obj
 0002:00000da8       __real@3f8020c5            000000018004bda8     Quantizer.obj
 0002:00000dac       __real@7f7fffff            000000018004bdac     Quantizer.obj
 0002:00000db0       __real@fe7fffff            000000018004bdb0     Quantizer.obj
 0002:00000dc0       __xmm@fe7fffff7e7fffff7e7fffff7e7fffff 000000018004bdc0     Quantizer.obj
 0002:00000df0       ??_C@_0FJ@ELACMDDO@C?3?2Users?2Jungle?2source?2repos?2Ph@ 000000018004bdf0     BVHStructureBuilder.obj
 0002:00000e50       __xmm@3ba3d70a3ba3d70a3ba3d70a3ba3d70a 000000018004be50     BVHStructureBuilder.obj
 0002:00000e80       ?reductionFactors@SubSortQuick@physx@@2QBMB 000000018004be80     RTreeCooking.obj
 0002:00000e90       ?stopAtTrisPerLeaf1@SubSortQuick@physx@@2QBIB 000000018004be90     RTreeCooking.obj
 0002:00000f40       ??_C@_0FH@FIIFHIBF@C?3?2Users?2Jungle?2source?2repos?2Ph@ 000000018004bf40     RTreeCooking.obj
 0002:00000fa0       ??_C@_0EM@FDEOKHDK@C?3?2Users?2Jungle?2source?2repos?2Ph@ 000000018004bfa0     RTreeCooking.obj
 0002:00000ff0       ??_C@_0FF@JEHLBMLI@C?3?2Users?2Jungle?2source?2repos?2Ph@ 000000018004bff0     RTreeCooking.obj
 0002:00001048       __real@37800080            000000018004c048     RTreeCooking.obj
 0002:0000104c       __real@41100000            000000018004c04c     RTreeCooking.obj
 0002:00001050       __real@41700000            000000018004c050     RTreeCooking.obj
 0002:00001054       __real@42200000            000000018004c054     RTreeCooking.obj
 0002:00001058       __real@ff7fffff            000000018004c058     RTreeCooking.obj
 0002:00001060       __xmm@00000004000000030000000200000001 000000018004c060     RTreeCooking.obj
 0002:00001070       __xmm@3a03126f3a03126f3a03126f3a03126f 000000018004c070     RTreeCooking.obj
 0002:00001080       __xmm@7f7fffff7f7fffff7f7fffff7f7fffff 000000018004c080     RTreeCooking.obj
 0002:00001090       __xmm@ff7fffffff7fffffff7fffffff7fffff 000000018004c090     RTreeCooking.obj
 0002:000010c0       __real@34800000            000000018004c0c0     MeshBuilder.obj
 0002:000010f0       ??_7MeshDataBase@Gu@physx@@6B@ 000000018004c0f0     TriangleMeshBuilder.obj
 0002:00001100       ??_C@_0FA@KLBCMCON@C?3?2Users?2Jungle?2source?2repos?2Ph@ 000000018004c100     TriangleMeshBuilder.obj
 0002:00001150       ??_7TriangleMeshData@Gu@physx@@6B@ 000000018004c150     TriangleMeshBuilder.obj
 0002:00001158       ??_7RTreeTriangleData@Gu@physx@@6B@ 000000018004c158     TriangleMeshBuilder.obj
 0002:00001160       ??_7BV4TriangleData@Gu@physx@@6B@ 000000018004c160     TriangleMeshBuilder.obj
 0002:00001168       ??_7RemapCallback@RTreeCooker@physx@@6B@ 000000018004c168     TriangleMeshBuilder.obj
 0002:00001178       ??_7TriangleMeshBuilder@physx@@6B@ 000000018004c178     TriangleMeshBuilder.obj
 0002:000011a0       ??_7RTreeTriangleMeshBuilder@physx@@6B@ 000000018004c1a0     TriangleMeshBuilder.obj
 0002:000011c8       ??_7BV4TriangleMeshBuilder@physx@@6B@ 000000018004c1c8     TriangleMeshBuilder.obj
 0002:000011f0       ??_C@_0FP@BKOLFHKM@C?3?2Users?2Jungle?2source?2repos?2Ph@ 000000018004c1f0     TriangleMeshBuilder.obj
 0002:00001250       ??_C@_0FO@OGFIAAJ@C?3?2Users?2Jungle?2source?2repos?2Ph@ 000000018004c250     TriangleMeshBuilder.obj
 0002:000012b0       ??_C@_0DJ@IGODLHLP@TriangleMesh?3?5Enable?5mesh?5weldi@ 000000018004c2b0     TriangleMeshBuilder.obj
 0002:000012f0       ??_C@_0FJ@HHJLKGDF@TriangleMesh?3?5triangles?5are?5too@ 000000018004c2f0     TriangleMeshBuilder.obj
 0002:00001350       ??_C@_0CN@KGPHHHLK@TriangleMesh?3?5mesh?5is?5too?5big?5f@ 000000018004c350     TriangleMeshBuilder.obj
 0002:00001380       ??_C@_0DD@CMJGDCNN@TriangleMesh?3?3loadFromDesc?3?5des@ 000000018004c380     TriangleMeshBuilder.obj
 0002:000013c0       ??_C@_0ED@ILJJNHIP@TriangleMesh?3?3loadFromDesc?3?5mPa@ 000000018004c3c0     TriangleMeshBuilder.obj
 0002:00001408       ??_C@_0BJ@BKHDBBHO@cleaning?5the?5mesh?5failed@ 000000018004c408     TriangleMeshBuilder.obj
 0002:00001428       ??_C@_0BK@JIDHMMCE@BV4?5tree?5failed?5to?5build?4@ 000000018004c428     TriangleMeshBuilder.obj
 0002:00001448       ??_C@_0BL@DHNECNBE@BV32?5tree?5failed?5to?5build?4@ 000000018004c448     TriangleMeshBuilder.obj
 0002:00001468       ??_7RTreeCookerRemap@physx@@6B@ 000000018004c468     TriangleMeshBuilder.obj
 0002:00001478       __real@3951b717            000000018004c478     TriangleMeshBuilder.obj
 0002:0000147c       __real@48742400            000000018004c47c     TriangleMeshBuilder.obj
 0002:00001480       __xmm@00000003000000020000000100000000 000000018004c480     TriangleMeshBuilder.obj
 0002:000014b0       ??_C@_0GB@DEONGJCN@C?3?2Users?2Jungle?2source?2repos?2Ph@ 000000018004c4b0     BigConvexDataBuilder.obj
 0002:00001514       __real@40000000            000000018004c514     BigConvexDataBuilder.obj
 0002:00001540       ??_C@_0FO@JMNLGCGM@C?3?2Users?2Jungle?2source?2repos?2Ph@ 000000018004c540     ConvexHullBuilder.obj
 0002:000015a0       ??_C@_0EB@DCEIFDGC@ConvexHullBuilder?3?3init?3?5convex@ 000000018004c5a0     ConvexHullBuilder.obj
 0002:000015f0       ??_C@_0FM@KICBLCBH@Gu?3?3ConvexMesh?3?3checkHullPolygo@ 000000018004c5f0     ConvexHullBuilder.obj
 0002:00001650       ??_C@_0GO@HBFIOGLL@Gu?3?3ConvexMesh?3?3checkHullPolygo@ 000000018004c650     ConvexHullBuilder.obj
 0002:000016c0       ??_C@_0HF@OLJFBIEL@ConvexHullBuilder?3?5convex?5hull?5@ 000000018004c6c0     ConvexHullBuilder.obj
 0002:00001740       ??_C@_0OG@JNHFOIL@ConvexHullBuilder?3?5convex?5hull?5@ 000000018004c740     ConvexHullBuilder.obj
 0002:00001830       ??_C@_0EJ@NIOIBAKH@Cooking?3?3cookConvexMesh?3?5non?9ma@ 000000018004c830     ConvexHullBuilder.obj
 0002:0000187c       __real@3ca3d70a            000000018004c87c     ConvexHullBuilder.obj
 0002:00001880       __real@3eaaaaab            000000018004c880     ConvexHullBuilder.obj
 0002:00001888       ??_7ConvexHullLib@physx@@6B@ 000000018004c888     ConvexHullLib.obj
 0002:000018b0       ??_C@_0FK@GMMLDMB@C?3?2Users?2Jungle?2source?2repos?2Ph@ 000000018004c8b0     ConvexHullLib.obj
 0002:00001910       ??_C@_0JE@PABBNGEL@ConvexHullLib?3?3cleanupVertices?3@ 000000018004c910     ConvexHullLib.obj
 0002:000019a4       __real@358637bd            000000018004c9a4     ConvexHullLib.obj
 0002:000019a8       __real@3d4ccccd            000000018004c9a8     ConvexHullLib.obj
 0002:000019d0       ??_C@_0FM@DFNEOPBB@C?3?2Users?2Jungle?2source?2repos?2Ph@ 000000018004c9d0     ConvexHullUtils.obj
 0002:00001a2c       __real@3e20d97c            000000018004ca2c     ConvexHullUtils.obj
 0002:00001a30       __xmm@00800000008000000080000000800000 000000018004ca30     ConvexHullUtils.obj
 0002:00001a40       __xmm@3f0000003f0000003f0000003f000000 000000018004ca40     ConvexHullUtils.obj
 0002:00001a50       __xmm@bf000000bf000000bf000000bf000000 000000018004ca50     ConvexHullUtils.obj
 0002:00001a80       ??_C@_0DF@LLFJIJGM@Gu?3?3ConvexMesh?3?3loadFromDesc?3?5d@ 000000018004ca80     ConvexMeshBuilder.obj
 0002:00001ac0       ??_C@_0FO@FCHPMCDJ@C?3?2Users?2Jungle?2source?2repos?2Ph@ 000000018004cac0     ConvexMeshBuilder.obj
 0002:00001b20       ??_C@_0HK@JOGKIEAA@Gu?3?3ConvexMesh?3?5Mesh?5has?5a?5nega@ 000000018004cb20     ConvexMeshBuilder.obj
 0002:00001ba0       ??_C@_0DH@NJPPHFFD@Gu?3?3ConvexMesh?3?5Error?5computing@ 000000018004cba0     ConvexMeshBuilder.obj
 0002:00001bd8       ??_C@_0DJ@LJDLGLDJ@Gu?3?3ConvexMesh?3?3loadConvexHull?3@ 000000018004cbd8     ConvexMeshBuilder.obj
 0002:00001c20       ??_C@_0HJ@KJANPPOE@ConvexMeshBuilder?3?3computeHullP@ 000000018004cc20     ConvexMeshBuilder.obj
 0002:00001c9c       ??_C@_06KDGGGLIJ@PxVec3@   000000018004cc9c     ConvexMeshBuilder.obj
 0002:00001ca4       ??_C@_05LMJPANIN@PxU32@    000000018004cca4     ConvexMeshBuilder.obj
 0002:00001cb0       ??_C@_0O@JMAGMMGG@PxHullPolygon@ 000000018004ccb0     ConvexMeshBuilder.obj
 0002:00001cc0       __real@33d6bf95            000000018004ccc0     ConvexMeshBuilder.obj
 0002:00001cc4       __real@3f13cd3a            000000018004ccc4     ConvexMeshBuilder.obj
 0002:00001cc8       __real@b3d6bf95            000000018004ccc8     ConvexMeshBuilder.obj
 0002:00001ccc       __real@bf800000            000000018004cccc     ConvexMeshBuilder.obj
 0002:00001cd0       __xmm@80000000000000008000000000000000 000000018004ccd0     ConvexMeshBuilder.obj
 0002:00001ce0       ??_C@_0DP@PJBJBEGF@Meshmerizer?3?3extractHullPolygon@ 000000018004cce0     ConvexPolygonsBuilder.obj
 0002:00001d20       ??_C@_0GC@MBEFAJFD@C?3?2Users?2Jungle?2source?2repos?2Ph@ 000000018004cd20     ConvexPolygonsBuilder.obj
 0002:00001d88       ??_C@_0DL@IAFKOCCK@ConvexHullBuilder?3?5convex?5hull?5@ 000000018004cd88     ConvexPolygonsBuilder.obj
 0002:00001dd0       ??_C@_0GF@OJLJHAMH@ConvexHullBuilder?3?3CreateTriang@ 000000018004cdd0     ConvexPolygonsBuilder.obj
 0002:00001e38       ??_7QuickHullConvexHullLib@physx@@6B@ 000000018004ce38     QuickHullConvexHullLib.obj
 0002:00001e60       ??_C@_0GD@BJCCGOFD@C?3?2Users?2Jungle?2source?2repos?2Ph@ 000000018004ce60     QuickHullConvexHullLib.obj
 0002:00001ed0       ??_C@_0GA@EPPAEJPM@QuickHullConvexHullLib?3?3findSim@ 000000018004ced0     QuickHullConvexHullLib.obj
 0002:00001f30       ??_C@_0FB@NEBIJMML@QuickHullConvexHullLib?3?3findSim@ 000000018004cf30     QuickHullConvexHullLib.obj
 0002:00001f90       ??_C@_0FB@CLLCBEMM@QuickHullConvexHullLib?3?3findSim@ 000000018004cf90     QuickHullConvexHullLib.obj
 0002:00001fe4       __real@34c00000            000000018004cfe4     QuickHullConvexHullLib.obj
 0002:00001fe8       __real@3e800000            000000018004cfe8     QuickHullConvexHullLib.obj
 0002:00002010       __real@00000000            000000018004d010     VolumeIntegration.obj
 0002:00002018       __real@3fe0000000000000    000000018004d018     VolumeIntegration.obj
 0002:00002020       __real@3ff0000000000000    000000018004d020     VolumeIntegration.obj
 0002:00002030       __xmm@3c0888893c0888893c0888893c088889 000000018004d030     VolumeIntegration.obj
 0002:00002040       __xmm@3c8888893c8888893c8888893c888889 000000018004d040     VolumeIntegration.obj
 0002:00002050       __xmm@3d2aaaab3d2aaaab3d2aaaab3d2aaaab 000000018004d050     VolumeIntegration.obj
 0002:00002060       __xmm@3e2aaaab3e2aaaab3e2aaaab3e2aaaab 000000018004d060     VolumeIntegration.obj
 0002:00002070       __xmm@3f811111111111113f81111111111111 000000018004d070     VolumeIntegration.obj
 0002:00002080       __xmm@3f811111111111113f91111111111111 000000018004d080     VolumeIntegration.obj
 0002:00002090       __xmm@3f911111111111113f91111111111111 000000018004d090     VolumeIntegration.obj
 0002:000020a0       __xmm@3fa55555555555553fa5555555555555 000000018004d0a0     VolumeIntegration.obj
 0002:000020b0       __xmm@3fa55555555555553fc5555555555555 000000018004d0b0     VolumeIntegration.obj
 0002:000020c0       ??_C@_0BA@EGLNOO@PhysXFoundation@ 000000018004d0c0     WindowsCookingDelayLoadHook.obj
 0002:000020d0       ??_C@_0M@ILKNCJKN@PhysXCommon@ 000000018004d0d0     WindowsCookingDelayLoadHook.obj
 0002:000020e0       __sz_PhysXCommon_64_dll    000000018004d0e0     PhysXCommon_64:PhysXCommon_64.dll
 0002:00002100       __sz_PhysXFoundation_64_dll 000000018004d100     PhysXFoundation_64:PhysXFoundation_64.dll
 0002:00002118       ??_C@_1BK@DBDEIDLH@?$AAK?$AAE?$AAR?$AAN?$AAE?$AAL?$AA3?$AA2?$AA?4?$AAD?$AAL?$AAL@ 000000018004d118     Delayimp:delayhlp.obj
 0002:00002138       ??_C@_0BI@OMNLIJDB@AcquireSRWLockExclusive@ 000000018004d138     Delayimp:delayhlp.obj
 0002:00002150       ??_C@_0BI@HMIEPCNJ@ReleaseSRWLockExclusive@ 000000018004d150     Delayimp:delayhlp.obj
 0002:00002168       __pfnDliFailureHook2       000000018004d168     Delayimp:delayhk1.obj
 0002:00002170       __bChangeProtectionOfWholeDloadSection 000000018004d170     Delayimp:delaygv1.obj
 0002:00002180       ??_7type_info@@6B@         000000018004d180     LIBCMT:std_type_info_static.obj
 0002:000021f0       _pDefaultRawDllMain        000000018004d1f0     LIBCMT:dll_dllmain.obj
 0002:000021f0       _pRawDllMain               000000018004d1f0     LIBCMT:dll_dllmain.obj
 0002:00002200       _load_config_used          000000018004d200     LIBCMT:loadcfg.obj
 0002:00002340       __xmm@ffffffffffffffffffffffffffffffff 000000018004d340     LIBCMT:utility.obj
 0002:00002350       _pDestructExceptionObject  000000018004d350     libvcruntime:ehhelpers.obj
 0002:00002a70       ??_C@_08EHJDFFNH@__based?$CI@ 000000018004da70     libvcruntime:undname.obj
 0002:00002a80       ??_C@_07KOLFKCDI@__cdecl@  000000018004da80     libvcruntime:undname.obj
 0002:00002a88       ??_C@_09IFJBGAPI@__stdcall@ 000000018004da88     libvcruntime:undname.obj
 0002:00002a98       ??_C@_0L@NPHFGOKO@__thiscall@ 000000018004da98     libvcruntime:undname.obj
 0002:00002aa8       ??_C@_0L@JMKHOMEK@__fastcall@ 000000018004daa8     libvcruntime:undname.obj
 0002:00002ab8       ??_C@_0N@BCKKPABJ@__vectorcall@ 000000018004dab8     libvcruntime:undname.obj
 0002:00002ac8       ??_C@_0BA@NAGGFLJK@__preserve_none@ 000000018004dac8     libvcruntime:undname.obj
 0002:00002ad8       ??_C@_09HIJEGCPM@__clrcall@ 000000018004dad8     libvcruntime:undname.obj
 0002:00002ae4       ??_C@_06GHPCKEAG@__eabi@   000000018004dae4     libvcruntime:undname.obj
 0002:00002af0       ??_C@_09IOPIDJLG@__swift_1@ 000000018004daf0     libvcruntime:undname.obj
 0002:00002b00       ??_C@_09KFNFGKHF@__swift_2@ 000000018004db00     libvcruntime:undname.obj
 0002:00002b10       ??_C@_09LMMOFLDE@__swift_3@ 000000018004db10     libvcruntime:undname.obj
 0002:00002b20       ??_C@_07JOMMBBKO@__ptr64@  000000018004db20     libvcruntime:undname.obj
 0002:00002b28       ??_C@_0L@PILCLIHE@__restrict@ 000000018004db28     libvcruntime:undname.obj
 0002:00002b38       ??_C@_0M@GFIIJFMG@__unaligned@ 000000018004db38     libvcruntime:undname.obj
 0002:00002b48       ??_C@_09DHDLOLLB@restrict?$CI@ 000000018004db48     libvcruntime:undname.obj
 0002:00002b52       ??_C@_00CNPNBAHC@@         000000018004db52     libvcruntime:undname.obj
 0002:00002b54       ??_C@_04NIHEBCM@?5new@     000000018004db54     libvcruntime:undname.obj
 0002:00002b60       ??_C@_07FPCDHGMM@?5delete@ 000000018004db60     libvcruntime:undname.obj
 0002:00002b68       ??_C@_01NEMOKFLO@?$DN@     000000018004db68     libvcruntime:undname.obj
 0002:00002b6c       ??_C@_02GPIOPFAK@?$DO?$DO@ 000000018004db6c     libvcruntime:undname.obj
 0002:00002b70       ??_C@_02FODMEDOG@?$DM?$DM@ 000000018004db70     libvcruntime:undname.obj
 0002:00002b74       ??_C@_01DCLJPIOD@?$CB@     000000018004db74     libvcruntime:undname.obj
 0002:00002b78       ??_C@_02EGOFBIJA@?$DN?$DN@ 000000018004db78     libvcruntime:undname.obj
 0002:00002b7c       ??_C@_02FDNJECIE@?$CB?$DN@ 000000018004db7c     libvcruntime:undname.obj
 0002:00002b80       ??_C@_02GPECMEKF@?$FL?$FN@ 000000018004db80     libvcruntime:undname.obj
 0002:00002b88       ??_C@_08LHJFAFGD@operator@ 000000018004db88     libvcruntime:undname.obj
 0002:00002b94       ??_C@_02HBOOOICD@?9?$DO@   000000018004db94     libvcruntime:undname.obj
 0002:00002b98       ??_C@_01NBENCBCI@?$CK@     000000018004db98     libvcruntime:undname.obj
 0002:00002b9c       ??_C@_02ECNGHCIF@?$CL?$CL@ 000000018004db9c     libvcruntime:undname.obj
 0002:00002ba0       ??_C@_02BAABKJLB@?9?9@     000000018004dba0     libvcruntime:undname.obj
 0002:00002ba4       ??_C@_01JOAMLHOP@?9@       000000018004dba4     libvcruntime:undname.obj
 0002:00002ba8       ??_C@_01MIFGBAGJ@?$CL@     000000018004dba8     libvcruntime:undname.obj
 0002:00002bac       ??_C@_01HNPIGOCE@?$CG@     000000018004dbac     libvcruntime:undname.obj
 0002:00002bb0       ??_C@_03MNHNFDLC@?9?$DO?$CK@ 000000018004dbb0     libvcruntime:undname.obj
 0002:00002bb4       ??_C@_01KMDKNFGN@?1@       000000018004dbb4     libvcruntime:undname.obj
 0002:00002bb8       ??_C@_01FGNFDNOH@?$CF@     000000018004dbb8     libvcruntime:undname.obj
 0002:00002bbc       ??_C@_01MNNFJEPP@?$DM@     000000018004dbbc     libvcruntime:undname.obj
 0002:00002bc0       ??_C@_02EHCHHCKH@?$DM?$DN@ 000000018004dbc0     libvcruntime:undname.obj
 0002:00002bc4       ??_C@_01PPODPGHN@?$DO@     000000018004dbc4     libvcruntime:undname.obj
 0002:00002bc8       ??_C@_02EEKDKGMJ@?$DO?$DN@ 000000018004dbc8     libvcruntime:undname.obj
 0002:00002bcc       ??_C@_01IHBHIGKO@?0@       000000018004dbcc     libvcruntime:undname.obj
 0002:00002bd0       ??_C@_02HCKGKOFO@?$CI?$CJ@ 000000018004dbd0     libvcruntime:undname.obj
 0002:00002bd4       ??_C@_01PJKLJHI@?$HO@      000000018004dbd4     libvcruntime:undname.obj
 0002:00002bd8       ??_C@_01JKBOJNNK@?$FO@     000000018004dbd8     libvcruntime:undname.obj
 0002:00002bdc       ??_C@_01DNKMNLPK@?$HM@     000000018004dbdc     libvcruntime:undname.obj
 0002:00002be0       ??_C@_02PPKAJPJL@?$CG?$CG@ 000000018004dbe0     libvcruntime:undname.obj
 0002:00002be4       ??_C@_02NONPIBCD@?$HM?$HM@ 000000018004dbe4     libvcruntime:undname.obj
 0002:00002be8       ??_C@_02FPIMKNGF@?$CK?$DN@ 000000018004dbe8     libvcruntime:undname.obj
 0002:00002bec       ??_C@_02FOEOMHFC@?$CL?$DN@ 000000018004dbec     libvcruntime:undname.obj
 0002:00002bf0       ??_C@_02FKMDLLOA@?9?$DN@   000000018004dbf0     libvcruntime:undname.obj
 0002:00002bf4       ??_C@_02FJEHGPIO@?1?$DN@   000000018004dbf4     libvcruntime:undname.obj
 0002:00002bf8       ??_C@_02FENAOKFI@?$CF?$DN@ 000000018004dbf8     libvcruntime:undname.obj
 0002:00002bfc       ??_C@_03IKFCCPFF@?$DO?$DO?$DN@ 000000018004dbfc     libvcruntime:undname.obj
 0002:00002c00       ??_C@_03CDNPDDLA@?$DM?$DM?$DN@ 000000018004dc00     libvcruntime:undname.obj
 0002:00002c04       ??_C@_02FGJGFEAB@?$CG?$DN@ 000000018004dc04     libvcruntime:undname.obj
 0002:00002c08       ??_C@_02DHLNPPGH@?$HM?$DN@ 000000018004dc08     libvcruntime:undname.obj
 0002:00002c0c       ??_C@_02MHEGNOJ@?$FO?$DN@  000000018004dc0c     libvcruntime:undname.obj
 0002:00002c10       ??_C@_09IFPLHPGF@?$GAvftable?8@ 000000018004dc10     libvcruntime:undname.obj
 0002:00002c20       ??_C@_09BLBHBJP@?$GAvbtable?8@ 000000018004dc20     libvcruntime:undname.obj
 0002:00002c30       ??_C@_07FEEIOKP@?$GAvcall?8@ 000000018004dc30     libvcruntime:undname.obj
 0002:00002c38       ??_C@_08LLFFHHDJ@?$GAtypeof?8@ 000000018004dc38     libvcruntime:undname.obj
 0002:00002c48       ??_C@_0BF@KDPPACIK@?$GAlocal?5static?5guard?8@ 000000018004dc48     libvcruntime:undname.obj
 0002:00002c60       ??_C@_08OBABFOLI@?$GAstring?8@ 000000018004dc60     libvcruntime:undname.obj
 0002:00002c70       ??_C@_0BD@JDLKDPAB@?$GAvbase?5destructor?8@ 000000018004dc70     libvcruntime:undname.obj
 0002:00002c88       ??_C@_0BN@DEGPLNFK@?$GAvector?5deleting?5destructor?8@ 000000018004dc88     libvcruntime:undname.obj
 0002:00002ca8       ??_C@_0BO@OBMKPJIG@?$GAdefault?5constructor?5closure?8@ 000000018004dca8     libvcruntime:undname.obj
 0002:00002cc8       ??_C@_0BN@IMDCHIKM@?$GAscalar?5deleting?5destructor?8@ 000000018004dcc8     libvcruntime:undname.obj
 0002:00002ce8       ??_C@_0BO@PFGOCPJJ@?$GAvector?5constructor?5iterator?8@ 000000018004dce8     libvcruntime:undname.obj
 0002:00002d08       ??_C@_0BN@LFPFMEDL@?$GAvector?5destructor?5iterator?8@ 000000018004dd08     libvcruntime:undname.obj
 0002:00002d28       ??_C@_0CE@IKBNEHA@?$GAvector?5vbase?5constructor?5itera@ 000000018004dd28     libvcruntime:undname.obj
 0002:00002d50       ??_C@_0BL@NILFHHPC@?$GAvirtual?5displacement?5map?8@ 000000018004dd50     libvcruntime:undname.obj
 0002:00002d70       ??_C@_0CB@JONCMFFK@?$GAeh?5vector?5constructor?5iterator@ 000000018004dd70     libvcruntime:undname.obj
 0002:00002d98       ??_C@_0CA@GCEOPDGL@?$GAeh?5vector?5destructor?5iterator?8@ 000000018004dd98     libvcruntime:undname.obj
 0002:00002db8       ??_C@_0CH@OOJPLCPH@?$GAeh?5vector?5vbase?5constructor?5it@ 000000018004ddb8     libvcruntime:undname.obj
 0002:00002de0       ??_C@_0BL@LLKPOHJI@?$GAcopy?5constructor?5closure?8@ 000000018004dde0     libvcruntime:undname.obj
 0002:00002e00       ??_C@_0BA@KBCDOMBN@?$GAudt?5returning?8@ 000000018004de00     libvcruntime:undname.obj
 0002:00002e10       ??_C@_03KLGMFNMG@?$GAEH@   000000018004de10     libvcruntime:undname.obj
 0002:00002e14       ??_C@_05KHLCHHI@?$GARTTI@  000000018004de14     libvcruntime:undname.obj
 0002:00002e20       ??_C@_0BA@KKLDJDLB@?$GAlocal?5vftable?8@ 000000018004de20     libvcruntime:undname.obj
 0002:00002e30       ??_C@_0CE@IIHCMGGL@?$GAlocal?5vftable?5constructor?5clos@ 000000018004de30     libvcruntime:undname.obj
 0002:00002e54       ??_C@_06FHBGPFGH@?5new?$FL?$FN@ 000000018004de54     libvcruntime:undname.obj
 0002:00002e60       ??_C@_09LBNFPBCA@?5delete?$FL?$FN@ 000000018004de60     libvcruntime:undname.obj
 0002:00002e70       ??_C@_0P@HJKNJFNN@?$GAomni?5callsig?8@ 000000018004de70     libvcruntime:undname.obj
 0002:00002e80       ??_C@_0BL@CNOONJFP@?$GAplacement?5delete?5closure?8@ 000000018004de80     libvcruntime:undname.obj
 0002:00002ea0       ??_C@_0BN@CKNJLHMB@?$GAplacement?5delete?$FL?$FN?5closure?8@ 000000018004dea0     libvcruntime:undname.obj
 0002:00002ec0       ??_C@_0CG@CFDHKGGD@?$GAmanaged?5vector?5constructor?5ite@ 000000018004dec0     libvcruntime:undname.obj
 0002:00002ee8       ??_C@_0CF@IMGKMJNO@?$GAmanaged?5vector?5destructor?5iter@ 000000018004dee8     libvcruntime:undname.obj
 0002:00002f10       ??_C@_0CG@HLDDJMAG@?$GAeh?5vector?5copy?5constructor?5ite@ 000000018004df10     libvcruntime:undname.obj
 0002:00002f38       ??_C@_0CM@FCBBDIGB@?$GAeh?5vector?5vbase?5copy?5construct@ 000000018004df38     libvcruntime:undname.obj
 0002:00002f68       ??_C@_0BL@CLIPGLGB@?$GAdynamic?5initializer?5for?5?8@ 000000018004df68     libvcruntime:undname.obj
 0002:00002f88       ??_C@_0CB@PDBIFEP@?$GAdynamic?5atexit?5destructor?5for?5@ 000000018004df88     libvcruntime:undname.obj
 0002:00002fb0       ??_C@_0CD@CGAJBKEJ@?$GAvector?5copy?5constructor?5iterat@ 000000018004dfb0     libvcruntime:undname.obj
 0002:00002fd8       ??_C@_0CJ@GJELGAMM@?$GAvector?5vbase?5copy?5constructor?5@ 000000018004dfd8     libvcruntime:undname.obj
 0002:00003008       ??_C@_0CL@FGIJHLCE@?$GAmanaged?5vector?5copy?5constructo@ 000000018004e008     libvcruntime:undname.obj
 0002:00003038       ??_C@_0BM@PMGGMLDN@?$GAlocal?5static?5thread?5guard?8@ 000000018004e038     libvcruntime:undname.obj
 0002:00003058       ??_C@_0N@BDNMDMOL@operator?5?$CC?$CC?5@ 000000018004e058     libvcruntime:undname.obj
 0002:00003068       ??_C@_0BC@GGEBGALA@operator?5co_await@ 000000018004e068     libvcruntime:undname.obj
 0002:00003080       ??_C@_0M@GAAIMMOH@operator?$DM?$DN?$DO@ 000000018004e080     libvcruntime:undname.obj
 0002:00003090       ??_C@_0BC@DAFEJGAK@?5Type?5Descriptor?8@ 000000018004e090     libvcruntime:undname.obj
 0002:000030a8       ??_C@_0BM@LDKODKLH@?5Base?5Class?5Descriptor?5at?5?$CI@ 000000018004e0a8     libvcruntime:undname.obj
 0002:000030c8       ??_C@_0BD@LGICGFMM@?5Base?5Class?5Array?8@ 000000018004e0c8     libvcruntime:undname.obj
 0002:000030e0       ??_C@_0BN@MECKDCOJ@?5Class?5Hierarchy?5Descriptor?8@ 000000018004e0e0     libvcruntime:undname.obj
 0002:00003100       ??_C@_0BK@CFCOFLF@?5Complete?5Object?5Locator?8@ 000000018004e100     libvcruntime:undname.obj
 0002:00003120       ??_C@_0BG@JNJLAMPM@?$GAanonymous?5namespace?8@ 000000018004e120     libvcruntime:undname.obj
 0002:00003138       ??_C@_04HEJADOOB@CV?3?5@   000000018004e138     libvcruntime:undname.obj
 0002:00003140       ??_C@_02MOLJINC@?3?3@      000000018004e140     libvcruntime:undname.obj
 0002:00003148       ??_C@_0BE@JAEOCHPE@template?9parameter?9@ 000000018004e148     libvcruntime:undname.obj
 0002:00003160       ??_C@_0BF@LNLGBBNL@?$GAtemplate?9parameter?9@ 000000018004e160     libvcruntime:undname.obj
 0002:00003178       ??_C@_0O@KHGCOMHP@generic?9type?9@ 000000018004e178     libvcruntime:undname.obj
 0002:00003188       ??_C@_0P@ODDENDLM@?$GAgeneric?9type?9@ 000000018004e188     libvcruntime:undname.obj
 0002:00003198       ??_C@_02OHHJMEON@?8?8@     000000018004e198     libvcruntime:undname.obj
 0002:000031a0       ??_C@_0BN@IBLMMFAP@?$GAnon?9type?9template?9parameter@ 000000018004e1a0     libvcruntime:undname.obj
 0002:000031c0       ??_C@_03DLDNIBIK@?$CFlf@   000000018004e1c0     libvcruntime:undname.obj
 0002:000031c4       ??_C@_04OFALKAJ@?$DP?$DP_C@ 000000018004e1c4     libvcruntime:undname.obj
 0002:000031cc       ??_C@_03KHICJKCI@?4?4?4@   000000018004e1cc     libvcruntime:undname.obj
 0002:000031d0       ??_C@_04HIBGFPH@NULL@      000000018004e1d0     libvcruntime:undname.obj
 0002:000031d8       ??_C@_02DPKJAMEF@?$CFd@    000000018004e1d8     libvcruntime:undname.obj
 0002:000031e0       ??_C@_0BK@IHCCFNEL@?$GAtemplate?9type?9parameter?9@ 000000018004e1e0     libvcruntime:undname.obj
 0002:00003200       ??_C@_0BK@OFCNNNKO@?$GAgeneric?9class?9parameter?9@ 000000018004e200     libvcruntime:undname.obj
 0002:00003220       ??_C@_0BL@NGJBLFIL@?$GAgeneric?9method?9parameter?9@ 000000018004e220     libvcruntime:undname.obj
 0002:00003240       ??_C@_07OHNGEDJK@nullptr@  000000018004e240     libvcruntime:undname.obj
 0002:00003248       ??_C@_06COJIGPIB@lambda@   000000018004e248     libvcruntime:undname.obj
 0002:00003250       ??_C@_04GKJNKENE@void@     000000018004e250     libvcruntime:undname.obj
 0002:00003258       ??_C@_0BE@EODMJLIF@?$GAtemplate?9parameter@ 000000018004e258     libvcruntime:undname.obj
 0002:0000326c       ??_C@_03OPGICMGF@?$HN?8?5@ 000000018004e26c     libvcruntime:undname.obj
 0002:00003270       ??_C@_02IGFCGPIL@?$HN?8@   000000018004e270     libvcruntime:undname.obj
 0002:00003278       ??_C@_0N@CBHHHENL@?$GAvtordispex?$HL@ 000000018004e278     libvcruntime:undname.obj
 0002:00003288       ??_C@_0L@GHPFDFH@?$GAvtordisp?$HL@ 000000018004e288     libvcruntime:undname.obj
 0002:00003298       ??_C@_0L@HNGCOGAE@?$GAadjustor?$HL@ 000000018004e298     libvcruntime:undname.obj
 0002:000032a8       ??_C@_0CB@KJDOOODE@?$GAlocal?5static?5destructor?5helper@ 000000018004e2a8     libvcruntime:undname.obj
 0002:000032d0       ??_C@_0DB@ILEFOCIJ@?$GAtemplate?5static?5data?5member?5co@ 000000018004e2d0     libvcruntime:undname.obj
 0002:00003308       ??_C@_0DA@HGFJFBBE@?$GAtemplate?5static?5data?5member?5de@ 000000018004e308     libvcruntime:undname.obj
 0002:00003338       ??_C@_07PGOEDBHP@static?5@ 000000018004e338     libvcruntime:undname.obj
 0002:00003340       ??_C@_08NIEOINHE@virtual?5@ 000000018004e340     libvcruntime:undname.obj
 0002:00003350       ??_C@_09LAPHOOG@private?3?5@ 000000018004e350     libvcruntime:undname.obj
 0002:00003360       ??_C@_0M@GAIFPFIP@protected?3?5@ 000000018004e360     libvcruntime:undname.obj
 0002:00003370       ??_C@_08GPDDCMKI@public?3?5@ 000000018004e370     libvcruntime:undname.obj
 0002:00003380       ??_C@_08KJLFOPNE@?$FLthunk?$FN?3@ 000000018004e380     libvcruntime:undname.obj
 0002:00003390       ??_C@_0M@DHNBOJMP@extern?5?$CCC?$CC?5@ 000000018004e390     libvcruntime:undname.obj
 0002:0000339c       ??_C@_02KCKGHPCA@?$CJ?5@   000000018004e39c     libvcruntime:undname.obj
 0002:000033a0       ??_C@_05CIHEBHNO@char?5@   000000018004e3a0     libvcruntime:undname.obj
 0002:000033a8       ??_C@_06EHJMALKF@short?5@  000000018004e3a8     libvcruntime:undname.obj
 0002:000033b0       ??_C@_04LAHKHJMA@int?5@    000000018004e3b0     libvcruntime:undname.obj
 0002:000033b8       ??_C@_05CJIMAING@long?5@   000000018004e3b8     libvcruntime:undname.obj
 0002:000033c0       ??_C@_09EBBEKKIH@unsigned?5@ 000000018004e3c0     libvcruntime:undname.obj
 0002:000033cc       ??_C@_05BEFAKPML@void?5@   000000018004e3cc     libvcruntime:undname.obj
 0002:000033d8       ??_C@_09GAIEOBLP@volatile?5@ 000000018004e3d8     libvcruntime:undname.obj
 0002:000033e8       ??_C@_08PABEKFH@volatile@  000000018004e3e8     libvcruntime:undname.obj
 0002:000033f8       ??_C@_0BA@LKIJLKPP@std?3?3nullptr_t?5@ 000000018004e3f8     libvcruntime:undname.obj
 0002:00003408       ??_C@_0P@GCOCNKDM@std?3?3nullptr_t@ 000000018004e408     libvcruntime:undname.obj
 0002:00003418       ??_C@_0L@EGPHHEKN@?$DMellipsis?$DO@ 000000018004e418     libvcruntime:undname.obj
 0002:00003424       ??_C@_04EENFHACM@?0?4?4?4@ 000000018004e424     libvcruntime:undname.obj
 0002:00003430       ??_C@_0M@ELJOJFFH@?0?$DMellipsis?$DO@ 000000018004e430     libvcruntime:undname.obj
 0002:00003440       ??_C@_09DNHFEOJI@?5noexcept@ 000000018004e440     libvcruntime:undname.obj
 0002:0000344c       ??_C@_03PBJBJNON@cpu@      000000018004e44c     libvcruntime:undname.obj
 0002:00003450       ??_C@_03DCBBJBAA@amp@      000000018004e450     libvcruntime:undname.obj
 0002:00003454       ??_C@_02KEGNLNML@?0?5@     000000018004e454     libvcruntime:undname.obj
 0002:00003458       ??_C@_04ENMBGAPA@char@     000000018004e458     libvcruntime:undname.obj
 0002:00003460       ??_C@_05BFKKPKCG@short@    000000018004e460     libvcruntime:undname.obj
 0002:00003468       ??_C@_03JBIPMCLC@int@      000000018004e468     libvcruntime:undname.obj
 0002:0000346c       ??_C@_04GOKPGOLB@long@     000000018004e46c     libvcruntime:undname.obj
 0002:00003474       ??_C@_05KNFBNCOH@float@    000000018004e474     libvcruntime:undname.obj
 0002:0000347c       ??_C@_06BNJCAIGJ@double@   000000018004e47c     libvcruntime:undname.obj
 0002:00003484       ??_C@_04DDKJGDCM@bool@     000000018004e484     libvcruntime:undname.obj
 0002:0000348c       ??_C@_06EBGKOKIG@__int8@   000000018004e48c     libvcruntime:undname.obj
 0002:00003498       ??_C@_07ICFHOGAF@__int16@  000000018004e498     libvcruntime:undname.obj
 0002:000034a0       ??_C@_07OFLPPHGP@__int32@  000000018004e4a0     libvcruntime:undname.obj
 0002:000034a8       ??_C@_07LFCOJCAC@__int64@  000000018004e4a8     libvcruntime:undname.obj
 0002:000034b0       ??_C@_08GAHOLHEO@__int128@ 000000018004e4b0     libvcruntime:undname.obj
 0002:000034c0       ??_C@_09EEKGDCPH@?$DMunknown?$DO@ 000000018004e4c0     libvcruntime:undname.obj
 0002:000034d0       ??_C@_07CFHGOPCN@char8_t@  000000018004e4d0     libvcruntime:undname.obj
 0002:000034d8       ??_C@_08HBIPOFJB@char16_t@ 000000018004e4d8     libvcruntime:undname.obj
 0002:000034e8       ??_C@_08IECNCBKG@char32_t@ 000000018004e4e8     libvcruntime:undname.obj
 0002:000034f8       ??_C@_07CLGGIAMF@wchar_t@  000000018004e4f8     libvcruntime:undname.obj
 0002:00003500       ??_C@_04HAPDLBFF@auto@     000000018004e500     libvcruntime:undname.obj
 0002:00003508       ??_C@_0P@LHCGKIGK@decltype?$CIauto?$CJ@ 000000018004e508     libvcruntime:undname.obj
 0002:00003518       ??_C@_05PCNBGHCF@this?5@   000000018004e518     libvcruntime:undname.obj
 0002:00003520       ??_C@_06GCICPBLB@__w64?5@  000000018004e520     libvcruntime:undname.obj
 0002:00003528       ??_C@_07NFANNNEC@UNKNOWN@  000000018004e528     libvcruntime:undname.obj
 0002:00003530       ??_C@_07EDHNAJHC@signed?5@ 000000018004e530     libvcruntime:undname.obj
 0002:00003538       ??_C@_05BNCCCJPP@const@    000000018004e538     libvcruntime:undname.obj
 0002:00003540       ??_C@_09EFNPDFFP@?5volatile@ 000000018004e540     libvcruntime:undname.obj
 0002:00003550       ??_C@_0P@GCIFDJCJ@?$GAunknown?5ecsu?8@ 000000018004e550     libvcruntime:undname.obj
 0002:00003560       ??_C@_06MOJHIBMG@union?5@  000000018004e560     libvcruntime:undname.obj
 0002:00003568       ??_C@_07DIBCDNGL@struct?5@ 000000018004e568     libvcruntime:undname.obj
 0002:00003570       ??_C@_06LJBABKPM@class?5@  000000018004e570     libvcruntime:undname.obj
 0002:00003578       ??_C@_08KOFANOFK@coclass?5@ 000000018004e578     libvcruntime:undname.obj
 0002:00003588       ??_C@_0N@DLIEFKNA@cointerface?5@ 000000018004e588     libvcruntime:undname.obj
 0002:00003598       ??_C@_05LJGMCFOG@enum?5@   000000018004e598     libvcruntime:undname.obj
 0002:000035a0       ??_C@_06LIJLOJAG@const?5@  000000018004e5a0     libvcruntime:undname.obj
 0002:000035a8       ??_C@_02KJPKDIBN@?$CG?5@   000000018004e5a8     libvcruntime:undname.obj
 0002:000035ac       ??_C@_03PCKGMOPB@?$CG?$CG?5@ 000000018004e5ac     libvcruntime:undname.obj
 0002:000035b0       ??_C@_0M@EALIELKG@cli?3?3array?$DM@ 000000018004e5b0     libvcruntime:undname.obj
 0002:000035c0       ??_C@_0O@GKABPPIF@cli?3?3pin_ptr?$DM@ 000000018004e5c0     libvcruntime:undname.obj
 0002:000035d0       ??_C@_02GOGNNPBN@?$CJ?$FL@ 000000018004e5d0     libvcruntime:undname.obj
 0002:000035d4       ??_C@_06EEGAIFAK@?$HLflat?$HN@ 000000018004e5d4     libvcruntime:undname.obj
 0002:000035dc       ??_C@_05JIBOFOHK@?$HLfor?5@ 000000018004e5dc     libvcruntime:undname.obj
 0002:000035e4       ??_C@_02MDINNEEG@s?5@      000000018004e5e4     libvcruntime:undname.obj
 0002:000035f0       ??_7DNameNode@@6B@         000000018004e5f0     libvcruntime:undname.obj
 0002:00003618       ??_7charNode@@6B@          000000018004e618     libvcruntime:undname.obj
 0002:00003640       ??_7pcharNode@@6B@         000000018004e640     libvcruntime:undname.obj
 0002:00003668       ??_7pDNameNode@@6B@        000000018004e668     libvcruntime:undname.obj
 0002:00003690       ??_7DNameStatusNode@@6B@   000000018004e690     libvcruntime:undname.obj
 0002:000036b8       ??_7pairNode@@6B@          000000018004e6b8     libvcruntime:undname.obj
 0002:000037e0       ??_C@_04OKOHEJBO@?5?$DP?$DP?5@ 000000018004e7e0     libvcruntime:undname.obj
 0002:000037f0       ?nodes@?1??make@DNameStatusNode@@SAPEBV2@W4DNameStatus@@@Z@4QBV2@B 000000018004e7f0     libvcruntime:undname.obj
 0002:00003830       ?s_negLengthTab@FH4@@3QBCB 000000018004e830     libvcruntime:risctrnsctrl.obj
 0002:00003840       ?s_shiftTab@FH4@@3QBEB     000000018004e840     libvcruntime:risctrnsctrl.obj
 0002:000039a0       ??_C@_1DM@KHCHBNEB@?$AAa?$AAp?$AAi?$AA?9?$AAm?$AAs?$AA?9?$AAw?$AAi?$AAn?$AA?9?$AAc?$AAo?$AAr?$AAe@ 000000018004e9a0     libvcruntime:winapi_downlevel.obj
 0002:000039e0       ??_C@_1DK@LPPGFMPP@?$AAa?$AAp?$AAi?$AA?9?$AAm?$AAs?$AA?9?$AAw?$AAi?$AAn?$AA?9?$AAc?$AAo?$AAr?$AAe@ 000000018004e9e0     libvcruntime:winapi_downlevel.obj
 0002:00003a20       ??_C@_1BC@GDMECMAK@?$AAk?$AAe?$AAr?$AAn?$AAe?$AAl?$AA3?$AA2@ 000000018004ea20     libvcruntime:winapi_downlevel.obj
 0002:00003a38       ??_C@_1BA@PFFKHIOG@?$AAa?$AAp?$AAi?$AA?9?$AAm?$AAs?$AA?9@ 000000018004ea38     libvcruntime:winapi_downlevel.obj
 0002:00003a50       ??_C@_08KNHFBNJ@FlsAlloc@  000000018004ea50     libvcruntime:winapi_downlevel.obj
 0002:00003a68       ??_C@_07PEJMOBNF@FlsFree@  000000018004ea68     libvcruntime:winapi_downlevel.obj
 0002:00003a78       ??_C@_0M@GDNOONDI@FlsGetValue@ 000000018004ea78     libvcruntime:winapi_downlevel.obj
 0002:00003a90       ??_C@_0M@JCPCPOEF@FlsSetValue@ 000000018004ea90     libvcruntime:winapi_downlevel.obj
 0002:00003aa8       ??_C@_0BM@HCFOFFN@InitializeCriticalSectionEx@ 000000018004eaa8     libvcruntime:winapi_downlevel.obj
 0002:00003ad0       ??_7exception@std@@6B@     000000018004ead0     libvcruntime:frame.obj
 0002:00003ae0       ??_C@_0BC@EOODALEL@Unknown?5exception@ 000000018004eae0     libvcruntime:frame.obj
 0002:00003b00       ??_7bad_exception@std@@6B@ 000000018004eb00     libvcruntime:frame.obj
 0002:00003b10       ??_C@_0O@DPKOEFFH@bad?5exception@ 000000018004eb10     libvcruntime:frame.obj
 0002:000042a8       __real@3f1a36e2eb1c432d    000000018004f2a8     libucrt:atan2f.obj
 0002:000042b0       __real@3f490fdb            000000018004f2b0     libucrt:atan2f.obj
 0002:000042b8       __real@3fb0000000000000    000000018004f2b8     libucrt:atan2f.obj
 0002:000042c0       __real@3fc2492482bd6be1    000000018004f2c0     libucrt:atan2f.obj
 0002:000042c8       __real@3fc90fdb            000000018004f2c8     libucrt:atan2f.obj
 0002:000042d0       __real@3fc99999999643a3    000000018004f2d0     libucrt:atan2f.obj
 0002:000042d8       __real@3fd5555555550877    000000018004f2d8     libucrt:atan2f.obj
 0002:000042e0       __real@3fd5555555555538    000000018004f2e0     libucrt:atan2f.obj
 0002:000042e8       __real@3ff921fb54442d18    000000018004f2e8     libucrt:atan2f.obj
 0002:000042f0       __real@400921fb54442d18    000000018004f2f0     libucrt:atan2f.obj
 0002:000042f8       __real@4016cbe4            000000018004f2f8     libucrt:atan2f.obj
 0002:000042fc       __real@40490fdb            000000018004f2fc     libucrt:atan2f.obj
 0002:00004300       __real@4070000000000000    000000018004f300     libucrt:atan2f.obj
 0002:00004308       __real@80000000            000000018004f308     libucrt:atan2f.obj
 0002:0000430c       __real@bf490fdb            000000018004f30c     libucrt:atan2f.obj
 0002:00004310       __real@bfc90fdb            000000018004f310     libucrt:atan2f.obj
 0002:00004314       __real@c016cbe4            000000018004f314     libucrt:atan2f.obj
 0002:00004318       __real@c0490fdb            000000018004f318     libucrt:atan2f.obj
 0002:00004570       __acrt_exception_action_table 000000018004f570     libucrt:exception_filter.obj
 0002:00004630       __acrt_signal_action_table_count 000000018004f630     libucrt:exception_filter.obj
 0002:00004638       __acrt_signal_action_first_fpe_index 000000018004f638     libucrt:exception_filter.obj
 0002:00004640       __acrt_signal_action_fpe_count 000000018004f640     libucrt:exception_filter.obj
 0002:00004698       ??_C@_1BI@BGOHAHKC@?$AAm?$AAs?$AAc?$AAo?$AAr?$AAe?$AAe?$AA?4?$AAd?$AAl?$AAl@ 000000018004f698     libucrt:exit.obj
 0002:000046b0       ??_C@_0P@MIGLKIOC@CorExitProcess@ 000000018004f6b0     libucrt:exit.obj
 0002:00004810       ?standard_lookup_table_spectre@__crt_stdio_output@@3V?$spectre_mitigated_lookup_table@Ustate_transition_pair@__crt_stdio_output@@$0IA@@1@B 000000018004f810     libucrt:output.obj
 0002:00004910       ?format_validation_lookup_table_spectre@__crt_stdio_output@@3V?$spectre_mitigated_lookup_table@Ustate_transition_pair@__crt_stdio_output@@$0IA@@1@B 000000018004f910     libucrt:output.obj
 0002:00004a10       ??_C@_1O@CEDCILHN@?$AA?$CI?$AAn?$AAu?$AAl?$AAl?$AA?$CJ@ 000000018004fa10     libucrt:output.obj
 0002:00004a20       ??_C@_06OJHGLDPL@?$CInull?$CJ@ 000000018004fa20     libucrt:output.obj
 0002:00004ba0       ??_C@_04LAGPAAHP@sinf@     000000018004fba0     libucrt:sincos_special.obj
 0002:00004ba8       ??_C@_04OBBKPIAC@cosf@     000000018004fba8     libucrt:sincos_special.obj
 0002:00004bb0       __Lcosfarray               000000018004fbb0     libucrt:lsincosf_array.obj
 0002:00004be0       __Lsinfarray               000000018004fbe0     libucrt:lsincosf_array.obj
 0002:00004c00       __L_2_by_pi_bits           000000018004fc00     libucrt:l2_by_pi_bits.obj
 0002:00004ed8       ??_C@_1M@HPNHIDJI@?$AAj?$AAa?$AA?9?$AAJ?$AAP@ 000000018004fed8     libucrt:mbctype.obj
 0002:00004ee8       ??_C@_1M@BIBDDEMK@?$AAz?$AAh?$AA?9?$AAC?$AAN@ 000000018004fee8     libucrt:mbctype.obj
 0002:00004ef8       ??_C@_1M@JLOOOEGK@?$AAk?$AAo?$AA?9?$AAK?$AAR@ 000000018004fef8     libucrt:mbctype.obj
 0002:00004f08       ??_C@_1M@CLNBBOPM@?$AAz?$AAh?$AA?9?$AAT?$AAW@ 000000018004ff08     libucrt:mbctype.obj
 0002:00004fd0       ??_C@_1EA@JGEFHKEI@?$AAa?$AAp?$AAi?$AA?9?$AAm?$AAs?$AA?9?$AAw?$AAi?$AAn?$AA?9?$AAc?$AAo?$AAr?$AAe@ 000000018004ffd0     libucrt:winapi_thunks.obj
 0002:00005010       ??_C@_1DI@KMEPCBPN@?$AAa?$AAp?$AAi?$AA?9?$AAm?$AAs?$AA?9?$AAw?$AAi?$AAn?$AA?9?$AAc?$AAo?$AAr?$AAe@ 0000000180050010     libucrt:winapi_thunks.obj
 0002:00005048       ??_C@_1DI@IJCEHOCB@?$AAa?$AAp?$AAi?$AA?9?$AAm?$AAs?$AA?9?$AAw?$AAi?$AAn?$AA?9?$AAc?$AAo?$AAr?$AAe@ 0000000180050048     libucrt:winapi_thunks.obj
 0002:00005080       ??_C@_1EI@MPIAOHOC@?$AAa?$AAp?$AAi?$AA?9?$AAm?$AAs?$AA?9?$AAw?$AAi?$AAn?$AA?9?$AAc?$AAo?$AAr?$AAe@ 0000000180050080     libucrt:winapi_thunks.obj
 0002:000050d0       ??_C@_1FK@FPHCKFIE@?$AAa?$AAp?$AAi?$AA?9?$AAm?$AAs?$AA?9?$AAw?$AAi?$AAn?$AA?9?$AAc?$AAo?$AAr?$AAe@ 00000001800500d0     libucrt:winapi_thunks.obj
 0002:00005130       ??_C@_1EM@DILCGIIO@?$AAa?$AAp?$AAi?$AA?9?$AAm?$AAs?$AA?9?$AAw?$AAi?$AAn?$AA?9?$AAc?$AAo?$AAr?$AAe@ 0000000180050130     libucrt:winapi_thunks.obj
 0002:00005180       ??_C@_1DM@LNCGDDPN@?$AAa?$AAp?$AAi?$AA?9?$AAm?$AAs?$AA?9?$AAw?$AAi?$AAn?$AA?9?$AAc?$AAo?$AAr?$AAe@ 0000000180050180     libucrt:winapi_thunks.obj
 0002:000051c0       ??_C@_1DO@FPAPJEMD@?$AAa?$AAp?$AAi?$AA?9?$AAm?$AAs?$AA?9?$AAw?$AAi?$AAn?$AA?9?$AAc?$AAo?$AAr?$AAe@ 00000001800501c0     libucrt:winapi_thunks.obj
 0002:00005200       ??_C@_1DK@NDHNAHIO@?$AAa?$AAp?$AAi?$AA?9?$AAm?$AAs?$AA?9?$AAw?$AAi?$AAn?$AA?9?$AAc?$AAo?$AAr?$AAe@ 0000000180050200     libucrt:winapi_thunks.obj
 0002:00005240       ??_C@_1DM@KGHDGBCM@?$AAa?$AAp?$AAi?$AA?9?$AAm?$AAs?$AA?9?$AAw?$AAi?$AAn?$AA?9?$AAc?$AAo?$AAr?$AAe@ 0000000180050240     libucrt:winapi_thunks.obj
 0002:00005280       ??_C@_1EO@IJIOEFOH@?$AAa?$AAp?$AAi?$AA?9?$AAm?$AAs?$AA?9?$AAw?$AAi?$AAn?$AA?9?$AAr?$AAt?$AAc?$AAo@ 0000000180050280     libucrt:winapi_thunks.obj
 0002:000052d0       ??_C@_1FG@HHGEKANL@?$AAa?$AAp?$AAi?$AA?9?$AAm?$AAs?$AA?9?$AAw?$AAi?$AAn?$AA?9?$AAs?$AAe?$AAc?$AAu@ 00000001800502d0     libucrt:winapi_thunks.obj
 0002:00005330       ??_C@_1EG@DBIOJECG@?$AAe?$AAx?$AAt?$AA?9?$AAm?$AAs?$AA?9?$AAw?$AAi?$AAn?$AA?9?$AAn?$AAt?$AAu?$AAs@ 0000000180050330     libucrt:winapi_thunks.obj
 0002:00005380       ??_C@_1EO@FIHMJCLF@?$AAe?$AAx?$AAt?$AA?9?$AAm?$AAs?$AA?9?$AAw?$AAi?$AAn?$AA?9?$AAn?$AAt?$AAu?$AAs@ 0000000180050380     libucrt:winapi_thunks.obj
 0002:000053d0       ??_C@_1BC@DNHGCMLG@?$AAa?$AAd?$AAv?$AAa?$AAp?$AAi?$AA3?$AA2@ 00000001800503d0     libucrt:winapi_thunks.obj
 0002:000053e8       ??_C@_1BG@CJPGBMEF@?$AAk?$AAe?$AAr?$AAn?$AAe?$AAl?$AAb?$AAa?$AAs?$AAe@ 00000001800503e8     libucrt:winapi_thunks.obj
 0002:00005400       ??_C@_1M@OAIMIKLP@?$AAn?$AAt?$AAd?$AAl?$AAl@ 0000000180050400     libucrt:winapi_thunks.obj
 0002:00005410       ??_C@_1EG@DPGNFKGC@?$AAa?$AAp?$AAi?$AA?9?$AAm?$AAs?$AA?9?$AAw?$AAi?$AAn?$AA?9?$AAa?$AAp?$AAp?$AAm@ 0000000180050410     libucrt:winapi_thunks.obj
 0002:00005458       ??_C@_1O@BCCLBEOE@?$AAu?$AAs?$AAe?$AAr?$AA3?$AA2@ 0000000180050458     libucrt:winapi_thunks.obj
 0002:00005468       ??_C@_1BA@IAIFMGEF@?$AAe?$AAx?$AAt?$AA?9?$AAm?$AAs?$AA?9@ 0000000180050468     libucrt:winapi_thunks.obj
 0002:00005480       ??_C@_0BA@FHFNEAED@AreFileApisANSI@ 0000000180050480     libucrt:winapi_thunks.obj
 0002:000054a0       ??_C@_0O@KKBNKAPF@LCMapStringEx@ 00000001800504a0     libucrt:winapi_thunks.obj
 0002:000054b8       ??_C@_0BB@HBDEELFH@LocaleNameToLCID@ 00000001800504b8     libucrt:winapi_thunks.obj
 0002:000054d0       ??_C@_0CF@OJOFEIGO@AppPolicyGetProcessTerminationM@ 00000001800504d0     libucrt:winapi_thunks.obj
 0002:00005500       __lc_time_c                0000000180050500     libucrt:nlsdata.obj
 0002:000057c0       ??_C@_03KOEHGMDN@Sun@      00000001800507c0     libucrt:nlsdata.obj
 0002:000057c4       ??_C@_03PDAGKDH@Mon@       00000001800507c4     libucrt:nlsdata.obj
 0002:000057c8       ??_C@_03NAGEINEP@Tue@      00000001800507c8     libucrt:nlsdata.obj
 0002:000057cc       ??_C@_03MHOMLAJA@Wed@      00000001800507cc     libucrt:nlsdata.obj
 0002:000057d0       ??_C@_03IOFIKPDN@Thu@      00000001800507d0     libucrt:nlsdata.obj
 0002:000057d4       ??_C@_03IDIOELNC@Fri@      00000001800507d4     libucrt:nlsdata.obj
 0002:000057d8       ??_C@_03FEFJNEK@Sat@       00000001800507d8     libucrt:nlsdata.obj
 0002:000057dc       ??_C@_06OOPIFAJ@Sunday@    00000001800507dc     libucrt:nlsdata.obj
 0002:000057e4       ??_C@_06JLEDEDGH@Monday@   00000001800507e4     libucrt:nlsdata.obj
 0002:000057f0       ??_C@_07BAAGCFCM@Tuesday@  00000001800507f0     libucrt:nlsdata.obj
 0002:000057f8       ??_C@_09DLIGFAKA@Wednesday@ 00000001800507f8     libucrt:nlsdata.obj
 0002:00005808       ??_C@_08HACCIKIA@Thursday@ 0000000180050808     libucrt:nlsdata.obj
 0002:00005814       ??_C@_06JECMNKMI@Friday@   0000000180050814     libucrt:nlsdata.obj
 0002:00005820       ??_C@_08INBOOONO@Saturday@ 0000000180050820     libucrt:nlsdata.obj
 0002:0000582c       ??_C@_03JIHJHPIE@Jan@      000000018005082c     libucrt:nlsdata.obj
 0002:00005830       ??_C@_03HJBDCHOM@Feb@      0000000180050830     libucrt:nlsdata.obj
 0002:00005834       ??_C@_03ODNJBKGA@Mar@      0000000180050834     libucrt:nlsdata.obj
 0002:00005838       ??_C@_03LEOLGMJP@Apr@      0000000180050838     libucrt:nlsdata.obj
 0002:0000583c       ??_C@_03CNMDKL@May@        000000018005083c     libucrt:nlsdata.obj
 0002:00005840       ??_C@_03IDFGHECI@Jun@      0000000180050840     libucrt:nlsdata.obj
 0002:00005844       ??_C@_03LBGABGKK@Jul@      0000000180050844     libucrt:nlsdata.obj
 0002:00005848       ??_C@_03IFJFEIGA@Aug@      0000000180050848     libucrt:nlsdata.obj
 0002:0000584c       ??_C@_03GGCAPAJC@Sep@      000000018005084c     libucrt:nlsdata.obj
 0002:00005850       ??_C@_03BMAOKBAD@Oct@      0000000180050850     libucrt:nlsdata.obj
 0002:00005854       ??_C@_03JPJOFNIA@Nov@      0000000180050854     libucrt:nlsdata.obj
 0002:00005858       ??_C@_03MKABNOCG@Dec@      0000000180050858     libucrt:nlsdata.obj
 0002:00005860       ??_C@_07CGJPFGJA@January@  0000000180050860     libucrt:nlsdata.obj
 0002:00005868       ??_C@_08GNJGEPFN@February@ 0000000180050868     libucrt:nlsdata.obj
 0002:00005874       ??_C@_05HPCKOFNC@March@    0000000180050874     libucrt:nlsdata.obj
 0002:0000587c       ??_C@_05DMJDNLEJ@April@    000000018005087c     libucrt:nlsdata.obj
 0002:00005884       ??_C@_04CNLMGBGM@June@     0000000180050884     libucrt:nlsdata.obj
 0002:0000588c       ??_C@_04MIEPOIFP@July@     000000018005088c     libucrt:nlsdata.obj
 0002:00005894       ??_C@_06LBBHFDDG@August@   0000000180050894     libucrt:nlsdata.obj
 0002:000058a0       ??_C@_09BHHEALKD@September@ 00000001800508a0     libucrt:nlsdata.obj
 0002:000058b0       ??_C@_07JJNFCEND@October@  00000001800508b0     libucrt:nlsdata.obj
 0002:000058b8       ??_C@_08HCHEGEOA@November@ 00000001800508b8     libucrt:nlsdata.obj
 0002:000058c8       ??_C@_08EDHMEBNP@December@ 00000001800508c8     libucrt:nlsdata.obj
 0002:000058d4       ??_C@_02DEDBPAFC@AM@       00000001800508d4     libucrt:nlsdata.obj
 0002:000058d8       ??_C@_02CJNFDJBF@PM@       00000001800508d8     libucrt:nlsdata.obj
 0002:000058e0       ??_C@_08BPBNCDIB@MM?1dd?1yy@ 00000001800508e0     libucrt:nlsdata.obj
 0002:000058f0       ??_C@_0BE@CKGJFCPC@dddd?0?5MMMM?5dd?0?5yyyy@ 00000001800508f0     libucrt:nlsdata.obj
 0002:00005908       ??_C@_08JCCMCCIL@HH?3mm?3ss@ 0000000180050908     libucrt:nlsdata.obj
 0002:00005918       ??_C@_17MBGCMIPB@?$AAS?$AAu?$AAn@ 0000000180050918     libucrt:nlsdata.obj
 0002:00005920       ??_C@_17KBOMKBF@?$AAM?$AAo?$AAn@ 0000000180050920     libucrt:nlsdata.obj
 0002:00005928       ??_C@_17BMKGEGOJ@?$AAT?$AAu?$AAe@ 0000000180050928     libucrt:nlsdata.obj
 0002:00005930       ??_C@_17CJEDCEPE@?$AAW?$AAe?$AAd@ 0000000180050930     libucrt:nlsdata.obj
 0002:00005938       ??_C@_17PDPHAADD@?$AAT?$AAh?$AAu@ 0000000180050938     libucrt:nlsdata.obj
 0002:00005940       ??_C@_17HFOLPPLP@?$AAF?$AAr?$AAi@ 0000000180050940     libucrt:nlsdata.obj
 0002:00005948       ??_C@_17GGIBDPIH@?$AAS?$AAa?$AAt@ 0000000180050948     libucrt:nlsdata.obj
 0002:00005950       ??_C@_1O@IHNHDHPB@?$AAS?$AAu?$AAn?$AAd?$AAa?$AAy@ 0000000180050950     libucrt:nlsdata.obj
 0002:00005960       ??_C@_1O@MMNBFLIA@?$AAM?$AAo?$AAn?$AAd?$AAa?$AAy@ 0000000180050960     libucrt:nlsdata.obj
 0002:00005970       ??_C@_1BA@ENFBFFEK@?$AAT?$AAu?$AAe?$AAs?$AAd?$AAa?$AAy@ 0000000180050970     libucrt:nlsdata.obj
 0002:00005980       ??_C@_1BE@EBOGMDOH@?$AAW?$AAe?$AAd?$AAn?$AAe?$AAs?$AAd?$AAa?$AAy@ 0000000180050980     libucrt:nlsdata.obj
 0002:00005998       ??_C@_1BC@HHMNLIHE@?$AAT?$AAh?$AAu?$AAr?$AAs?$AAd?$AAa?$AAy@ 0000000180050998     libucrt:nlsdata.obj
 0002:000059b0       ??_C@_1O@PDICJHAG@?$AAF?$AAr?$AAi?$AAd?$AAa?$AAy@ 00000001800509b0     libucrt:nlsdata.obj
 0002:000059c0       ??_C@_1BC@ENMNNPAJ@?$AAS?$AAa?$AAt?$AAu?$AAr?$AAd?$AAa?$AAy@ 00000001800509c0     libucrt:nlsdata.obj
 0002:000059d8       ??_C@_17DKNBKCHM@?$AAJ?$AAa?$AAn@ 00000001800509d8     libucrt:nlsdata.obj
 0002:000059e0       ??_C@_17LMDJEKJN@?$AAF?$AAe?$AAb@ 00000001800509e0     libucrt:nlsdata.obj
 0002:000059e8       ??_C@_17CKNLEDEC@?$AAM?$AAa?$AAr@ 00000001800509e8     libucrt:nlsdata.obj
 0002:000059f0       ??_C@_17LFPOIHDD@?$AAA?$AAp?$AAr@ 00000001800509f0     libucrt:nlsdata.obj
 0002:000059f8       ??_C@_17PNNKMEED@?$AAM?$AAa?$AAy@ 00000001800509f8     libucrt:nlsdata.obj
 0002:00005a00       ??_C@_17KCJGOCPB@?$AAJ?$AAu?$AAn@ 0000000180050a00     libucrt:nlsdata.obj
 0002:00005a08       ??_C@_17IJPCKHK@?$AAJ?$AAu?$AAl@ 0000000180050a08     libucrt:nlsdata.obj
 0002:00005a10       ??_C@_17ICPELBCN@?$AAA?$AAu?$AAg@ 0000000180050a10     libucrt:nlsdata.obj
 0002:00005a18       ??_C@_17HCHCOKMG@?$AAS?$AAe?$AAp@ 0000000180050a18     libucrt:nlsdata.obj
 0002:00005a20       ??_C@_17FNLKOI@?$AAO?$AAc?$AAt@ 0000000180050a20     libucrt:nlsdata.obj
 0002:00005a28       ??_C@_17BBDMLCIG@?$AAN?$AAo?$AAv@ 0000000180050a28     libucrt:nlsdata.obj
 0002:00005a30       ??_C@_17EGKACKIF@?$AAD?$AAe?$AAc@ 0000000180050a30     libucrt:nlsdata.obj
 0002:00005a38       ??_C@_1BA@EFMEIEBA@?$AAJ?$AAa?$AAn?$AAu?$AAa?$AAr?$AAy@ 0000000180050a38     libucrt:nlsdata.obj
 0002:00005a48       ??_C@_1BC@JGDDFFAM@?$AAF?$AAe?$AAb?$AAr?$AAu?$AAa?$AAr?$AAy@ 0000000180050a48     libucrt:nlsdata.obj
 0002:00005a60       ??_C@_1M@IKEENEDF@?$AAM?$AAa?$AAr?$AAc?$AAh@ 0000000180050a60     libucrt:nlsdata.obj
 0002:00005a70       ??_C@_1M@GJNLMHFD@?$AAA?$AAp?$AAr?$AAi?$AAl@ 0000000180050a70     libucrt:nlsdata.obj
 0002:00005a80       ??_C@_19EPFLPGAP@?$AAJ?$AAu?$AAn?$AAe@ 0000000180050a80     libucrt:nlsdata.obj
 0002:00005a90       ??_C@_19BIFMLPCD@?$AAJ?$AAu?$AAl?$AAy@ 0000000180050a90     libucrt:nlsdata.obj
 0002:00005aa0       ??_C@_1O@PAHLKOAC@?$AAA?$AAu?$AAg?$AAu?$AAs?$AAt@ 0000000180050aa0     libucrt:nlsdata.obj
 0002:00005ab0       ??_C@_1BE@DKAAMBJL@?$AAS?$AAe?$AAp?$AAt?$AAe?$AAm?$AAb?$AAe?$AAr@ 0000000180050ab0     libucrt:nlsdata.obj
 0002:00005ac8       ??_C@_1BA@EPANDLNG@?$AAO?$AAc?$AAt?$AAo?$AAb?$AAe?$AAr@ 0000000180050ac8     libucrt:nlsdata.obj
 0002:00005ad8       ??_C@_1BC@BGLIFPF@?$AAN?$AAo?$AAv?$AAe?$AAm?$AAb?$AAe?$AAr@ 0000000180050ad8     libucrt:nlsdata.obj
 0002:00005af0       ??_C@_1BC@FEMKIFH@?$AAD?$AAe?$AAc?$AAe?$AAm?$AAb?$AAe?$AAr@ 0000000180050af0     libucrt:nlsdata.obj
 0002:00005b04       ??_C@_15ODEHAHHF@?$AAA?$AAM@ 0000000180050b04     libucrt:nlsdata.obj
 0002:00005b0c       ??_C@_15CLMNNGEL@?$AAP?$AAM@ 0000000180050b0c     libucrt:nlsdata.obj
 0002:00005b18       ??_C@_1BC@IEBCMHCM@?$AAM?$AAM?$AA?1?$AAd?$AAd?$AA?1?$AAy?$AAy@ 0000000180050b18     libucrt:nlsdata.obj
 0002:00005b30       ??_C@_1CI@KNAKOEBC@?$AAd?$AAd?$AAd?$AAd?$AA?0?$AA?5?$AAM?$AAM?$AAM?$AAM?$AA?5?$AAd?$AAd?$AA?0?$AA?5@ 0000000180050b30     libucrt:nlsdata.obj
 0002:00005b58       ??_C@_1BC@GDGBMEMK@?$AAH?$AAH?$AA?3?$AAm?$AAm?$AA?3?$AAs?$AAs@ 0000000180050b58     libucrt:nlsdata.obj
 0002:00005b70       ??_C@_1M@BMHNFIME@?$AAe?$AAn?$AA?9?$AAU?$AAS@ 0000000180050b70     libucrt:nlsdata.obj
 0002:00005c00       ??_C@_03OEIAHPBN@INF@      0000000180050c00     libucrt:cvt.obj
 0002:00005c04       ??_C@_03OJHLLCGB@inf@      0000000180050c04     libucrt:cvt.obj
 0002:00005c08       ??_C@_03LKNCIKJB@NAN@      0000000180050c08     libucrt:cvt.obj
 0002:00005c0c       ??_C@_03LHCJEHON@nan@      0000000180050c0c     libucrt:cvt.obj
 0002:00005c10       ??_C@_09OFJJIMPC@NAN?$CISNAN?$CJ@ 0000000180050c10     libucrt:cvt.obj
 0002:00005c20       ??_C@_09IPFBKMDL@nan?$CIsnan?$CJ@ 0000000180050c20     libucrt:cvt.obj
 0002:00005c30       ??_C@_08IKHNHAJ@NAN?$CIIND?$CJ@ 0000000180050c30     libucrt:cvt.obj
 0002:00005c40       ??_C@_08OFCDMILK@nan?$CIind?$CJ@ 0000000180050c40     libucrt:cvt.obj
 0002:00005c4c       ??_C@_05KLBDPFGC@e?$CL000@ 0000000180050c4c     libucrt:cvt.obj
 0002:00005c60       __newctype                 0000000180050c60     libucrt:ctype.obj
 0002:00005f60       __newclmap                 0000000180050f60     libucrt:ctype.obj
 0002:000060e0       __newcumap                 00000001800510e0     libucrt:ctype.obj
 0002:00006270       ??_C@_05HGHHAHAP@log10@    0000000180051270     libucrt:fpexcept.obj
 0002:000070c0       ??_C@_15EMKDOKLE@?$AAa?$AAr@ 00000001800520c0     libucrt:lcidtoname_downlevel.obj
 0002:000070c8       ??_C@_15KNPADPLH@?$AAb?$AAg@ 00000001800520c8     libucrt:lcidtoname_downlevel.obj
 0002:000070d0       ??_C@_15EDMHLDMO@?$AAc?$AAa@ 00000001800520d0     libucrt:lcidtoname_downlevel.obj
 0002:000070d8       ??_C@_1O@BPEAJADD@?$AAz?$AAh?$AA?9?$AAC?$AAH?$AAS@ 00000001800520d8     libucrt:lcidtoname_downlevel.obj
 0002:000070e8       ??_C@_15LJNHCMNK@?$AAc?$AAs@ 00000001800520e8     libucrt:lcidtoname_downlevel.obj
 0002:000070f0       ??_C@_15FOMCIDHG@?$AAd?$AAa@ 00000001800520f0     libucrt:lcidtoname_downlevel.obj
 0002:000070f8       ??_C@_15NBKABECB@?$AAd?$AAe@ 00000001800520f8     libucrt:lcidtoname_downlevel.obj
 0002:00007100       ??_C@_15GHPEIIAO@?$AAe?$AAl@ 0000000180052100     libucrt:lcidtoname_downlevel.obj
 0002:00007108       ??_C@_15MNPNEAIF@?$AAe?$AAn@ 0000000180052108     libucrt:lcidtoname_downlevel.obj
 0002:00007110       ??_C@_15GPIOMPMH@?$AAe?$AAs@ 0000000180052110     libucrt:lcidtoname_downlevel.obj
 0002:00007118       ??_C@_15NGLOAKJC@?$AAf?$AAi@ 0000000180052118     libucrt:lcidtoname_downlevel.obj
 0002:00007120       ??_C@_15FBKGNKAM@?$AAf?$AAr@ 0000000180052120     libucrt:lcidtoname_downlevel.obj
 0002:00007128       ??_C@_15KGGCNEFK@?$AAh?$AAe@ 0000000180052128     libucrt:lcidtoname_downlevel.obj
 0002:00007130       ??_C@_15PGHLIDMF@?$AAh?$AAu@ 0000000180052130     libucrt:lcidtoname_downlevel.obj
 0002:00007138       ??_C@_15BIEMAPLM@?$AAi?$AAs@ 0000000180052138     libucrt:lcidtoname_downlevel.obj
 0002:00007140       ??_C@_15IFJLDHAF@?$AAi?$AAt@ 0000000180052140     libucrt:lcidtoname_downlevel.obj
 0002:00007148       ??_C@_15GEMIOCAG@?$AAj?$AAa@ 0000000180052148     libucrt:lcidtoname_downlevel.obj
 0002:00007150       ??_C@_15EPELEGJA@?$AAk?$AAo@ 0000000180052150     libucrt:lcidtoname_downlevel.obj
 0002:00007158       ??_C@_15NDDHIMN@?$AAn?$AAl@ 0000000180052158     libucrt:lcidtoname_downlevel.obj
 0002:00007160       ??_C@_15BPIGNHCD@?$AAn?$AAo@ 0000000180052160     libucrt:lcidtoname_downlevel.obj
 0002:00007168       ??_C@_15DEOPBLCG@?$AAp?$AAl@ 0000000180052168     libucrt:lcidtoname_downlevel.obj
 0002:00007170       ??_C@_15KBECGEFG@?$AAp?$AAt@ 0000000180052170     libucrt:lcidtoname_downlevel.obj
 0002:00007178       ??_C@_15GLJCBFMD@?$AAr?$AAo@ 0000000180052178     libucrt:lcidtoname_downlevel.obj
 0002:00007180       ??_C@_15FEDGKCDI@?$AAr?$AAu@ 0000000180052180     libucrt:lcidtoname_downlevel.obj
 0002:00007188       ??_C@_15GLKMLLHM@?$AAh?$AAr@ 0000000180052188     libucrt:lcidtoname_downlevel.obj
 0002:00007190       ??_C@_15CPKMFBDB@?$AAs?$AAk@ 0000000180052190     libucrt:lcidtoname_downlevel.obj
 0002:00007198       ??_C@_15BAAIOGMK@?$AAs?$AAq@ 0000000180052198     libucrt:lcidtoname_downlevel.obj
 0002:000071a0       ??_C@_15INNPNOHD@?$AAs?$AAv@ 00000001800521a0     libucrt:lcidtoname_downlevel.obj
 0002:000071a8       ??_C@_15CABMMOGH@?$AAt?$AAh@ 00000001800521a8     libucrt:lcidtoname_downlevel.obj
 0002:000071b0       ??_C@_15BPLIHJJM@?$AAt?$AAr@ 00000001800521b0     libucrt:lcidtoname_downlevel.obj
 0002:000071b8       ??_C@_15NEOEKKDJ@?$AAu?$AAr@ 00000001800521b8     libucrt:lcidtoname_downlevel.obj
 0002:000071c0       ??_C@_15NFICGAJK@?$AAi?$AAd@ 00000001800521c0     libucrt:lcidtoname_downlevel.obj
 0002:000071c8       ??_C@_15PJPFLCCM@?$AAu?$AAk@ 00000001800521c8     libucrt:lcidtoname_downlevel.obj
 0002:000071d0       ??_C@_15HPJPHDM@?$AAb?$AAe@ 00000001800521d0     libucrt:lcidtoname_downlevel.obj
 0002:000071d8       ??_C@_15LCHLGJII@?$AAs?$AAl@ 00000001800521d8     libucrt:lcidtoname_downlevel.obj
 0002:000071e0       ??_C@_15PCFJPHHO@?$AAe?$AAt@ 00000001800521e0     libucrt:lcidtoname_downlevel.obj
 0002:000071e8       ??_C@_15HPFPGODN@?$AAl?$AAv@ 00000001800521e8     libucrt:lcidtoname_downlevel.obj
 0002:000071f0       ??_C@_15NFFGKGLG@?$AAl?$AAt@ 00000001800521f0     libucrt:lcidtoname_downlevel.obj
 0002:000071f8       ??_C@_15BDAKCCHN@?$AAf?$AAa@ 00000001800521f8     libucrt:lcidtoname_downlevel.obj
 0002:00007200       ??_C@_15NFGIAIAJ@?$AAv?$AAi@ 0000000180052200     libucrt:lcidtoname_downlevel.obj
 0002:00007208       ??_C@_15LMKNDMHN@?$AAh?$AAy@ 0000000180052208     libucrt:lcidtoname_downlevel.obj
 0002:00007210       ??_C@_15IJBHMCFL@?$AAa?$AAz@ 0000000180052210     libucrt:lcidtoname_downlevel.obj
 0002:00007218       ??_C@_15EKOFJABL@?$AAe?$AAu@ 0000000180052218     libucrt:lcidtoname_downlevel.obj
 0002:00007220       ??_C@_15BGHADCNK@?$AAm?$AAk@ 0000000180052220     libucrt:lcidtoname_downlevel.obj
 0002:00007228       ??_C@_15JDNICKHM@?$AAa?$AAf@ 0000000180052228     libucrt:lcidtoname_downlevel.obj
 0002:00007230       ??_C@_15KPJEDBKD@?$AAk?$AAa@ 0000000180052230     libucrt:lcidtoname_downlevel.obj
 0002:00007238       ??_C@_15PDNFFFEO@?$AAf?$AAo@ 0000000180052238     libucrt:lcidtoname_downlevel.obj
 0002:00007240       ??_C@_15OMLEGLOC@?$AAh?$AAi@ 0000000180052240     libucrt:lcidtoname_downlevel.obj
 0002:00007248       ??_C@_15IDNNENKK@?$AAm?$AAs@ 0000000180052248     libucrt:lcidtoname_downlevel.obj
 0002:00007250       ??_C@_15MACJNBMH@?$AAk?$AAk@ 0000000180052250     libucrt:lcidtoname_downlevel.obj
 0002:00007258       ??_C@_15DKDJEOND@?$AAk?$AAy@ 0000000180052258     libucrt:lcidtoname_downlevel.obj
 0002:00007260       ??_C@_15DFGDLJBG@?$AAs?$AAw@ 0000000180052260     libucrt:lcidtoname_downlevel.obj
 0002:00007268       ??_C@_15BBFAICNG@?$AAu?$AAz@ 0000000180052268     libucrt:lcidtoname_downlevel.obj
 0002:00007270       ??_C@_15DKNDCGEA@?$AAt?$AAt@ 0000000180052270     libucrt:lcidtoname_downlevel.obj
 0002:00007278       ??_C@_15MGIFMDPL@?$AAp?$AAa@ 0000000180052278     libucrt:lcidtoname_downlevel.obj
 0002:00007280       ??_C@_15HCNDBBA@?$AAg?$AAu@ 0000000180052280     libucrt:lcidtoname_downlevel.obj
 0002:00007288       ??_C@_15FNBEIBON@?$AAt?$AAa@ 0000000180052288     libucrt:lcidtoname_downlevel.obj
 0002:00007290       ??_C@_15NCHGBGLK@?$AAt?$AAe@ 0000000180052290     libucrt:lcidtoname_downlevel.obj
 0002:00007298       ??_C@_15PHPHCBPF@?$AAk?$AAn@ 0000000180052298     libucrt:lcidtoname_downlevel.obj
 0002:000072a0       ??_C@_15DLGBCKMP@?$AAm?$AAr@ 00000001800522a0     libucrt:lcidtoname_downlevel.obj
 0002:000072a8       ??_C@_15EABBLBFF@?$AAs?$AAa@ 00000001800522a8     libucrt:lcidtoname_downlevel.obj
 0002:000072b0       ??_C@_15CBKOMCOI@?$AAm?$AAn@ 00000001800522b0     libucrt:lcidtoname_downlevel.obj
 0002:000072b8       ??_C@_15CKDMCJAF@?$AAg?$AAl@ 00000001800522b8     libucrt:lcidtoname_downlevel.obj
 0002:000072c0       ??_C@_17CNJFBPG@?$AAk?$AAo?$AAk@ 00000001800522c0     libucrt:lcidtoname_downlevel.obj
 0002:000072c8       ??_C@_17FFBJICPL@?$AAs?$AAy?$AAr@ 00000001800522c8     libucrt:lcidtoname_downlevel.obj
 0002:000072d0       ??_C@_17KPNDCPAF@?$AAd?$AAi?$AAv@ 00000001800522d0     libucrt:lcidtoname_downlevel.obj
 0002:000072d8       ??_C@_11LOCGONAA@@         00000001800522d8     libucrt:lcidtoname_downlevel.obj
 0002:000072e0       ??_C@_1M@OKAHONE@?$AAa?$AAr?$AA?9?$AAS?$AAA@ 00000001800522e0     libucrt:lcidtoname_downlevel.obj
 0002:000072f0       ??_C@_1M@FFFIGIGK@?$AAb?$AAg?$AA?9?$AAB?$AAG@ 00000001800522f0     libucrt:lcidtoname_downlevel.obj
 0002:00007300       ??_C@_1M@BJNKEDC@?$AAc?$AAa?$AA?9?$AAE?$AAS@ 0000000180052300     libucrt:lcidtoname_downlevel.obj
 0002:00007310       ??_C@_1M@IJJHFJHA@?$AAc?$AAs?$AA?9?$AAC?$AAZ@ 0000000180052310     libucrt:lcidtoname_downlevel.obj
 0002:00007320       ??_C@_1M@CLPEOBGI@?$AAd?$AAa?$AA?9?$AAD?$AAK@ 0000000180052320     libucrt:lcidtoname_downlevel.obj
 0002:00007330       ??_C@_1M@MCMADGCB@?$AAd?$AAe?$AA?9?$AAD?$AAE@ 0000000180052330     libucrt:lcidtoname_downlevel.obj
 0002:00007340       ??_C@_1M@OOCKEMAM@?$AAe?$AAl?$AA?9?$AAG?$AAR@ 0000000180052340     libucrt:lcidtoname_downlevel.obj
 0002:00007350       ??_C@_1M@DDNJFGID@?$AAf?$AAi?$AA?9?$AAF?$AAI@ 0000000180052350     libucrt:lcidtoname_downlevel.obj
 0002:00007360       ??_C@_1M@GLIPPMAC@?$AAf?$AAr?$AA?9?$AAF?$AAR@ 0000000180052360     libucrt:lcidtoname_downlevel.obj
 0002:00007370       ??_C@_1M@GFMCHPE@?$AAh?$AAe?$AA?9?$AAI?$AAL@ 0000000180052370     libucrt:lcidtoname_downlevel.obj
 0002:00007380       ??_C@_1M@MHLPGNKM@?$AAh?$AAu?$AA?9?$AAH?$AAU@ 0000000180052380     libucrt:lcidtoname_downlevel.obj
 0002:00007390       ??_C@_1M@LPDDNNPN@?$AAi?$AAs?$AA?9?$AAI?$AAS@ 0000000180052390     libucrt:lcidtoname_downlevel.obj
 0002:000073a0       ??_C@_1M@MADIPODN@?$AAi?$AAt?$AA?9?$AAI?$AAT@ 00000001800523a0     libucrt:lcidtoname_downlevel.obj
 0002:000073b0       ??_C@_1M@IHBJJGG@?$AAn?$AAl?$AA?9?$AAN?$AAL@ 00000001800523b0     libucrt:lcidtoname_downlevel.obj
 0002:000073c0       ??_C@_1M@EANAGDL@?$AAn?$AAb?$AA?9?$AAN?$AAO@ 00000001800523c0     libucrt:lcidtoname_downlevel.obj
 0002:000073d0       ??_C@_1M@NEIEMEGP@?$AAp?$AAl?$AA?9?$AAP?$AAL@ 00000001800523d0     libucrt:lcidtoname_downlevel.obj
 0002:000073e0       ??_C@_1M@BOCFIGEP@?$AAp?$AAt?$AA?9?$AAB?$AAR@ 00000001800523e0     libucrt:lcidtoname_downlevel.obj
 0002:000073f0       ??_C@_1M@IMPFOPBG@?$AAr?$AAo?$AA?9?$AAR?$AAO@ 00000001800523f0     libucrt:lcidtoname_downlevel.obj
 0002:00007400       ??_C@_1M@IDNNEJMM@?$AAr?$AAu?$AA?9?$AAR?$AAU@ 0000000180052400     libucrt:lcidtoname_downlevel.obj
 0002:00007410       ??_C@_1M@LILEEOGM@?$AAh?$AAr?$AA?9?$AAH?$AAR@ 0000000180052410     libucrt:lcidtoname_downlevel.obj
 0002:00007420       ??_C@_1M@FKIFEHPB@?$AAs?$AAk?$AA?9?$AAS?$AAK@ 0000000180052420     libucrt:lcidtoname_downlevel.obj
 0002:00007430       ??_C@_1M@LJMAMNPJ@?$AAs?$AAq?$AA?9?$AAA?$AAL@ 0000000180052430     libucrt:lcidtoname_downlevel.obj
 0002:00007440       ??_C@_1M@GIAKDKJK@?$AAs?$AAv?$AA?9?$AAS?$AAE@ 0000000180052440     libucrt:lcidtoname_downlevel.obj
 0002:00007450       ??_C@_1M@MKJKIKCL@?$AAt?$AAh?$AA?9?$AAT?$AAH@ 0000000180052450     libucrt:lcidtoname_downlevel.obj
 0002:00007460       ??_C@_1M@MFLCCMPB@?$AAt?$AAr?$AA?9?$AAT?$AAR@ 0000000180052460     libucrt:lcidtoname_downlevel.obj
 0002:00007470       ??_C@_1M@OIJHDKJN@?$AAu?$AAr?$AA?9?$AAP?$AAK@ 0000000180052470     libucrt:lcidtoname_downlevel.obj
 0002:00007480       ??_C@_1M@LHIPCIEK@?$AAi?$AAd?$AA?9?$AAI?$AAD@ 0000000180052480     libucrt:lcidtoname_downlevel.obj
 0002:00007490       ??_C@_1M@MFMOBGI@?$AAu?$AAk?$AA?9?$AAU?$AAA@ 0000000180052490     libucrt:lcidtoname_downlevel.obj
 0002:000074a0       ??_C@_1M@OBGLJIPL@?$AAb?$AAe?$AA?9?$AAB?$AAY@ 00000001800524a0     libucrt:lcidtoname_downlevel.obj
 0002:000074b0       ??_C@_1M@BCFAJEAD@?$AAs?$AAl?$AA?9?$AAS?$AAI@ 00000001800524b0     libucrt:lcidtoname_downlevel.obj
 0002:000074c0       ??_C@_1M@FKFFEDDN@?$AAe?$AAt?$AA?9?$AAE?$AAE@ 00000001800524c0     libucrt:lcidtoname_downlevel.obj
 0002:000074d0       ??_C@_1M@KGKKAACI@?$AAl?$AAv?$AA?9?$AAL?$AAV@ 00000001800524d0     libucrt:lcidtoname_downlevel.obj
 0002:000074e0       ??_C@_1M@IFGBIJO@?$AAl?$AAt?$AA?9?$AAL?$AAT@ 00000001800524e0     libucrt:lcidtoname_downlevel.obj
 0002:000074f0       ??_C@_1M@FGEAHEDM@?$AAf?$AAa?$AA?9?$AAI?$AAR@ 00000001800524f0     libucrt:lcidtoname_downlevel.obj
 0002:00007500       ??_C@_1M@KBMAIBFN@?$AAv?$AAi?$AA?9?$AAV?$AAN@ 0000000180052500     libucrt:lcidtoname_downlevel.obj
 0002:00007510       ??_C@_1M@GPCBKDJK@?$AAh?$AAy?$AA?9?$AAA?$AAM@ 0000000180052510     libucrt:lcidtoname_downlevel.obj
 0002:00007520       ??_C@_1BG@BECMDDJB@?$AAa?$AAz?$AA?9?$AAA?$AAZ?$AA?9?$AAL?$AAa?$AAt?$AAn@ 0000000180052520     libucrt:lcidtoname_downlevel.obj
 0002:00007538       ??_C@_1M@MAOFCAEA@?$AAe?$AAu?$AA?9?$AAE?$AAS@ 0000000180052538     libucrt:lcidtoname_downlevel.obj
 0002:00007548       ??_C@_1M@IGHABKPI@?$AAm?$AAk?$AA?9?$AAM?$AAK@ 0000000180052548     libucrt:lcidtoname_downlevel.obj
 0002:00007558       ??_C@_1M@IAIGNEJG@?$AAt?$AAn?$AA?9?$AAZ?$AAA@ 0000000180052558     libucrt:lcidtoname_downlevel.obj
 0002:00007568       ??_C@_1M@IIJCOJFA@?$AAx?$AAh?$AA?9?$AAZ?$AAA@ 0000000180052568     libucrt:lcidtoname_downlevel.obj
 0002:00007578       ??_C@_1M@LGPJHNJH@?$AAz?$AAu?$AA?9?$AAZ?$AAA@ 0000000180052578     libucrt:lcidtoname_downlevel.obj
 0002:00007588       ??_C@_1M@HOKAOIO@?$AAa?$AAf?$AA?9?$AAZ?$AAA@ 0000000180052588     libucrt:lcidtoname_downlevel.obj
 0002:00007598       ??_C@_1M@DPCLHLIE@?$AAk?$AAa?$AA?9?$AAG?$AAE@ 0000000180052598     libucrt:lcidtoname_downlevel.obj
 0002:000075a8       ??_C@_1M@BLKMHJBI@?$AAf?$AAo?$AA?9?$AAF?$AAO@ 00000001800525a8     libucrt:lcidtoname_downlevel.obj
 0002:000075b8       ??_C@_1M@LGGJAPPB@?$AAh?$AAi?$AA?9?$AAI?$AAN@ 00000001800525b8     libucrt:lcidtoname_downlevel.obj
 0002:000075c8       ??_C@_1M@FIKPIHFE@?$AAm?$AAt?$AA?9?$AAM?$AAT@ 00000001800525c8     libucrt:lcidtoname_downlevel.obj
 0002:000075d8       ??_C@_1M@HEGGPBFA@?$AAs?$AAe?$AA?9?$AAN?$AAO@ 00000001800525d8     libucrt:lcidtoname_downlevel.obj
 0002:000075e8       ??_C@_1M@EIBJEEPA@?$AAm?$AAs?$AA?9?$AAM?$AAY@ 00000001800525e8     libucrt:lcidtoname_downlevel.obj
 0002:000075f8       ??_C@_1M@FHLBGMPP@?$AAk?$AAk?$AA?9?$AAK?$AAZ@ 00000001800525f8     libucrt:lcidtoname_downlevel.obj
 0002:00007608       ??_C@_1M@NGJJLCGI@?$AAk?$AAy?$AA?9?$AAK?$AAG@ 0000000180052608     libucrt:lcidtoname_downlevel.obj
 0002:00007618       ??_C@_1M@GIENNBFC@?$AAs?$AAw?$AA?9?$AAK?$AAE@ 0000000180052618     libucrt:lcidtoname_downlevel.obj
 0002:00007628       ??_C@_1BG@NDGMJIMJ@?$AAu?$AAz?$AA?9?$AAU?$AAZ?$AA?9?$AAL?$AAa?$AAt?$AAn@ 0000000180052628     libucrt:lcidtoname_downlevel.obj
 0002:00007640       ??_C@_1M@IDCCIHBC@?$AAt?$AAt?$AA?9?$AAR?$AAU@ 0000000180052640     libucrt:lcidtoname_downlevel.obj
 0002:00007650       ??_C@_1M@LOICPMOJ@?$AAb?$AAn?$AA?9?$AAI?$AAN@ 0000000180052650     libucrt:lcidtoname_downlevel.obj
 0002:00007660       ??_C@_1M@KPKKNEAH@?$AAp?$AAa?$AA?9?$AAI?$AAN@ 0000000180052660     libucrt:lcidtoname_downlevel.obj
 0002:00007670       ??_C@_1M@PJGPPBOG@?$AAg?$AAu?$AA?9?$AAI?$AAN@ 0000000180052670     libucrt:lcidtoname_downlevel.obj
 0002:00007680       ??_C@_1M@KMKMOPHI@?$AAt?$AAa?$AA?9?$AAI?$AAN@ 0000000180052680     libucrt:lcidtoname_downlevel.obj
 0002:00007690       ??_C@_1M@KFEHEPAC@?$AAt?$AAe?$AA?9?$AAI?$AAN@ 0000000180052690     libucrt:lcidtoname_downlevel.obj
 0002:000076a0       ??_C@_1M@CDCLMGHI@?$AAk?$AAn?$AA?9?$AAI?$AAN@ 00000001800526a0     libucrt:lcidtoname_downlevel.obj
 0002:000076b0       ??_C@_1M@MIODLDKF@?$AAm?$AAl?$AA?9?$AAI?$AAN@ 00000001800526b0     libucrt:lcidtoname_downlevel.obj
 0002:000076c0       ??_C@_1M@PBIEACPO@?$AAm?$AAr?$AA?9?$AAI?$AAN@ 00000001800526c0     libucrt:lcidtoname_downlevel.obj
 0002:000076d0       ??_C@_1M@NIDEAGPH@?$AAs?$AAa?$AA?9?$AAI?$AAN@ 00000001800526d0     libucrt:lcidtoname_downlevel.obj
 0002:000076e0       ??_C@_1M@FHIHCBIO@?$AAm?$AAn?$AA?9?$AAM?$AAN@ 00000001800526e0     libucrt:lcidtoname_downlevel.obj
 0002:000076f0       ??_C@_1M@JAIJPENP@?$AAc?$AAy?$AA?9?$AAG?$AAB@ 00000001800526f0     libucrt:lcidtoname_downlevel.obj
 0002:00007700       ??_C@_1M@PHGFBEPN@?$AAg?$AAl?$AA?9?$AAE?$AAS@ 0000000180052700     libucrt:lcidtoname_downlevel.obj
 0002:00007710       ??_C@_1O@KPIPDNCP@?$AAk?$AAo?$AAk?$AA?9?$AAI?$AAN@ 0000000180052710     libucrt:lcidtoname_downlevel.obj
 0002:00007720       ??_C@_1O@KNHJLDJA@?$AAs?$AAy?$AAr?$AA?9?$AAS?$AAY@ 0000000180052720     libucrt:lcidtoname_downlevel.obj
 0002:00007730       ??_C@_1O@MKEKBLAH@?$AAd?$AAi?$AAv?$AA?9?$AAM?$AAV@ 0000000180052730     libucrt:lcidtoname_downlevel.obj
 0002:00007740       ??_C@_1O@OHDCKDDF@?$AAq?$AAu?$AAz?$AA?9?$AAB?$AAO@ 0000000180052740     libucrt:lcidtoname_downlevel.obj
 0002:00007750       ??_C@_1M@LEPJNLFD@?$AAn?$AAs?$AA?9?$AAZ?$AAA@ 0000000180052750     libucrt:lcidtoname_downlevel.obj
 0002:00007760       ??_C@_1M@OMLEIIJB@?$AAm?$AAi?$AA?9?$AAN?$AAZ@ 0000000180052760     libucrt:lcidtoname_downlevel.obj
 0002:00007770       ??_C@_1M@PMPEAILG@?$AAa?$AAr?$AA?9?$AAI?$AAQ@ 0000000180052770     libucrt:lcidtoname_downlevel.obj
 0002:00007780       ??_C@_1M@CNKPNOEE@?$AAd?$AAe?$AA?9?$AAC?$AAH@ 0000000180052780     libucrt:lcidtoname_downlevel.obj
 0002:00007790       ??_C@_1M@LKMGMLKO@?$AAe?$AAn?$AA?9?$AAG?$AAB@ 0000000180052790     libucrt:lcidtoname_downlevel.obj
 0002:000077a0       ??_C@_1M@PGKJFFGL@?$AAe?$AAs?$AA?9?$AAM?$AAX@ 00000001800527a0     libucrt:lcidtoname_downlevel.obj
 0002:000077b0       ??_C@_1M@DNNANBDC@?$AAf?$AAr?$AA?9?$AAB?$AAE@ 00000001800527b0     libucrt:lcidtoname_downlevel.obj
 0002:000077c0       ??_C@_1M@HLGMDFHM@?$AAi?$AAt?$AA?9?$AAC?$AAH@ 00000001800527c0     libucrt:lcidtoname_downlevel.obj
 0002:000077d0       ??_C@_1M@CLLBGJH@?$AAn?$AAl?$AA?9?$AAB?$AAE@ 00000001800527d0     libucrt:lcidtoname_downlevel.obj
 0002:000077e0       ??_C@_1M@BODBOGLF@?$AAn?$AAn?$AA?9?$AAN?$AAO@ 00000001800527e0     libucrt:lcidtoname_downlevel.obj
 0002:000077f0       ??_C@_1M@HFFAHKAD@?$AAp?$AAt?$AA?9?$AAP?$AAT@ 00000001800527f0     libucrt:lcidtoname_downlevel.obj
 0002:00007800       ??_C@_1BG@LNOAKHIE@?$AAs?$AAr?$AA?9?$AAS?$AAP?$AA?9?$AAL?$AAa?$AAt?$AAn@ 0000000180052800     libucrt:lcidtoname_downlevel.obj
 0002:00007818       ??_C@_1M@HBMHBGAK@?$AAs?$AAv?$AA?9?$AAF?$AAI@ 0000000180052818     libucrt:lcidtoname_downlevel.obj
 0002:00007828       ??_C@_1BG@DGCJGJBE@?$AAa?$AAz?$AA?9?$AAA?$AAZ?$AA?9?$AAC?$AAy?$AAr?$AAl@ 0000000180052828     libucrt:lcidtoname_downlevel.obj
 0002:00007840       ??_C@_1M@KEJDAAHB@?$AAs?$AAe?$AA?9?$AAS?$AAE@ 0000000180052840     libucrt:lcidtoname_downlevel.obj
 0002:00007850       ??_C@_1M@HEIBJJAD@?$AAm?$AAs?$AA?9?$AAB?$AAN@ 0000000180052850     libucrt:lcidtoname_downlevel.obj
 0002:00007860       ??_C@_1BG@PBGJMCEM@?$AAu?$AAz?$AA?9?$AAU?$AAZ?$AA?9?$AAC?$AAy?$AAr?$AAl@ 0000000180052860     libucrt:lcidtoname_downlevel.obj
 0002:00007878       ??_C@_1O@LAOBCMDF@?$AAq?$AAu?$AAz?$AA?9?$AAE?$AAC@ 0000000180052878     libucrt:lcidtoname_downlevel.obj
 0002:00007888       ??_C@_1M@POEEMAIO@?$AAa?$AAr?$AA?9?$AAE?$AAG@ 0000000180052888     libucrt:lcidtoname_downlevel.obj
 0002:00007898       ??_C@_1M@EFAKDEDL@?$AAz?$AAh?$AA?9?$AAH?$AAK@ 0000000180052898     libucrt:lcidtoname_downlevel.obj
 0002:000078a8       ??_C@_1M@HKKIJHGI@?$AAd?$AAe?$AA?9?$AAA?$AAT@ 00000001800528a8     libucrt:lcidtoname_downlevel.obj
 0002:000078b8       ??_C@_1M@KBFBEHJF@?$AAe?$AAn?$AA?9?$AAA?$AAU@ 00000001800528b8     libucrt:lcidtoname_downlevel.obj
 0002:000078c8       ??_C@_1M@MNPLFAAH@?$AAe?$AAs?$AA?9?$AAE?$AAS@ 00000001800528c8     libucrt:lcidtoname_downlevel.obj
 0002:000078d8       ??_C@_1M@HJOOJFMA@?$AAf?$AAr?$AA?9?$AAC?$AAA@ 00000001800528d8     libucrt:lcidtoname_downlevel.obj
 0002:000078e8       ??_C@_1BG@JPOFPNAB@?$AAs?$AAr?$AA?9?$AAS?$AAP?$AA?9?$AAC?$AAy?$AAr?$AAl@ 00000001800528e8     libucrt:lcidtoname_downlevel.obj
 0002:00007900       ??_C@_1M@LNFOCMOB@?$AAs?$AAe?$AA?9?$AAF?$AAI@ 0000000180052900     libucrt:lcidtoname_downlevel.obj
 0002:00007910       ??_C@_1O@MGJBOAMB@?$AAq?$AAu?$AAz?$AA?9?$AAP?$AAE@ 0000000180052910     libucrt:lcidtoname_downlevel.obj
 0002:00007920       ??_C@_1M@GJINLBOK@?$AAa?$AAr?$AA?9?$AAL?$AAY@ 0000000180052920     libucrt:lcidtoname_downlevel.obj
 0002:00007930       ??_C@_1M@GGMNHJNL@?$AAz?$AAh?$AA?9?$AAS?$AAG@ 0000000180052930     libucrt:lcidtoname_downlevel.obj
 0002:00007940       ??_C@_1M@HOIKODND@?$AAd?$AAe?$AA?9?$AAL?$AAU@ 0000000180052940     libucrt:lcidtoname_downlevel.obj
 0002:00007950       ??_C@_1M@DDOCCGFG@?$AAe?$AAn?$AA?9?$AAC?$AAA@ 0000000180052950     libucrt:lcidtoname_downlevel.obj
 0002:00007960       ??_C@_1M@BNOEMJLF@?$AAe?$AAs?$AA?9?$AAG?$AAT@ 0000000180052960     libucrt:lcidtoname_downlevel.obj
 0002:00007970       ??_C@_1M@EOGNKEK@?$AAf?$AAr?$AA?9?$AAC?$AAH@ 0000000180052970     libucrt:lcidtoname_downlevel.obj
 0002:00007980       ??_C@_1M@FLIDJFHL@?$AAh?$AAr?$AA?9?$AAB?$AAA@ 0000000180052980     libucrt:lcidtoname_downlevel.obj
 0002:00007990       ??_C@_1O@FMCELNAJ@?$AAs?$AAm?$AAj?$AA?9?$AAN?$AAO@ 0000000180052990     libucrt:lcidtoname_downlevel.obj
 0002:000079a0       ??_C@_1M@JHGLJMGJ@?$AAa?$AAr?$AA?9?$AAD?$AAZ@ 00000001800529a0     libucrt:lcidtoname_downlevel.obj
 0002:000079b0       ??_C@_1M@JKKFDCNP@?$AAz?$AAh?$AA?9?$AAM?$AAO@ 00000001800529b0     libucrt:lcidtoname_downlevel.obj
 0002:000079c0       ??_C@_1M@GEEFALPE@?$AAd?$AAe?$AA?9?$AAL?$AAI@ 00000001800529c0     libucrt:lcidtoname_downlevel.obj
 0002:000079d0       ??_C@_1M@IGEOFBG@?$AAe?$AAn?$AA?9?$AAN?$AAZ@ 00000001800529d0     libucrt:lcidtoname_downlevel.obj
 0002:000079e0       ??_C@_1M@KDBONEHP@?$AAe?$AAs?$AA?9?$AAC?$AAR@ 00000001800529e0     libucrt:lcidtoname_downlevel.obj
 0002:000079f0       ??_C@_1M@FHMDOHNN@?$AAf?$AAr?$AA?9?$AAL?$AAU@ 00000001800529f0     libucrt:lcidtoname_downlevel.obj
 0002:00007a00       ??_C@_1BG@NFKKMAFG@?$AAb?$AAs?$AA?9?$AAB?$AAA?$AA?9?$AAL?$AAa?$AAt?$AAn@ 0000000180052a00     libucrt:lcidtoname_downlevel.obj
 0002:00007a18       ??_C@_1O@IMNBEMCI@?$AAs?$AAm?$AAj?$AA?9?$AAS?$AAE@ 0000000180052a18     libucrt:lcidtoname_downlevel.obj
 0002:00007a28       ??_C@_1M@DHHMBNDP@?$AAa?$AAr?$AA?9?$AAM?$AAA@ 0000000180052a28     libucrt:lcidtoname_downlevel.obj
 0002:00007a38       ??_C@_1M@BNBLJCGH@?$AAe?$AAn?$AA?9?$AAI?$AAE@ 0000000180052a38     libucrt:lcidtoname_downlevel.obj
 0002:00007a48       ??_C@_1M@GEPAFMDL@?$AAe?$AAs?$AA?9?$AAP?$AAA@ 0000000180052a48     libucrt:lcidtoname_downlevel.obj
 0002:00007a58       ??_C@_1M@OJONDMDL@?$AAf?$AAr?$AA?9?$AAM?$AAC@ 0000000180052a58     libucrt:lcidtoname_downlevel.obj
 0002:00007a68       ??_C@_1BG@OBCNFJB@?$AAs?$AAr?$AA?9?$AAB?$AAA?$AA?9?$AAL?$AAa?$AAt?$AAn@ 0000000180052a68     libucrt:lcidtoname_downlevel.obj
 0002:00007a80       ??_C@_1O@KEMEEGPO@?$AAs?$AAm?$AAa?$AA?9?$AAN?$AAO@ 0000000180052a80     libucrt:lcidtoname_downlevel.obj
 0002:00007a90       ??_C@_1M@ELMGFODK@?$AAa?$AAr?$AA?9?$AAT?$AAN@ 0000000180052a90     libucrt:lcidtoname_downlevel.obj
 0002:00007aa0       ??_C@_1M@BHDLHFAF@?$AAe?$AAn?$AA?9?$AAZ?$AAA@ 0000000180052aa0     libucrt:lcidtoname_downlevel.obj
 0002:00007ab0       ??_C@_1M@BMGIGLIF@?$AAe?$AAs?$AA?9?$AAD?$AAO@ 0000000180052ab0     libucrt:lcidtoname_downlevel.obj
 0002:00007ac0       ??_C@_1BG@CMBHIPBE@?$AAs?$AAr?$AA?9?$AAB?$AAA?$AA?9?$AAC?$AAy?$AAr?$AAl@ 0000000180052ac0     libucrt:lcidtoname_downlevel.obj
 0002:00007ad8       ??_C@_1O@HEDBLHNP@?$AAs?$AAm?$AAa?$AA?9?$AAS?$AAE@ 0000000180052ad8     libucrt:lcidtoname_downlevel.obj
 0002:00007ae8       ??_C@_1M@DAGCADIM@?$AAa?$AAr?$AA?9?$AAO?$AAM@ 0000000180052ae8     libucrt:lcidtoname_downlevel.obj
 0002:00007af8       ??_C@_1M@FODLMICG@?$AAe?$AAn?$AA?9?$AAJ?$AAM@ 0000000180052af8     libucrt:lcidtoname_downlevel.obj
 0002:00007b08       ??_C@_1M@DNMLCIHB@?$AAe?$AAs?$AA?9?$AAV?$AAE@ 0000000180052b08     libucrt:lcidtoname_downlevel.obj
 0002:00007b18       ??_C@_1O@EOKHMKJK@?$AAs?$AAm?$AAs?$AA?9?$AAF?$AAI@ 0000000180052b18     libucrt:lcidtoname_downlevel.obj
 0002:00007b28       ??_C@_1M@CAFJMKOF@?$AAa?$AAr?$AA?9?$AAY?$AAE@ 0000000180052b28     libucrt:lcidtoname_downlevel.obj
 0002:00007b38       ??_C@_1M@CBFHIJLI@?$AAe?$AAn?$AA?9?$AAC?$AAB@ 0000000180052b38     libucrt:lcidtoname_downlevel.obj
 0002:00007b48       ??_C@_1M@BGNFLDN@?$AAe?$AAs?$AA?9?$AAC?$AAO@ 0000000180052b48     libucrt:lcidtoname_downlevel.obj
 0002:00007b58       ??_C@_1O@JMPHMAMC@?$AAs?$AAm?$AAn?$AA?9?$AAF?$AAI@ 0000000180052b58     libucrt:lcidtoname_downlevel.obj
 0002:00007b68       ??_C@_1M@JLANABKE@?$AAa?$AAr?$AA?9?$AAS?$AAY@ 0000000180052b68     libucrt:lcidtoname_downlevel.obj
 0002:00007b78       ??_C@_1M@HPKGCFGN@?$AAe?$AAn?$AA?9?$AAB?$AAZ@ 0000000180052b78     libucrt:lcidtoname_downlevel.obj
 0002:00007b88       ??_C@_1M@OLJCMLGM@?$AAe?$AAs?$AA?9?$AAP?$AAE@ 0000000180052b88     libucrt:lcidtoname_downlevel.obj
 0002:00007b98       ??_C@_1M@MKKGFKLE@?$AAa?$AAr?$AA?9?$AAJ?$AAO@ 0000000180052b98     libucrt:lcidtoname_downlevel.obj
 0002:00007ba8       ??_C@_1M@EKPGLDNI@?$AAe?$AAn?$AA?9?$AAT?$AAT@ 0000000180052ba8     libucrt:lcidtoname_downlevel.obj
 0002:00007bb8       ??_C@_1M@OONGHFHE@?$AAe?$AAs?$AA?9?$AAA?$AAR@ 0000000180052bb8     libucrt:lcidtoname_downlevel.obj
 0002:00007bc8       ??_C@_1M@OOJFGBHE@?$AAa?$AAr?$AA?9?$AAL?$AAB@ 0000000180052bc8     libucrt:lcidtoname_downlevel.obj
 0002:00007bd8       ??_C@_1M@GCEJHNEG@?$AAe?$AAn?$AA?9?$AAZ?$AAW@ 0000000180052bd8     libucrt:lcidtoname_downlevel.obj
 0002:00007be8       ??_C@_1M@JNOCAHJI@?$AAe?$AAs?$AA?9?$AAE?$AAC@ 0000000180052be8     libucrt:lcidtoname_downlevel.obj
 0002:00007bf8       ??_C@_1M@JEFHPGGB@?$AAa?$AAr?$AA?9?$AAK?$AAW@ 0000000180052bf8     libucrt:lcidtoname_downlevel.obj
 0002:00007c08       ??_C@_1M@MLKIBJOJ@?$AAe?$AAn?$AA?9?$AAP?$AAH@ 0000000180052c08     libucrt:lcidtoname_downlevel.obj
 0002:00007c18       ??_C@_1M@BDNIPEND@?$AAe?$AAs?$AA?9?$AAC?$AAL@ 0000000180052c18     libucrt:lcidtoname_downlevel.obj
 0002:00007c28       ??_C@_1M@MPNMEKBD@?$AAa?$AAr?$AA?9?$AAA?$AAE@ 0000000180052c28     libucrt:lcidtoname_downlevel.obj
 0002:00007c38       ??_C@_1M@KBJALCPI@?$AAe?$AAs?$AA?9?$AAU?$AAY@ 0000000180052c38     libucrt:lcidtoname_downlevel.obj
 0002:00007c48       ??_C@_1M@LLCCOAGA@?$AAa?$AAr?$AA?9?$AAB?$AAH@ 0000000180052c48     libucrt:lcidtoname_downlevel.obj
 0002:00007c58       ??_C@_1M@PBFNCDEL@?$AAe?$AAs?$AA?9?$AAP?$AAY@ 0000000180052c58     libucrt:lcidtoname_downlevel.obj
 0002:00007c68       ??_C@_1M@EDGINPNP@?$AAa?$AAr?$AA?9?$AAQ?$AAA@ 0000000180052c68     libucrt:lcidtoname_downlevel.obj
 0002:00007c78       ??_C@_1M@MKDBIIJI@?$AAe?$AAs?$AA?9?$AAB?$AAO@ 0000000180052c78     libucrt:lcidtoname_downlevel.obj
 0002:00007c88       ??_C@_1M@CPKKEBLD@?$AAe?$AAs?$AA?9?$AAS?$AAV@ 0000000180052c88     libucrt:lcidtoname_downlevel.obj
 0002:00007c98       ??_C@_1M@NDBGMMJL@?$AAe?$AAs?$AA?9?$AAH?$AAN@ 0000000180052c98     libucrt:lcidtoname_downlevel.obj
 0002:00007ca8       ??_C@_1M@JIJIBHDP@?$AAe?$AAs?$AA?9?$AAN?$AAI@ 0000000180052ca8     libucrt:lcidtoname_downlevel.obj
 0002:00007cb8       ??_C@_1M@CGFMKEEK@?$AAe?$AAs?$AA?9?$AAP?$AAR@ 0000000180052cb8     libucrt:lcidtoname_downlevel.obj
 0002:00007cc8       ??_C@_1O@ICJHKIIK@?$AAz?$AAh?$AA?9?$AAC?$AAH?$AAT@ 0000000180052cc8     libucrt:lcidtoname_downlevel.obj
 0002:00007cd8       ??_C@_15CLNEJCE@?$AAs?$AAr@ 0000000180052cd8     libucrt:lcidtoname_downlevel.obj
 0002:00008b20       ??_C@_1M@KAHEKEIG@?$AAa?$AAf?$AA?9?$AAz?$AAa@ 0000000180053b20     libucrt:lcidtoname_downlevel.obj
 0002:00008b30       ??_C@_1M@GIECOABL@?$AAa?$AAr?$AA?9?$AAa?$AAe@ 0000000180053b30     libucrt:lcidtoname_downlevel.obj
 0002:00008b40       ??_C@_1M@BMLMEKGI@?$AAa?$AAr?$AA?9?$AAb?$AAh@ 0000000180053b40     libucrt:lcidtoname_downlevel.obj
 0002:00008b50       ??_C@_1M@DAPFDGGB@?$AAa?$AAr?$AA?9?$AAd?$AAz@ 0000000180053b50     libucrt:lcidtoname_downlevel.obj
 0002:00008b60       ??_C@_1M@FJNKGKIG@?$AAa?$AAr?$AA?9?$AAe?$AAg@ 0000000180053b60     libucrt:lcidtoname_downlevel.obj
 0002:00008b70       ??_C@_1M@FLGKKCLO@?$AAa?$AAr?$AA?9?$AAi?$AAq@ 0000000180053b70     libucrt:lcidtoname_downlevel.obj
 0002:00008b80       ??_C@_1M@GNDIPALM@?$AAa?$AAr?$AA?9?$AAj?$AAo@ 0000000180053b80     libucrt:lcidtoname_downlevel.obj
 0002:00008b90       ??_C@_1M@DDMJFMGJ@?$AAa?$AAr?$AA?9?$AAk?$AAw@ 0000000180053b90     libucrt:lcidtoname_downlevel.obj
 0002:00008ba0       ??_C@_1M@EJALMLHM@?$AAa?$AAr?$AA?9?$AAl?$AAb@ 0000000180053ba0     libucrt:lcidtoname_downlevel.obj
 0002:00008bb0       ??_C@_1M@MOBDBLOC@?$AAa?$AAr?$AA?9?$AAl?$AAy@ 0000000180053bb0     libucrt:lcidtoname_downlevel.obj
 0002:00008bc0       ??_C@_1M@JAOCLHDH@?$AAa?$AAr?$AA?9?$AAm?$AAa@ 0000000180053bc0     libucrt:lcidtoname_downlevel.obj
 0002:00008bd0       ??_C@_1M@JHPMKJIE@?$AAa?$AAr?$AA?9?$AAo?$AAm@ 0000000180053bd0     libucrt:lcidtoname_downlevel.obj
 0002:00008be0       ??_C@_1M@OEPGHFNH@?$AAa?$AAr?$AA?9?$AAq?$AAa@ 0000000180053be0     libucrt:lcidtoname_downlevel.obj
 0002:00008bf0       ??_C@_1M@KJDONENM@?$AAa?$AAr?$AA?9?$AAs?$AAa@ 0000000180053bf0     libucrt:lcidtoname_downlevel.obj
 0002:00008c00       ??_C@_1M@DMJDKLKM@?$AAa?$AAr?$AA?9?$AAs?$AAy@ 0000000180053c00     libucrt:lcidtoname_downlevel.obj
 0002:00008c10       ??_C@_1M@OMFIPEDC@?$AAa?$AAr?$AA?9?$AAt?$AAn@ 0000000180053c10     libucrt:lcidtoname_downlevel.obj
 0002:00008c20       ??_C@_1M@IHMHGAON@?$AAa?$AAr?$AA?9?$AAy?$AAe@ 0000000180053c20     libucrt:lcidtoname_downlevel.obj
 0002:00008c30       ??_C@_1BG@KDCPGJGB@?$AAa?$AAz?$AA?9?$AAa?$AAz?$AA?9?$AAc?$AAy?$AAr?$AAl@ 0000000180053c30     libucrt:lcidtoname_downlevel.obj
 0002:00008c48       ??_C@_1BG@IBCKDDOE@?$AAa?$AAz?$AA?9?$AAa?$AAz?$AA?9?$AAl?$AAa?$AAt?$AAn@ 0000000180053c48     libucrt:lcidtoname_downlevel.obj
 0002:00008c60       ??_C@_1M@EGPFDCPD@?$AAb?$AAe?$AA?9?$AAb?$AAy@ 0000000180053c60     libucrt:lcidtoname_downlevel.obj
 0002:00008c70       ??_C@_1M@PCMGMCGC@?$AAb?$AAg?$AA?9?$AAb?$AAg@ 0000000180053c70     libucrt:lcidtoname_downlevel.obj
 0002:00008c80       ??_C@_1M@BJBMFGOB@?$AAb?$AAn?$AA?9?$AAi?$AAn@ 0000000180053c80     libucrt:lcidtoname_downlevel.obj
 0002:00008c90       ??_C@_1BG@EAKMMACD@?$AAb?$AAs?$AA?9?$AAb?$AAa?$AA?9?$AAl?$AAa?$AAt?$AAn@ 0000000180053c90     libucrt:lcidtoname_downlevel.obj
 0002:00008ca8       ??_C@_1M@KGADAODK@?$AAc?$AAa?$AA?9?$AAe?$AAs@ 0000000180053ca8     libucrt:lcidtoname_downlevel.obj
 0002:00008cb8       ??_C@_1M@COAJPDHI@?$AAc?$AAs?$AA?9?$AAc?$AAz@ 0000000180053cb8     libucrt:lcidtoname_downlevel.obj
 0002:00008cc8       ??_C@_1M@DHBHFONH@?$AAc?$AAy?$AA?9?$AAg?$AAb@ 0000000180053cc8     libucrt:lcidtoname_downlevel.obj
 0002:00008cd8       ??_C@_1M@IMGKELGA@?$AAd?$AAa?$AA?9?$AAd?$AAk@ 0000000180053cd8     libucrt:lcidtoname_downlevel.obj
 0002:00008ce8       ??_C@_1M@NNDGDNGA@?$AAd?$AAe?$AA?9?$AAa?$AAt@ 0000000180053ce8     libucrt:lcidtoname_downlevel.obj
 0002:00008cf8       ??_C@_1M@IKDBHEEM@?$AAd?$AAe?$AA?9?$AAc?$AAh@ 0000000180053cf8     libucrt:lcidtoname_downlevel.obj
 0002:00008d08       ??_C@_1M@GFFOJMCJ@?$AAd?$AAe?$AA?9?$AAd?$AAe@ 0000000180053d08     libucrt:lcidtoname_downlevel.obj
 0002:00008d18       ??_C@_1M@MDNLKBPM@?$AAd?$AAe?$AA?9?$AAl?$AAi@ 0000000180053d18     libucrt:lcidtoname_downlevel.obj
 0002:00008d28       ??_C@_1M@NJBEEJNL@?$AAd?$AAe?$AA?9?$AAl?$AAu@ 0000000180053d28     libucrt:lcidtoname_downlevel.obj
 0002:00008d38       ??_C@_1O@GNNELBAP@?$AAd?$AAi?$AAv?$AA?9?$AAm?$AAv@ 0000000180053d38     libucrt:lcidtoname_downlevel.obj
 0002:00008d48       ??_C@_1M@EJLEOGAE@?$AAe?$AAl?$AA?9?$AAg?$AAr@ 0000000180053d48     libucrt:lcidtoname_downlevel.obj
 0002:00008d58       ??_C@_1M@GMPONJN@?$AAe?$AAn?$AA?9?$AAa?$AAu@ 0000000180053d58     libucrt:lcidtoname_downlevel.obj
 0002:00008d68       ??_C@_1M@NIDIIPGF@?$AAe?$AAn?$AA?9?$AAb?$AAz@ 0000000180053d68     libucrt:lcidtoname_downlevel.obj
 0002:00008d78       ??_C@_1M@JEHMIMFO@?$AAe?$AAn?$AA?9?$AAc?$AAa@ 0000000180053d78     libucrt:lcidtoname_downlevel.obj
 0002:00008d88       ??_C@_1M@IGMJCDLA@?$AAe?$AAn?$AA?9?$AAc?$AAb@ 0000000180053d88     libucrt:lcidtoname_downlevel.obj
 0002:00008d98       ??_C@_1M@BNFIGBKG@?$AAe?$AAn?$AA?9?$AAg?$AAb@ 0000000180053d98     libucrt:lcidtoname_downlevel.obj
 0002:00008da8       ??_C@_1M@LKIFDIGP@?$AAe?$AAn?$AA?9?$AAi?$AAe@ 0000000180053da8     libucrt:lcidtoname_downlevel.obj
 0002:00008db8       ??_C@_1M@PJKFGCCO@?$AAe?$AAn?$AA?9?$AAj?$AAm@ 0000000180053db8     libucrt:lcidtoname_downlevel.obj
 0002:00008dc8       ??_C@_1M@KPPKEPBO@?$AAe?$AAn?$AA?9?$AAn?$AAz@ 0000000180053dc8     libucrt:lcidtoname_downlevel.obj
 0002:00008dd8       ??_C@_1M@GMDGLDOB@?$AAe?$AAn?$AA?9?$AAp?$AAh@ 0000000180053dd8     libucrt:lcidtoname_downlevel.obj
 0002:00008de8       ??_C@_1M@ONGIBJNA@?$AAe?$AAn?$AA?9?$AAt?$AAt@ 0000000180053de8     libucrt:lcidtoname_downlevel.obj
 0002:00008df8       ??_C@_1M@LLODPCMM@?$AAe?$AAn?$AA?9?$AAu?$AAs@ 0000000180053df8     libucrt:lcidtoname_downlevel.obj
 0002:00008e08       ??_C@_1M@LAKFNPAN@?$AAe?$AAn?$AA?9?$AAz?$AAa@ 0000000180053e08     libucrt:lcidtoname_downlevel.obj
 0002:00008e18       ??_C@_1M@MFNHNHEO@?$AAe?$AAn?$AA?9?$AAz?$AAw@ 0000000180053e18     libucrt:lcidtoname_downlevel.obj
 0002:00008e28       ??_C@_1M@EJEINPHM@?$AAe?$AAs?$AA?9?$AAa?$AAr@ 0000000180053e28     libucrt:lcidtoname_downlevel.obj
 0002:00008e38       ??_C@_1M@GNKPCCJA@?$AAe?$AAs?$AA?9?$AAb?$AAo@ 0000000180053e38     libucrt:lcidtoname_downlevel.obj
 0002:00008e48       ??_C@_1M@LEEGFONL@?$AAe?$AAs?$AA?9?$AAc?$AAl@ 0000000180053e48     libucrt:lcidtoname_downlevel.obj
 0002:00008e58       ??_C@_1M@KGPDPBDF@?$AAe?$AAs?$AA?9?$AAc?$AAo@ 0000000180053e58     libucrt:lcidtoname_downlevel.obj
 0002:00008e68       ??_C@_1M@EIAHOHH@?$AAe?$AAs?$AA?9?$AAc?$AAr@ 0000000180053e68     libucrt:lcidtoname_downlevel.obj
 0002:00008e78       ??_C@_1M@LLPGMBIN@?$AAe?$AAs?$AA?9?$AAd?$AAo@ 0000000180053e78     libucrt:lcidtoname_downlevel.obj
 0002:00008e88       ??_C@_1M@DKHMKNJA@?$AAe?$AAs?$AA?9?$AAe?$AAc@ 0000000180053e88     libucrt:lcidtoname_downlevel.obj
 0002:00008e98       ??_C@_1M@GKGFPKAP@?$AAe?$AAs?$AA?9?$AAe?$AAs@ 0000000180053e98     libucrt:lcidtoname_downlevel.obj
 0002:00008ea8       ??_C@_1M@LKHKGDLN@?$AAe?$AAs?$AA?9?$AAg?$AAt@ 0000000180053ea8     libucrt:lcidtoname_downlevel.obj
 0002:00008eb8       ??_C@_1M@HEIIGGJD@?$AAe?$AAs?$AA?9?$AAh?$AAn@ 0000000180053eb8     libucrt:lcidtoname_downlevel.obj
 0002:00008ec8       ??_C@_1M@FBDHPPGD@?$AAe?$AAs?$AA?9?$AAm?$AAx@ 0000000180053ec8     libucrt:lcidtoname_downlevel.obj
 0002:00008ed8       ??_C@_1M@DPAGLNDH@?$AAe?$AAs?$AA?9?$AAn?$AAi@ 0000000180053ed8     libucrt:lcidtoname_downlevel.obj
 0002:00008ee8       ??_C@_1M@MDGOPGDD@?$AAe?$AAs?$AA?9?$AAp?$AAa@ 0000000180053ee8     libucrt:lcidtoname_downlevel.obj
 0002:00008ef8       ??_C@_1M@EMAMGBGE@?$AAe?$AAs?$AA?9?$AAp?$AAe@ 0000000180053ef8     libucrt:lcidtoname_downlevel.obj
 0002:00008f08       ??_C@_1M@IBMCAOEC@?$AAe?$AAs?$AA?9?$AAp?$AAr@ 0000000180053f08     libucrt:lcidtoname_downlevel.obj
 0002:00008f18       ??_C@_1M@FGMDIJED@?$AAe?$AAs?$AA?9?$AAp?$AAy@ 0000000180053f18     libucrt:lcidtoname_downlevel.obj
 0002:00008f28       ??_C@_1M@IIDEOLLL@?$AAe?$AAs?$AA?9?$AAs?$AAv@ 0000000180053f28     libucrt:lcidtoname_downlevel.obj
 0002:00008f38       ??_C@_1M@GAOBIPA@?$AAe?$AAs?$AA?9?$AAu?$AAy@ 0000000180053f38     libucrt:lcidtoname_downlevel.obj
 0002:00008f48       ??_C@_1M@JKFFICHJ@?$AAe?$AAs?$AA?9?$AAv?$AAe@ 0000000180053f48     libucrt:lcidtoname_downlevel.obj
 0002:00008f58       ??_C@_1M@PNMLOJDF@?$AAe?$AAt?$AA?9?$AAe?$AAe@ 0000000180053f58     libucrt:lcidtoname_downlevel.obj
 0002:00008f68       ??_C@_1M@GHHLIKEI@?$AAe?$AAu?$AA?9?$AAe?$AAs@ 0000000180053f68     libucrt:lcidtoname_downlevel.obj
 0002:00008f78       ??_C@_1M@PBNONODE@?$AAf?$AAa?$AA?9?$AAi?$AAr@ 0000000180053f78     libucrt:lcidtoname_downlevel.obj
 0002:00008f88       ??_C@_1M@JEEHPMIL@?$AAf?$AAi?$AA?9?$AAf?$AAi@ 0000000180053f88     libucrt:lcidtoname_downlevel.obj
 0002:00008f98       ??_C@_1M@LMDCNDBA@?$AAf?$AAo?$AA?9?$AAf?$AAo@ 0000000180053f98     libucrt:lcidtoname_downlevel.obj
 0002:00008fa8       ??_C@_1M@JKEOHLDK@?$AAf?$AAr?$AA?9?$AAb?$AAe@ 0000000180053fa8     libucrt:lcidtoname_downlevel.obj
 0002:00008fb8       ??_C@_1M@NOHADPMI@?$AAf?$AAr?$AA?9?$AAc?$AAa@ 0000000180053fb8     libucrt:lcidtoname_downlevel.obj
 0002:00008fc8       ??_C@_1M@KDHIHAEC@?$AAf?$AAr?$AA?9?$AAc?$AAh@ 0000000180053fc8     libucrt:lcidtoname_downlevel.obj
 0002:00008fd8       ??_C@_1M@MMBBFGAK@?$AAf?$AAr?$AA?9?$AAf?$AAr@ 0000000180053fd8     libucrt:lcidtoname_downlevel.obj
 0002:00008fe8       ??_C@_1M@PAFNENNF@?$AAf?$AAr?$AA?9?$AAl?$AAu@ 0000000180053fe8     libucrt:lcidtoname_downlevel.obj
 0002:00008ff8       ??_C@_1M@EOHDJGDD@?$AAf?$AAr?$AA?9?$AAm?$AAc@ 0000000180053ff8     libucrt:lcidtoname_downlevel.obj
 0002:00009008       ??_C@_1M@FAPLLOPF@?$AAg?$AAl?$AA?9?$AAe?$AAs@ 0000000180054008     libucrt:lcidtoname_downlevel.obj
 0002:00009018       ??_C@_1M@FOPBFLOO@?$AAg?$AAu?$AA?9?$AAi?$AAn@ 0000000180054018     libucrt:lcidtoname_downlevel.obj
 0002:00009028       ??_C@_1M@KBMCINPM@?$AAh?$AAe?$AA?9?$AAi?$AAl@ 0000000180054028     libucrt:lcidtoname_downlevel.obj
 0002:00009038       ??_C@_1M@BBPHKFPJ@?$AAh?$AAi?$AA?9?$AAi?$AAn@ 0000000180054038     libucrt:lcidtoname_downlevel.obj
 0002:00009048       ??_C@_1M@PMBNDPHD@?$AAh?$AAr?$AA?9?$AAb?$AAa@ 0000000180054048     libucrt:lcidtoname_downlevel.obj
 0002:00009058       ??_C@_1M@BPCKOEGE@?$AAh?$AAr?$AA?9?$AAh?$AAr@ 0000000180054058     libucrt:lcidtoname_downlevel.obj
 0002:00009068       ??_C@_1M@GACBMHKE@?$AAh?$AAu?$AA?9?$AAh?$AAu@ 0000000180054068     libucrt:lcidtoname_downlevel.obj
 0002:00009078       ??_C@_1M@MILPAJJC@?$AAh?$AAy?$AA?9?$AAa?$AAm@ 0000000180054078     libucrt:lcidtoname_downlevel.obj
 0002:00009088       ??_C@_1M@BABBICEC@?$AAi?$AAd?$AA?9?$AAi?$AAd@ 0000000180054088     libucrt:lcidtoname_downlevel.obj
 0002:00009098       ??_C@_1M@BIKNHHPF@?$AAi?$AAs?$AA?9?$AAi?$AAs@ 0000000180054098     libucrt:lcidtoname_downlevel.obj
 0002:000090a8       ??_C@_1M@NMPCJPHE@?$AAi?$AAt?$AA?9?$AAc?$AAh@ 00000001800540a8     libucrt:lcidtoname_downlevel.obj
 0002:000090b8       ??_C@_1M@GHKGFEDF@?$AAi?$AAt?$AA?9?$AAi?$AAt@ 00000001800540b8     libucrt:lcidtoname_downlevel.obj
 0002:000090c8       ??_C@_1M@NIEJCJJA@?$AAj?$AAa?$AA?9?$AAj?$AAp@ 00000001800540c8     libucrt:lcidtoname_downlevel.obj
 0002:000090d8       ??_C@_1M@JILFNBIM@?$AAk?$AAa?$AA?9?$AAg?$AAe@ 00000001800540d8     libucrt:lcidtoname_downlevel.obj
 0002:000090e8       ??_C@_1M@PACPMGPH@?$AAk?$AAk?$AA?9?$AAk?$AAz@ 00000001800540e8     libucrt:lcidtoname_downlevel.obj
 0002:000090f8       ??_C@_1M@IELFGMHA@?$AAk?$AAn?$AA?9?$AAi?$AAn@ 00000001800540f8     libucrt:lcidtoname_downlevel.obj
 0002:00009108       ??_C@_1O@IBBJHCH@?$AAk?$AAo?$AAk?$AA?9?$AAi?$AAn@ 0000000180054108     libucrt:lcidtoname_downlevel.obj
 0002:00009118       ??_C@_1M@DMHAEOGC@?$AAk?$AAo?$AA?9?$AAk?$AAr@ 0000000180054118     libucrt:lcidtoname_downlevel.obj
 0002:00009128       ??_C@_1M@HBAHBIGA@?$AAk?$AAy?$AA?9?$AAk?$AAg@ 0000000180054128     libucrt:lcidtoname_downlevel.obj
 0002:00009138       ??_C@_1M@KPMILCJG@?$AAl?$AAt?$AA?9?$AAl?$AAt@ 0000000180054138     libucrt:lcidtoname_downlevel.obj
 0002:00009148       ??_C@_1M@BDEKKCA@?$AAl?$AAv?$AA?9?$AAl?$AAv@ 0000000180054148     libucrt:lcidtoname_downlevel.obj
 0002:00009158       ??_C@_1M@ELCKCCJJ@?$AAm?$AAi?$AA?9?$AAn?$AAz@ 0000000180054158     libucrt:lcidtoname_downlevel.obj
 0002:00009168       ??_C@_1M@CBOOLAPA@?$AAm?$AAk?$AA?9?$AAm?$AAk@ 0000000180054168     libucrt:lcidtoname_downlevel.obj
 0002:00009178       ??_C@_1M@GPHNBJKN@?$AAm?$AAl?$AA?9?$AAi?$AAn@ 0000000180054178     libucrt:lcidtoname_downlevel.obj
 0002:00009188       ??_C@_1M@PABJILIG@?$AAm?$AAn?$AA?9?$AAm?$AAn@ 0000000180054188     libucrt:lcidtoname_downlevel.obj
 0002:00009198       ??_C@_1M@FGBKKIPG@?$AAm?$AAr?$AA?9?$AAi?$AAn@ 0000000180054198     libucrt:lcidtoname_downlevel.obj
 0002:000091a8       ??_C@_1M@NDBPDDAL@?$AAm?$AAs?$AA?9?$AAb?$AAn@ 00000001800541a8     libucrt:lcidtoname_downlevel.obj
 0002:000091b8       ??_C@_1M@OPIHOOPI@?$AAm?$AAs?$AA?9?$AAm?$AAy@ 00000001800541b8     libucrt:lcidtoname_downlevel.obj
 0002:000091c8       ??_C@_1M@PPDBCNFM@?$AAm?$AAt?$AA?9?$AAm?$AAt@ 00000001800541c8     libucrt:lcidtoname_downlevel.obj
 0002:000091d8       ??_C@_1M@KDJDKMDD@?$AAn?$AAb?$AA?9?$AAn?$AAo@ 00000001800541d8     libucrt:lcidtoname_downlevel.obj
 0002:000091e8       ??_C@_1M@KFCFLMJP@?$AAn?$AAl?$AA?9?$AAb?$AAe@ 00000001800541e8     libucrt:lcidtoname_downlevel.obj
 0002:000091f8       ??_C@_1M@KPOPDDGO@?$AAn?$AAl?$AA?9?$AAn?$AAl@ 00000001800541f8     libucrt:lcidtoname_downlevel.obj
 0002:00009208       ??_C@_1M@LJKPEMLN@?$AAn?$AAn?$AA?9?$AAn?$AAo@ 0000000180054208     libucrt:lcidtoname_downlevel.obj
 0002:00009218       ??_C@_1M@BDGHHBFL@?$AAn?$AAs?$AA?9?$AAz?$AAa@ 0000000180054218     libucrt:lcidtoname_downlevel.obj
 0002:00009228       ??_C@_1M@IDEHOAP@?$AAp?$AAa?$AA?9?$AAi?$AAn@ 0000000180054228     libucrt:lcidtoname_downlevel.obj
 0002:00009238       ??_C@_1M@HDBKGOGH@?$AAp?$AAl?$AA?9?$AAp?$AAl@ 0000000180054238     libucrt:lcidtoname_downlevel.obj
 0002:00009248       ??_C@_1M@LJLLCMEH@?$AAp?$AAt?$AA?9?$AAb?$AAr@ 0000000180054248     libucrt:lcidtoname_downlevel.obj
 0002:00009258       ??_C@_1M@NCMONAAL@?$AAp?$AAt?$AA?9?$AAp?$AAt@ 0000000180054258     libucrt:lcidtoname_downlevel.obj
 0002:00009268       ??_C@_1O@EAKMAJDN@?$AAq?$AAu?$AAz?$AA?9?$AAb?$AAo@ 0000000180054268     libucrt:lcidtoname_downlevel.obj
 0002:00009278       ??_C@_1O@BHHPIGDN@?$AAq?$AAu?$AAz?$AA?9?$AAe?$AAc@ 0000000180054278     libucrt:lcidtoname_downlevel.obj
 0002:00009288       ??_C@_1O@GBAPEKMJ@?$AAq?$AAu?$AAz?$AA?9?$AAp?$AAe@ 0000000180054288     libucrt:lcidtoname_downlevel.obj
 0002:00009298       ??_C@_1M@CLGLEFBO@?$AAr?$AAo?$AA?9?$AAr?$AAo@ 0000000180054298     libucrt:lcidtoname_downlevel.obj
 0002:000092a8       ??_C@_1M@CEEDODME@?$AAr?$AAu?$AA?9?$AAr?$AAu@ 00000001800542a8     libucrt:lcidtoname_downlevel.obj
 0002:000092b8       ??_C@_1M@HPKKKMPP@?$AAs?$AAa?$AA?9?$AAi?$AAn@ 00000001800542b8     libucrt:lcidtoname_downlevel.obj
 0002:000092c8       ??_C@_1M@BKMAIGOJ@?$AAs?$AAe?$AA?9?$AAf?$AAi@ 00000001800542c8     libucrt:lcidtoname_downlevel.obj
 0002:000092d8       ??_C@_1M@NDPIFLFI@?$AAs?$AAe?$AA?9?$AAn?$AAo@ 00000001800542d8     libucrt:lcidtoname_downlevel.obj
 0002:000092e8       ??_C@_1M@DANKKHJ@?$AAs?$AAe?$AA?9?$AAs?$AAe@ 00000001800542e8     libucrt:lcidtoname_downlevel.obj
 0002:000092f8       ??_C@_1M@PNBLONPJ@?$AAs?$AAk?$AA?9?$AAs?$AAk@ 00000001800542f8     libucrt:lcidtoname_downlevel.obj
 0002:00009308       ??_C@_1M@LFMODOAL@?$AAs?$AAl?$AA?9?$AAs?$AAi@ 0000000180054308     libucrt:lcidtoname_downlevel.obj
 0002:00009318       ??_C@_1O@DFKOMPG@?$AAs?$AAm?$AAa?$AA?9?$AAn?$AAo@ 0000000180054318     libucrt:lcidtoname_downlevel.obj
 0002:00009328       ??_C@_1O@NDKPBNNH@?$AAs?$AAm?$AAa?$AA?9?$AAs?$AAe@ 0000000180054328     libucrt:lcidtoname_downlevel.obj
 0002:00009338       ??_C@_1O@PLLKBHAB@?$AAs?$AAm?$AAj?$AA?9?$AAn?$AAo@ 0000000180054338     libucrt:lcidtoname_downlevel.obj
 0002:00009348       ??_C@_1O@CLEPOGCA@?$AAs?$AAm?$AAj?$AA?9?$AAs?$AAe@ 0000000180054348     libucrt:lcidtoname_downlevel.obj
 0002:00009358       ??_C@_1O@DLGJGKMK@?$AAs?$AAm?$AAn?$AA?9?$AAf?$AAi@ 0000000180054358     libucrt:lcidtoname_downlevel.obj
 0002:00009368       ??_C@_1O@OJDJGAJC@?$AAs?$AAm?$AAs?$AA?9?$AAf?$AAi@ 0000000180054368     libucrt:lcidtoname_downlevel.obj
 0002:00009378       ??_C@_1M@BOFOGHPB@?$AAs?$AAq?$AA?9?$AAa?$AAl@ 0000000180054378     libucrt:lcidtoname_downlevel.obj
 0002:00009388       ??_C@_1BG@LJBBIPGB@?$AAs?$AAr?$AA?9?$AAb?$AAa?$AA?9?$AAc?$AAy?$AAr?$AAl@ 0000000180054388     libucrt:lcidtoname_downlevel.obj
 0002:000093a0       ??_C@_1BG@JLBENFOE@?$AAs?$AAr?$AA?9?$AAb?$AAa?$AA?9?$AAl?$AAa?$AAt?$AAn@ 00000001800543a0     libucrt:lcidtoname_downlevel.obj
 0002:000093b8       ??_C@_1BG@KODPNHE@?$AAs?$AAr?$AA?9?$AAs?$AAp?$AA?9?$AAc?$AAy?$AAr?$AAl@ 00000001800543b8     libucrt:lcidtoname_downlevel.obj
 0002:000093d0       ??_C@_1BG@CIOGKHPB@?$AAs?$AAr?$AA?9?$AAs?$AAp?$AA?9?$AAl?$AAa?$AAt?$AAn@ 00000001800543d0     libucrt:lcidtoname_downlevel.obj
 0002:000093e8       ??_C@_1M@NGFJLMAC@?$AAs?$AAv?$AA?9?$AAf?$AAi@ 00000001800543e8     libucrt:lcidtoname_downlevel.obj
 0002:000093f8       ??_C@_1M@MPJEJAJC@?$AAs?$AAv?$AA?9?$AAs?$AAe@ 00000001800543f8     libucrt:lcidtoname_downlevel.obj
 0002:00009408       ??_C@_1M@MPNDHLFK@?$AAs?$AAw?$AA?9?$AAk?$AAe@ 0000000180054408     libucrt:lcidtoname_downlevel.obj
 0002:00009418       ??_C@_1O@KOHBJJI@?$AAs?$AAy?$AAr?$AA?9?$AAs?$AAy@ 0000000180054418     libucrt:lcidtoname_downlevel.obj
 0002:00009428       ??_C@_1M@LDCEFHA@?$AAt?$AAa?$AA?9?$AAi?$AAn@ 0000000180054428     libucrt:lcidtoname_downlevel.obj
 0002:00009438       ??_C@_1M@CNJOFAK@?$AAt?$AAe?$AA?9?$AAi?$AAn@ 0000000180054438     libucrt:lcidtoname_downlevel.obj
 0002:00009448       ??_C@_1M@GNAECACD@?$AAt?$AAh?$AA?9?$AAt?$AAh@ 0000000180054448     libucrt:lcidtoname_downlevel.obj
 0002:00009458       ??_C@_1M@CHBIHOJO@?$AAt?$AAn?$AA?9?$AAz?$AAa@ 0000000180054458     libucrt:lcidtoname_downlevel.obj
 0002:00009468       ??_C@_1M@GCCMIGPJ@?$AAt?$AAr?$AA?9?$AAt?$AAr@ 0000000180054468     libucrt:lcidtoname_downlevel.obj
 0002:00009478       ??_C@_1M@CELMCNBK@?$AAt?$AAt?$AA?9?$AAr?$AAu@ 0000000180054478     libucrt:lcidtoname_downlevel.obj
 0002:00009488       ??_C@_1M@KLMCELGA@?$AAu?$AAk?$AA?9?$AAu?$AAa@ 0000000180054488     libucrt:lcidtoname_downlevel.obj
 0002:00009498       ??_C@_1M@EPAJJAJF@?$AAu?$AAr?$AA?9?$AAp?$AAk@ 0000000180054498     libucrt:lcidtoname_downlevel.obj
 0002:000094a8       ??_C@_1BG@GEGPMCDJ@?$AAu?$AAz?$AA?9?$AAu?$AAz?$AA?9?$AAc?$AAy?$AAr?$AAl@ 00000001800544a8     libucrt:lcidtoname_downlevel.obj
 0002:000094c0       ??_C@_1BG@EGGKJILM@?$AAu?$AAz?$AA?9?$AAu?$AAz?$AA?9?$AAl?$AAa?$AAt?$AAn@ 00000001800544c0     libucrt:lcidtoname_downlevel.obj
 0002:000094d8       ??_C@_1M@GFOCLFF@?$AAv?$AAi?$AA?9?$AAv?$AAn@ 00000001800544d8     libucrt:lcidtoname_downlevel.obj
 0002:000094e8       ??_C@_1M@CPAMEDFI@?$AAx?$AAh?$AA?9?$AAz?$AAa@ 00000001800544e8     libucrt:lcidtoname_downlevel.obj
 0002:000094f8       ??_C@_1O@EBKIFIGN@?$AAz?$AAh?$AA?9?$AAc?$AAh?$AAs@ 00000001800544f8     libucrt:lcidtoname_downlevel.obj
 0002:00009508       ??_C@_1O@NMHPGANE@?$AAz?$AAh?$AA?9?$AAc?$AAh?$AAt@ 0000000180054508     libucrt:lcidtoname_downlevel.obj
 0002:00009518       ??_C@_1M@LPINJOMC@?$AAz?$AAh?$AA?9?$AAc?$AAn@ 0000000180054518     libucrt:lcidtoname_downlevel.obj
 0002:00009528       ??_C@_1M@OCJEJODD@?$AAz?$AAh?$AA?9?$AAh?$AAk@ 0000000180054528     libucrt:lcidtoname_downlevel.obj
 0002:00009538       ??_C@_1M@DNDLJINH@?$AAz?$AAh?$AA?9?$AAm?$AAo@ 0000000180054538     libucrt:lcidtoname_downlevel.obj
 0002:00009548       ??_C@_1M@MBFDNDND@?$AAz?$AAh?$AA?9?$AAs?$AAg@ 0000000180054548     libucrt:lcidtoname_downlevel.obj
 0002:00009558       ??_C@_1M@IMEPLEPE@?$AAz?$AAh?$AA?9?$AAt?$AAw@ 0000000180054558     libucrt:lcidtoname_downlevel.obj
 0002:00009568       ??_C@_1M@BBGHNHJP@?$AAz?$AAu?$AA?9?$AAz?$AAa@ 0000000180054568     libucrt:lcidtoname_downlevel.obj
 0002:000095a0       ?large_power_data@?1??multiply_by_power_of_ten@__crt_strtox@@YA_NAEAUbig_integer@2@I@Z@4QBIB 00000001800545a0     libucrt:cfout.obj
 0002:00009eb0       ?large_power_indices@?1??multiply_by_power_of_ten@__crt_strtox@@YA_NAEAUbig_integer@2@I@Z@4QBUunpack_index@?1??12@YA_N0I@Z@B 0000000180054eb0     libucrt:cfout.obj
 0002:00009f48       ?small_powers_of_ten@?1??multiply_by_power_of_ten@__crt_strtox@@YA_NAEAUbig_integer@2@I@Z@4QBIB 0000000180054f48     libucrt:cfout.obj
 0002:00009f6c       ??_C@_01GBGANLPD@0@        0000000180054f6c     libucrt:cfout.obj
 0002:00009f70       ??_C@_05DNEBIAHO@1?$CDINF@ 0000000180054f70     libucrt:cfout.obj
 0002:00009f78       ??_C@_06IMKFLFPG@1?$CDQNAN@ 0000000180054f78     libucrt:cfout.obj
 0002:00009f80       ??_C@_06PGGFOGJG@1?$CDSNAN@ 0000000180054f80     libucrt:cfout.obj
 0002:00009f88       ??_C@_05PHHOCPM@1?$CDIND@  0000000180054f88     libucrt:cfout.obj
 0002:0000a1e0       ??_C@_1BA@BALFACEM@?$AAC?$AAO?$AAN?$AAO?$AAU?$AAT?$AA$@ 00000001800551e0     libucrt:initcon.obj
 0002:0000a1f0       __log10_256_lead           00000001800551f0     libucrt:log10_256_lead_tail_table.obj
 0002:0000aa00       __log10_256_tail           0000000180055a00     libucrt:log10_256_lead_tail_table.obj
 0002:0000b210       __log_F_inv_qword          0000000180056210     libucrt:log_f_inv_qword_table.obj
 0002:0000bc00       ??_R4type_info@@6B@        0000000180056c00     LIBCMT:std_type_info_static.obj
 0002:0000bc28       ??_R3type_info@@8          0000000180056c28     LIBCMT:std_type_info_static.obj
 0002:0000bc40       ??_R2type_info@@8          0000000180056c40     LIBCMT:std_type_info_static.obj
 0002:0000bc50       ??_R1A@?0A@EA@type_info@@8 0000000180056c50     LIBCMT:std_type_info_static.obj
 0002:0000bc78       ??_R4DNameNode@@6B@        0000000180056c78     libvcruntime:undname.obj
 0002:0000bca0       ??_R3DNameNode@@8          0000000180056ca0     libvcruntime:undname.obj
 0002:0000bcb8       ??_R2DNameNode@@8          0000000180056cb8     libvcruntime:undname.obj
 0002:0000bcc8       ??_R1A@?0A@EA@DNameNode@@8 0000000180056cc8     libvcruntime:undname.obj
 0002:0000bcf0       ??_R4charNode@@6B@         0000000180056cf0     libvcruntime:undname.obj
 0002:0000bd18       ??_R3charNode@@8           0000000180056d18     libvcruntime:undname.obj
 0002:0000bd30       ??_R2charNode@@8           0000000180056d30     libvcruntime:undname.obj
 0002:0000bd48       ??_R1A@?0A@EA@charNode@@8  0000000180056d48     libvcruntime:undname.obj
 0002:0000bd70       ??_R4pcharNode@@6B@        0000000180056d70     libvcruntime:undname.obj
 0002:0000bd98       ??_R3pcharNode@@8          0000000180056d98     libvcruntime:undname.obj
 0002:0000bdb0       ??_R2pcharNode@@8          0000000180056db0     libvcruntime:undname.obj
 0002:0000bdc8       ??_R1A@?0A@EA@pcharNode@@8 0000000180056dc8     libvcruntime:undname.obj
 0002:0000bdf0       ??_R4pDNameNode@@6B@       0000000180056df0     libvcruntime:undname.obj
 0002:0000be18       ??_R3pDNameNode@@8         0000000180056e18     libvcruntime:undname.obj
 0002:0000be30       ??_R2pDNameNode@@8         0000000180056e30     libvcruntime:undname.obj
 0002:0000be48       ??_R1A@?0A@EA@pDNameNode@@8 0000000180056e48     libvcruntime:undname.obj
 0002:0000be70       ??_R4DNameStatusNode@@6B@  0000000180056e70     libvcruntime:undname.obj
 0002:0000be98       ??_R3DNameStatusNode@@8    0000000180056e98     libvcruntime:undname.obj
 0002:0000beb0       ??_R2DNameStatusNode@@8    0000000180056eb0     libvcruntime:undname.obj
 0002:0000bec8       ??_R1A@?0A@EA@DNameStatusNode@@8 0000000180056ec8     libvcruntime:undname.obj
 0002:0000bef0       ??_R4pairNode@@6B@         0000000180056ef0     libvcruntime:undname.obj
 0002:0000bf18       ??_R3pairNode@@8           0000000180056f18     libvcruntime:undname.obj
 0002:0000bf30       ??_R2pairNode@@8           0000000180056f30     libvcruntime:undname.obj
 0002:0000bf48       ??_R1A@?0A@EA@pairNode@@8  0000000180056f48     libvcruntime:undname.obj
 0002:0000bf70       ??_R4exception@std@@6B@    0000000180056f70     libvcruntime:frame.obj
 0002:0000bf98       ??_R3exception@std@@8      0000000180056f98     libvcruntime:frame.obj
 0002:0000bfb0       ??_R2exception@std@@8      0000000180056fb0     libvcruntime:frame.obj
 0002:0000bfc0       ??_R1A@?0A@EA@exception@std@@8 0000000180056fc0     libvcruntime:frame.obj
 0002:0000bfe8       ??_R4bad_exception@std@@6B@ 0000000180056fe8     libvcruntime:frame.obj
 0002:0000c010       ??_R3bad_exception@std@@8  0000000180057010     libvcruntime:frame.obj
 0002:0000c028       ??_R2bad_exception@std@@8  0000000180057028     libvcruntime:frame.obj
 0002:0000c040       ??_R1A@?0A@EA@bad_exception@std@@8 0000000180057040     libvcruntime:frame.obj
 0002:0000c064       __volatile_metadata        0000000180057064     <linker-defined>
 0002:0000c658       __rtc_iaa                  0000000180057658     LIBCMT:initsect.obj
 0002:0000c660       __rtc_izz                  0000000180057660     LIBCMT:initsect.obj
 0002:0000c668       __rtc_taa                  0000000180057668     LIBCMT:initsect.obj
 0002:0000c670       __rtc_tzz                  0000000180057670     LIBCMT:initsect.obj
 0002:000107d8       _TI2?AVbad_exception@std@@ 000000018005b7d8     libvcruntime:frame.obj
 0002:000107f8       _CTA2?AVbad_exception@std@@ 000000018005b7f8     libvcruntime:frame.obj
 0002:00010810       _CT??_R0?AVbad_exception@std@@@8??0bad_exception@std@@QEAA@AEBV01@@Z24 000000018005b810     libvcruntime:frame.obj
 0002:00010838       _CT??_R0?AVexception@std@@@8??0exception@std@@QEAA@AEBV01@@Z24 000000018005b838     libvcruntime:frame.obj
 0002:0001085c       __DELAY_IMPORT_DESCRIPTOR_physxcommon_64_dll 000000018005b85c     PhysXCommon_64:PhysXCommon_64.dll
 0002:0001087c       __DELAY_IMPORT_DESCRIPTOR_physxfoundation_64_dll 000000018005b87c     PhysXFoundation_64:PhysXFoundation_64.dll
 0002:0001089c       __NULL_DELAY_IMPORT_DESCRIPTOR 000000018005b89c     PhysXCommon_64:PhysXCommon_64.dll
 0002:000109e0       \177PhysXCommon_64_NULL_THUNK_DATA_DLN 000000018005b9e0     PhysXCommon_64:PhysXCommon_64.dll
 0002:00010a40       \177PhysXFoundation_64_NULL_THUNK_DATA_DLN 000000018005ba40     PhysXFoundation_64:PhysXFoundation_64.dll
 0002:000113a0       \177PhysXCommon_64_NULL_THUNK_DATA_DLB 000000018005c3a0     PhysXCommon_64:PhysXCommon_64.dll
 0002:000114c8       \177PhysXFoundation_64_NULL_THUNK_DATA_DLB 000000018005c4c8     PhysXFoundation_64:PhysXFoundation_64.dll
 0002:00013350       __IMPORT_DESCRIPTOR_KERNEL32 000000018005e350     kernel32:KERNEL32.dll
 0002:00013364       __NULL_IMPORT_DESCRIPTOR   000000018005e364     kernel32:KERNEL32.dll
 0003:00000008       __pfnDliNotifyHook2        000000018005f008     WindowsCookingDelayLoadHook.obj
 0003:00000010       _fltused                   000000018005f010     LIBCMT:fltused.obj
 0003:00000020       __isa_available            000000018005f020     LIBCMT:cpu_disp.obj
 0003:00000024       __isa_enabled              000000018005f024     LIBCMT:cpu_disp.obj
 0003:00000028       __memset_fast_string_threshold 000000018005f028     LIBCMT:cpu_disp.obj
 0003:00000030       __memset_nt_threshold      000000018005f030     LIBCMT:cpu_disp.obj
 0003:00000038       __isa_inverted             000000018005f038     LIBCMT:cpu_disp.obj
 0003:00000040       __scrt_native_dllmain_reason 000000018005f040     LIBCMT:utility.obj
 0003:00000080       __security_cookie          000000018005f080     LIBCMT:gs_cookie.obj
 0003:000000c0       __security_cookie_complement 000000018005f0c0     LIBCMT:gs_cookie.obj
 0003:000000f0       __abort_behavior           000000018005f0f0     libucrt:abort.obj
 0003:00000120       __acrt_initial_multibyte_data 000000018005f120     libucrt:mbctype.obj
 0003:00000660       __acrt_initial_locale_data 000000018005f660     libucrt:nlsdata.obj
 0003:000007b8       __acrt_initial_locale_pointers 000000018005f7b8     libucrt:nlsdata.obj
 0003:000007c8       __acrt_wide_c_locale_string 000000018005f7c8     libucrt:nlsdata.obj
 0003:000007d0       _iob                       000000018005f7d0     libucrt:_file.obj
 0003:000008e0       __globallocalestatus       000000018005f8e0     libucrt:glstatus.obj
 0003:000008f0       __acrt_lconv_c             000000018005f8f0     libucrt:localeconv.obj
 0003:00000988       __acrt_lconv_static_decimal 000000018005f988     libucrt:localeconv.obj
 0003:0000098c       __acrt_lconv_static_W_decimal 000000018005f98c     libucrt:localeconv.obj
 0003:00000990       _lookuptrailbytes          000000018005f990     libucrt:read.obj
 0003:00000aa0       ??_R0?AVAdjEdge@@@8        000000018005faa0     Adjacencies.obj
 0003:00000ac0       ??_R0I@8                   000000018005fac0     Adjacencies.obj
 0003:00000ad8       ??_R0?AVAdjTriangle@physx@@@8 000000018005fad8     Adjacencies.obj
 0003:00000b00       ??_R0?AVCooking@physx@@@8  000000018005fb00     Cooking.obj
 0003:00000b28       ??_R0?AVHeightField@Gu@physx@@@8 000000018005fb28     Cooking.obj
 0003:00000b58       ??_R0?AVQuickHullConvexHullLib@physx@@@8 000000018005fb58     Cooking.obj
 0003:00000b90       ??_R0?AUPxDebugLine@physx@@@8 000000018005fb90     Cooking.obj
 0003:00000bb8       ??_R0M@8                   000000018005fbb8     CookingUtils.obj
 0003:00000bd0       ??_R0?AUEdgeData@Gu@physx@@@8 000000018005fbd0     EdgeList.obj
 0003:00000bf8       ??_R0?AUEdgeTriangleData@Gu@physx@@@8 000000018005fbf8     EdgeList.obj
 0003:00000c28       ??_R0?AVQuantizerImpl@@@8  000000018005fc28     Quantizer.obj
 0003:00000c50       ??_R0?AVPxVec3@physx@@@8   000000018005fc50     Quantizer.obj
 0003:00000c78       ??_R0?AUSlab@NodeAllocator@Gu@physx@@@8 000000018005fc78     BVHStructureBuilder.obj
 0003:00000cb0       ??_R0?AURTreeNodeQ@Gu@physx@@@8 000000018005fcb0     RTreeCooking.obj
 0003:00000ce0       ??_R0?AUInterval@physx@@@8 000000018005fce0     RTreeCooking.obj
 0003:00000d08       ??_R0?AURTreeNodeNQ@physx@@@8 000000018005fd08     RTreeCooking.obj
 0003:00000d30       ??_R0?AUPxBounds3V@physx@@@8 000000018005fd30     RTreeCooking.obj
 0003:00000d58       ??_R0?AVEdgeListBuilder@Gu@physx@@@8 000000018005fd58     TriangleMeshBuilder.obj
 0003:00000d88       ??_R0?AVBV32Tree@Gu@physx@@@8 000000018005fd88     TriangleMeshBuilder.obj
 0003:00000db0       ??_R0E@8                   000000018005fdb0     TriangleMeshBuilder.obj
 0003:00000dc8       ??_R0G@8                   000000018005fdc8     TriangleMeshBuilder.obj
 0003:00000de0       ??_R0?AUEdgeTriLookup@physx@@@8 000000018005fde0     TriangleMeshBuilder.obj
 0003:00000e10       ??_R0?AUEdgeDescData@Gu@physx@@@8 000000018005fe10     ConvexHullBuilder.obj
 0003:00000e40       ??_R0_N@8                  000000018005fe40     ConvexHullBuilder.obj
 0003:00000e58       ??_R0?AVConvexHull@physx@@@8 000000018005fe58     ConvexHullUtils.obj
 0003:00000e80       ??_R0?AVHalfEdge@ConvexHull@physx@@@8 000000018005fe80     ConvexHullUtils.obj
 0003:00000eb0       ??_R0?AVPxPlane@physx@@@8  000000018005feb0     ConvexHullUtils.obj
 0003:00000ed8       ??_R0?AVBigConvexData@physx@@@8 000000018005fed8     ConvexMeshBuilder.obj
 0003:00000f08       ??_R0?AUHullTriangleData@physx@@@8 000000018005ff08     ConvexPolygonsBuilder.obj
 0003:00000f38       ??_R0?AVPair@@@8           000000018005ff38     ConvexPolygonsBuilder.obj
 0003:00000f58       ??_R0?AVQuickHull@local@@@8 000000018005ff58     QuickHullConvexHullLib.obj
 0003:00000f80       ??_R0?AUExpandPoint@local@@@8 000000018005ff80     QuickHullConvexHullLib.obj
 0003:00000fa8       ??_R0PEAUQuickHullFace@local@@@8 000000018005ffa8     QuickHullConvexHullLib.obj
 0003:00000fd8       ??_R0PEAUQuickHullHalfEdge@local@@@8 000000018005ffd8     QuickHullConvexHullLib.obj
 0003:00001008       ??_R0PEAUQuickHullVertex@local@@@8 0000000180060008     QuickHullConvexHullLib.obj
 0003:00001038       ??_R0?AVbad_exception@std@@@8 0000000180060038     libvcruntime:frame.obj
 0003:00001060       ??_R0?AVexception@std@@@8  0000000180060060     libvcruntime:frame.obj
 0003:00001088       ??_R0?AVtype_info@@@8      0000000180060088     LIBCMT:std_type_info_static.obj
 0003:000010a8       ??_R0?AVDNameNode@@@8      00000001800600a8     libvcruntime:undname.obj
 0003:000010c8       ??_R0?AVcharNode@@@8       00000001800600c8     libvcruntime:undname.obj
 0003:000010e8       ??_R0?AVpcharNode@@@8      00000001800600e8     libvcruntime:undname.obj
 0003:00001108       ??_R0?AVpDNameNode@@@8     0000000180060108     libvcruntime:undname.obj
 0003:00001130       ??_R0?AVDNameStatusNode@@@8 0000000180060130     libvcruntime:undname.obj
 0003:00001158       ??_R0?AVpairNode@@@8       0000000180060158     libvcruntime:undname.obj
 0003:00001178       __imp_??0RadixSortBuffered@Cm@physx@@QEAA@XZ 0000000180060178     PhysXCommon_64:PhysXCommon_64.dll
 0003:00001180       __imp_??1BigConvexData@physx@@QEAA@XZ 0000000180060180     PhysXCommon_64:PhysXCommon_64.dll
 0003:00001188       __imp_??1RadixSortBuffered@Cm@physx@@UEAA@XZ 0000000180060188     PhysXCommon_64:PhysXCommon_64.dll
 0003:00001190       __imp_?Sort@RadixSortBuffered@Cm@physx@@QEAAAEAV123@PEBIIW4RadixHint@23@@Z 0000000180060190     PhysXCommon_64:PhysXCommon_64.dll
 0003:00001198       __imp_??0HeightField@Gu@physx@@QEAA@PEAVGuMeshFactory@2@@Z 0000000180060198     PhysXCommon_64:PhysXCommon_64.dll
 0003:000011a0       __imp_?loadFromDesc@HeightField@Gu@physx@@QEAA_NAEBVPxHeightFieldDesc@3@@Z 00000001800601a0     PhysXCommon_64:PhysXCommon_64.dll
 0003:000011a8       __imp_?computeCellCoordinates@HeightField@Gu@physx@@QEBAIMMAEAM0@Z 00000001800601a8     PhysXCommon_64:PhysXCommon_64.dll
 0003:000011b0       __imp_?releaseMemory@HeightField@Gu@physx@@QEAAXXZ 00000001800601b0     PhysXCommon_64:PhysXCommon_64.dll
 0003:000011b8       __imp_??1HeightField@Gu@physx@@UEAA@XZ 00000001800601b8     PhysXCommon_64:PhysXCommon_64.dll
 0003:000011c0       __imp_??0NodeAllocator@Gu@physx@@QEAA@XZ 00000001800601c0     PhysXCommon_64:PhysXCommon_64.dll
 0003:000011c8       __imp_??1NodeAllocator@Gu@physx@@QEAA@XZ 00000001800601c8     PhysXCommon_64:PhysXCommon_64.dll
 0003:000011d0       __imp_?release@NodeAllocator@Gu@physx@@QEAAXXZ 00000001800601d0     PhysXCommon_64:PhysXCommon_64.dll
 0003:000011d8       __imp_?buildAABBTree@Gu@physx@@YA_NAEAVAABBTreeBuildParams@12@AEAVNodeAllocator@12@AEAUBuildStats@12@AEAPEAI@Z 00000001800601d8     PhysXCommon_64:PhysXCommon_64.dll
 0003:000011e0       __imp_?writeDword@physx@@YAXI_NAEAVPxOutputStream@1@@Z 00000001800601e0     PhysXCommon_64:PhysXCommon_64.dll
 0003:000011e8       __imp_?writeFloatBuffer@physx@@YAXPEBMI_NAEAVPxOutputStream@1@@Z 00000001800601e8     PhysXCommon_64:PhysXCommon_64.dll
 0003:000011f0       __imp_?writeHeader@physx@@YA_NCCCCI_NAEAVPxOutputStream@1@@Z 00000001800601f0     PhysXCommon_64:PhysXCommon_64.dll
 0003:000011f8       __imp_?writeWord@physx@@YAXG_NAEAVPxOutputStream@1@@Z 00000001800601f8     PhysXCommon_64:PhysXCommon_64.dll
 0003:00001200       __imp_?writeFloat@physx@@YAXM_NAEAVPxOutputStream@1@@Z 0000000180060200     PhysXCommon_64:PhysXCommon_64.dll
 0003:00001208       __imp_?computeBoundsAroundVertices@Gu@physx@@YAXAEAVPxBounds3@2@IPEIBVPxVec3@2@@Z 0000000180060208     PhysXCommon_64:PhysXCommon_64.dll
 0003:00001210       __imp_??0SourceMesh@Gu@physx@@QEAA@XZ 0000000180060210     PhysXCommon_64:PhysXCommon_64.dll
 0003:00001218       __imp_??1SourceMesh@Gu@physx@@QEAA@XZ 0000000180060218     PhysXCommon_64:PhysXCommon_64.dll
 0003:00001220       __imp_??0BV4Tree@Gu@physx@@QEAA@XZ 0000000180060220     PhysXCommon_64:PhysXCommon_64.dll
 0003:00001228       __imp_??1BV4Tree@Gu@physx@@QEAA@XZ 0000000180060228     PhysXCommon_64:PhysXCommon_64.dll
 0003:00001230       __imp_??0BV32Tree@Gu@physx@@QEAA@XZ 0000000180060230     PhysXCommon_64:PhysXCommon_64.dll
 0003:00001238       __imp_??1BV32Tree@Gu@physx@@QEAA@XZ 0000000180060238     PhysXCommon_64:PhysXCommon_64.dll
 0003:00001240       __imp_?writeWordBuffer@physx@@YAXPEBGI_NAEAVPxOutputStream@1@@Z 0000000180060240     PhysXCommon_64:PhysXCommon_64.dll
 0003:00001248       __imp_?computeMaxIndex@physx@@YAIPEBII@Z 0000000180060248     PhysXCommon_64:PhysXCommon_64.dll
 0003:00001250       __imp_?storeIndices@physx@@YAXIIPEBIAEAVPxOutputStream@1@_N@Z 0000000180060250     PhysXCommon_64:PhysXCommon_64.dll
 0003:00001258       __imp_?BuildBV4Ex@Gu@physx@@YA_NAEAVBV4Tree@12@AEAVSourceMesh@12@MI@Z 0000000180060258     PhysXCommon_64:PhysXCommon_64.dll
 0003:00001260       __imp_?BuildBV32Ex@Gu@physx@@YA_NAEAVBV32Tree@12@AEAVSourceMesh@12@MI@Z 0000000180060260     PhysXCommon_64:PhysXCommon_64.dll
 0003:00001268       __imp_?computeMaxIndex@physx@@YAGPEBGI@Z 0000000180060268     PhysXCommon_64:PhysXCommon_64.dll
 0003:00001270       __imp_?WriteHeader@Gu@physx@@YA_NEEEEI_NAEAVPxOutputStream@2@@Z 0000000180060270     PhysXCommon_64:PhysXCommon_64.dll
 0003:00001278       __imp_?StoreIndices@Gu@physx@@YAXGIPEBGAEAVPxOutputStream@2@_N@Z 0000000180060278     PhysXCommon_64:PhysXCommon_64.dll
 0003:00001280       __imp_?CreateOffsets@BigConvexData@physx@@IEAAXXZ 0000000180060280     PhysXCommon_64:PhysXCommon_64.dll
 0003:00001288       __imp_?computeOBBPoints@Gu@physx@@YAXPEIAVPxVec3@2@AEBV32@1111@Z 0000000180060288     PhysXCommon_64:PhysXCommon_64.dll
 0003:00001290       __imp_??0BigConvexData@physx@@QEAA@XZ 0000000180060290     PhysXCommon_64:PhysXCommon_64.dll
 0003:00001298       \177PhysXCommon_64_NULL_THUNK_DATA_DLA 0000000180060298     PhysXCommon_64:PhysXCommon_64.dll
 0003:000012a0       __imp_PxGetFoundation      00000001800602a0     PhysXFoundation_64:PhysXFoundation_64.dll
 0003:000012a8       __imp_?deallocate@TempAllocator@shdfnd@physx@@QEAAXPEAX@Z 00000001800602a8     PhysXFoundation_64:PhysXFoundation_64.dll
 0003:000012b0       __imp_?getAllocator@shdfnd@physx@@YAAEAVPxAllocatorCallback@2@XZ 00000001800602b0     PhysXFoundation_64:PhysXFoundation_64.dll
 0003:000012b8       __imp_?getInstance@Foundation@shdfnd@physx@@SAAEAV123@XZ 00000001800602b8     PhysXFoundation_64:PhysXFoundation_64.dll
 0003:000012c0       __imp_?error@Foundation@shdfnd@physx@@QEAAXW4Enum@PxErrorCode@3@PEBDH1ZZ 00000001800602c0     PhysXFoundation_64:PhysXFoundation_64.dll
 0003:000012c8       __imp_?incRefCount@Foundation@shdfnd@physx@@SAXXZ 00000001800602c8     PhysXFoundation_64:PhysXFoundation_64.dll
 0003:000012d0       __imp_?decRefCount@Foundation@shdfnd@physx@@SAXXZ 00000001800602d0     PhysXFoundation_64:PhysXFoundation_64.dll
 0003:000012d8       __imp_??0FPUGuard@shdfnd@physx@@QEAA@XZ 00000001800602d8     PhysXFoundation_64:PhysXFoundation_64.dll
 0003:000012e0       __imp_??1FPUGuard@shdfnd@physx@@QEAA@XZ 00000001800602e0     PhysXFoundation_64:PhysXFoundation_64.dll
 0003:000012e8       __imp_?allocate@TempAllocator@shdfnd@physx@@QEAAPEAX_KPEBDH@Z 00000001800602e8     PhysXFoundation_64:PhysXFoundation_64.dll
 0003:000012f0       __imp_?PxDiagonalize@physx@@YA?AVPxVec3@1@AEBVPxMat33@1@AEAVPxQuat@1@@Z 00000001800602f0     PhysXFoundation_64:PhysXFoundation_64.dll
 0003:000012f8       \177PhysXFoundation_64_NULL_THUNK_DATA_DLA 00000001800602f8     PhysXFoundation_64:PhysXFoundation_64.dll
 0003:000016c8       __hmod__PhysXCommon_64_dll 00000001800606c8     PhysXCommon_64:PhysXCommon_64.dll
 0003:000016d0       __hmod__PhysXFoundation_64_dll 00000001800606d0     PhysXFoundation_64:PhysXFoundation_64.dll
 0003:000016d8       ?DloadKernel32@@3PEAUHINSTANCE__@@EA 00000001800606d8     Delayimp:delayhlp.obj
 0003:000016e0       ?DloadAcquireSRWLockExclusive@@3P6AXPEA_K@ZEA 00000001800606e0     Delayimp:delayhlp.obj
 0003:000016e8       ?DloadReleaseSRWLockExclusive@@3P6AXPEA_K@ZEA 00000001800606e8     Delayimp:delayhlp.obj
 0003:000016f0       ?DloadSrwLock@@3_KA        00000001800606f0     Delayimp:delayhlp.obj
 0003:000016f8       ?DloadSectionLockCount@@3KA 00000001800606f8     Delayimp:delayhlp.obj
 0003:000016fc       ?DloadSectionOldProtection@@3KA 00000001800606fc     Delayimp:delayhlp.obj
 0003:00001700       ?DloadSectionCommitPermanent@@3KA 0000000180060700     Delayimp:delayhlp.obj
 0003:00001710       ?__type_info_root_node@@3U__type_info_node@@A 0000000180060710     LIBCMT:tncleanup.obj
 0003:00001724       __favor                    0000000180060724     LIBCMT:cpu_disp.obj
 0003:00001728       __avx10_version            0000000180060728     LIBCMT:cpu_disp.obj
 0003:00001730       ?_OptionsStorage@?1??__local_stdio_printf_options@@9@4_KA 0000000180060730     LIBCMT:default_local_stdio_options.obj
 0003:00001738       ?_OptionsStorage@?1??__local_stdio_scanf_options@@9@4_KA 0000000180060738     LIBCMT:default_local_stdio_options.obj
 0003:00001740       __scrt_current_native_startup_state 0000000180060740     LIBCMT:utility.obj
 0003:00001748       __scrt_native_startup_lock 0000000180060748     LIBCMT:utility.obj
 0003:00001788       __scrt_debugger_hook_flag  0000000180060788     LIBCMT:utility_desktop.obj
 0003:00001790       ?__WinRTOutOfMemoryExceptionCallback@@3P6APEAXXZEA 0000000180060790     libvcruntime:ehhelpers.obj
 0003:00001798       __pPurecall                0000000180060798     libvcruntime:purevirt_data.obj
 0003:000019b8       _environ_table             00000001800609b8     libucrt:environment_initialization.obj
 0003:000019c0       _wenviron_table            00000001800609c0     libucrt:environment_initialization.obj
 0003:000019c8       __dcrt_initial_wide_environment 00000001800609c8     libucrt:environment_initialization.obj
 0003:000019d0       __dcrt_initial_narrow_environment 00000001800609d0     libucrt:environment_initialization.obj
 0003:000019d8       __acrt_atexit_table        00000001800609d8     libucrt:onexit.obj
 0003:000019f0       __acrt_at_quick_exit_table 00000001800609f0     libucrt:onexit.obj
 0003:00001a08       __fma3_is_available        0000000180060a08     libucrt:fma3_available.obj
 0003:00001a0c       __use_fma3_lib             0000000180060a0c     libucrt:fma3_available.obj
 0003:00001c50       _mbctype                   0000000180060c50     libucrt:mbctype.obj
 0003:00001c58       _mbcasemap                 0000000180060c58     libucrt:mbctype.obj
 0003:00001c60       __acrt_current_multibyte_data 0000000180060c60     libucrt:mbctype.obj
 0003:00001c70       _pgmptr                    0000000180060c70     libucrt:argv_data.obj
 0003:00001c78       __argc                     0000000180060c78     libucrt:argv_data.obj
 0003:00001c80       __argv                     0000000180060c80     libucrt:argv_data.obj
 0003:00001c88       __wargv                    0000000180060c88     libucrt:argv_data.obj
 0003:00001c90       _acmdln                    0000000180060c90     libucrt:argv_data.obj
 0003:00001c98       _wcmdln                    0000000180060c98     libucrt:argv_data.obj
 0003:00001e48       __acrt_heap                0000000180060e48     libucrt:heap_handle.obj
 0003:00001e50       __pioinfo                  0000000180060e50     libucrt:ioinit.obj
 0003:00002250       _nhandle                   0000000180061250     libucrt:ioinit.obj
 0003:00002288       __acrt_current_locale_data 0000000180061288     libucrt:nlsdata.obj
 0003:00002290       _nstream                   0000000180061290     libucrt:_file.obj
 0003:00002298       __piob                     0000000180061298     libucrt:_file.obj
 0003:000022a0       __acrt_stdout_buffer       00000001800612a0     libucrt:_sftbuf.obj
 0003:000022a8       __acrt_stderr_buffer       00000001800612a8     libucrt:_sftbuf.obj
 0003:000022c0       __acrt_locale_changed_data 00000001800612c0     libucrt:wsetlocale.obj
 0003:000022c8       __acrt_lconv_static_null   00000001800612c8     libucrt:localeconv.obj
 0003:000022cc       __acrt_lconv_static_W_null 00000001800612cc     libucrt:localeconv.obj
 0003:00002850       __scrt_ucrt_dll_is_in_use  0000000180061850     <common>
 0003:00002858       __dyn_tls_init_callback    0000000180061858     <common>
 0005:00000100       __common_ssin_reduction_data 0000000180066100     LIBCMT:svml_s_sin_data.obj
 0005:00000d00       __common_ssin_data         0000000180066d00     LIBCMT:svml_s_sin_data.obj

 entry point at        0001:00027db4

 Static symbols

 0000:fff95000       .debug$S                   0000000180000000     PhysXCooking_64.exp
 0000:fff95000       .debug$S                   0000000180000000     kernel32:KERNEL32.dll
 0000:fff95000       .debug$S                   0000000180000000     kernel32:KERNEL32.dll
 0000:fff95000       .debug$S                   0000000180000000     kernel32:KERNEL32.dll
 0000:fff95000       .debug$S                   0000000180000000     kernel32:KERNEL32.dll
 0000:fff95000       .debug$S                   0000000180000000     kernel32:KERNEL32.dll
 0000:fff95000       .debug$S                   0000000180000000     kernel32:KERNEL32.dll
 0000:fff95000       .debug$S                   0000000180000000     kernel32:KERNEL32.dll
 0000:fff95000       .debug$S                   0000000180000000     kernel32:KERNEL32.dll
 0000:fff95000       .debug$S                   0000000180000000     kernel32:KERNEL32.dll
 0000:fff95000       .debug$S                   0000000180000000     kernel32:KERNEL32.dll
 0000:fff95000       .debug$S                   0000000180000000     kernel32:KERNEL32.dll
 0000:fff95000       .debug$S                   0000000180000000     kernel32:KERNEL32.dll
 0000:fff95000       .debug$S                   0000000180000000     kernel32:KERNEL32.dll
 0000:fff95000       .debug$S                   0000000180000000     kernel32:KERNEL32.dll
 0000:fff95000       .debug$S                   0000000180000000     kernel32:KERNEL32.dll
 0000:fff95000       .debug$S                   0000000180000000     kernel32:KERNEL32.dll
 0000:fff95000       .debug$S                   0000000180000000     kernel32:KERNEL32.dll
 0000:fff95000       .debug$S                   0000000180000000     kernel32:KERNEL32.dll
 0000:fff95000       .debug$S                   0000000180000000     kernel32:KERNEL32.dll
 0000:fff95000       .debug$S                   0000000180000000     kernel32:KERNEL32.dll
 0000:fff95000       .debug$S                   0000000180000000     kernel32:KERNEL32.dll
 0000:fff95000       .debug$S                   0000000180000000     kernel32:KERNEL32.dll
 0000:fff95000       .debug$S                   0000000180000000     kernel32:KERNEL32.dll
 0000:fff95000       .debug$S                   0000000180000000     kernel32:KERNEL32.dll
 0000:fff95000       .debug$S                   0000000180000000     kernel32:KERNEL32.dll
 0000:fff95000       .debug$S                   0000000180000000     kernel32:KERNEL32.dll
 0000:fff95000       .debug$S                   0000000180000000     kernel32:KERNEL32.dll
 0000:fff95000       .debug$S                   0000000180000000     kernel32:KERNEL32.dll
 0000:fff95000       .debug$S                   0000000180000000     kernel32:KERNEL32.dll
 0000:fff95000       .debug$S                   0000000180000000     kernel32:KERNEL32.dll
 0000:fff95000       .debug$S                   0000000180000000     kernel32:KERNEL32.dll
 0000:fff95000       .debug$S                   0000000180000000     kernel32:KERNEL32.dll
 0000:fff95000       .debug$S                   0000000180000000     kernel32:KERNEL32.dll
 0000:fff95000       .debug$S                   0000000180000000     kernel32:KERNEL32.dll
 0000:fff95000       .debug$S                   0000000180000000     kernel32:KERNEL32.dll
 0000:fff95000       .debug$S                   0000000180000000     kernel32:KERNEL32.dll
 0000:fff95000       .debug$S                   0000000180000000     kernel32:KERNEL32.dll
 0000:fff95000       .debug$S                   0000000180000000     kernel32:KERNEL32.dll
 0000:fff95000       .debug$S                   0000000180000000     kernel32:KERNEL32.dll
 0000:fff95000       .debug$S                   0000000180000000     kernel32:KERNEL32.dll
 0000:fff95000       .debug$S                   0000000180000000     kernel32:KERNEL32.dll
 0000:fff95000       .debug$S                   0000000180000000     kernel32:KERNEL32.dll
 0000:fff95000       .debug$S                   0000000180000000     kernel32:KERNEL32.dll
 0000:fff95000       .debug$S                   0000000180000000     kernel32:KERNEL32.dll
 0000:fff95000       .debug$S                   0000000180000000     kernel32:KERNEL32.dll
 0000:fff95000       .debug$S                   0000000180000000     kernel32:KERNEL32.dll
 0000:fff95000       .debug$S                   0000000180000000     kernel32:KERNEL32.dll
 0000:fff95000       .debug$S                   0000000180000000     kernel32:KERNEL32.dll
 0000:fff95000       .debug$S                   0000000180000000     kernel32:KERNEL32.dll
 0000:fff95000       .debug$S                   0000000180000000     kernel32:KERNEL32.dll
 0000:fff95000       .debug$S                   0000000180000000     kernel32:KERNEL32.dll
 0000:fff95000       .debug$S                   0000000180000000     kernel32:KERNEL32.dll
 0000:fff95000       .debug$S                   0000000180000000     kernel32:KERNEL32.dll
 0000:fff95000       .debug$S                   0000000180000000     kernel32:KERNEL32.dll
 0000:fff95000       .debug$S                   0000000180000000     kernel32:KERNEL32.dll
 0000:fff95000       .debug$S                   0000000180000000     kernel32:KERNEL32.dll
 0000:fff95000       .debug$S                   0000000180000000     kernel32:KERNEL32.dll
 0000:fff95000       .debug$S                   0000000180000000     kernel32:KERNEL32.dll
 0000:fff95000       .debug$S                   0000000180000000     kernel32:KERNEL32.dll
 0000:fff95000       .debug$S                   0000000180000000     kernel32:KERNEL32.dll
 0000:fff95000       .debug$S                   0000000180000000     kernel32:KERNEL32.dll
 0000:fff95000       .debug$S                   0000000180000000     kernel32:KERNEL32.dll
 0000:fff95000       .debug$S                   0000000180000000     kernel32:KERNEL32.dll
 0000:fff95000       .debug$S                   0000000180000000     kernel32:KERNEL32.dll
 0000:fff95000       .debug$S                   0000000180000000     kernel32:KERNEL32.dll
 0000:fff95000       .debug$S                   0000000180000000     kernel32:KERNEL32.dll
 0000:fff95000       .debug$S                   0000000180000000     kernel32:KERNEL32.dll
 0000:fff95000       .debug$S                   0000000180000000     kernel32:KERNEL32.dll
 0000:fff95000       .debug$S                   0000000180000000     kernel32:KERNEL32.dll
 0000:fff95000       .debug$S                   0000000180000000     kernel32:KERNEL32.dll
 0000:fff95000       .debug$S                   0000000180000000     kernel32:KERNEL32.dll
 0000:fff95000       .debug$S                   0000000180000000     kernel32:KERNEL32.dll
 0000:fff95000       .debug$S                   0000000180000000     kernel32:KERNEL32.dll
 0000:fff95000       .debug$S                   0000000180000000     kernel32:KERNEL32.dll
 0000:fff95000       .debug$S                   0000000180000000     kernel32:KERNEL32.dll
 0000:fff95000       .debug$S                   0000000180000000     kernel32:KERNEL32.dll
 0000:fff95000       .debug$S                   0000000180000000     kernel32:KERNEL32.dll
 0000:fff95000       .debug$S                   0000000180000000     kernel32:KERNEL32.dll
 0000:fff95000       .debug$S                   0000000180000000     kernel32:KERNEL32.dll
 0000:fff95000       .debug$S                   0000000180000000     kernel32:KERNEL32.dll
 0000:fff95000       .debug$S                   0000000180000000     kernel32:KERNEL32.dll
 0000:fff95000       .debug$S                   0000000180000000     kernel32:KERNEL32.dll
 0000:fff95000       .debug$S                   0000000180000000     kernel32:KERNEL32.dll
 0000:fff95000       .debug$S                   0000000180000000     kernel32:KERNEL32.dll
 0000:fff95000       .debug$S                   0000000180000000     kernel32:KERNEL32.dll
 0000:fff95000       .debug$S                   0000000180000000     kernel32:KERNEL32.dll
 0000:fff95000       .debug$S                   0000000180000000     kernel32:KERNEL32.dll
 0000:fff95000       .debug$S                   0000000180000000     kernel32:KERNEL32.dll
 0000:fff95000       .debug$S                   0000000180000000     kernel32:KERNEL32.dll
 0000:fff95000       .debug$S                   0000000180000000     kernel32:KERNEL32.dll
 0000:fff95000       .debug$S                   0000000180000000     kernel32:KERNEL32.dll
 0000:fff95000       .debug$S                   0000000180000000     kernel32:KERNEL32.dll
 0000:fff95000       .debug$S                   0000000180000000     kernel32:KERNEL32.dll
 0000:fff95000       .debug$S                   0000000180000000     kernel32:KERNEL32.dll
 0000:fff95000       .debug$S                   0000000180000000     PhysXCommon_64:PhysXCommon_64.dll
 0000:fff95000       .debug$S                   0000000180000000     PhysXCommon_64:PhysXCommon_64.dll
 0000:fff95000       .debug$S                   0000000180000000     PhysXCommon_64:PhysXCommon_64.dll
 0000:fff95000       .debug$S                   0000000180000000     PhysXCommon_64:PhysXCommon_64.dll
 0000:fff95000       .debug$S                   0000000180000000     PhysXCommon_64:PhysXCommon_64.dll
 0000:fff95000       .debug$S                   0000000180000000     PhysXCommon_64:PhysXCommon_64.dll
 0000:fff95000       .debug$S                   0000000180000000     PhysXCommon_64:PhysXCommon_64.dll
 0000:fff95000       .debug$S                   0000000180000000     PhysXCommon_64:PhysXCommon_64.dll
 0000:fff95000       .debug$S                   0000000180000000     PhysXCommon_64:PhysXCommon_64.dll
 0000:fff95000       .debug$S                   0000000180000000     PhysXCommon_64:PhysXCommon_64.dll
 0000:fff95000       .debug$S                   0000000180000000     PhysXCommon_64:PhysXCommon_64.dll
 0000:fff95000       .debug$S                   0000000180000000     PhysXCommon_64:PhysXCommon_64.dll
 0000:fff95000       .debug$S                   0000000180000000     PhysXCommon_64:PhysXCommon_64.dll
 0000:fff95000       .debug$S                   0000000180000000     PhysXCommon_64:PhysXCommon_64.dll
 0000:fff95000       .debug$S                   0000000180000000     PhysXCommon_64:PhysXCommon_64.dll
 0000:fff95000       .debug$S                   0000000180000000     PhysXCommon_64:PhysXCommon_64.dll
 0000:fff95000       .debug$S                   0000000180000000     PhysXCommon_64:PhysXCommon_64.dll
 0000:fff95000       .debug$S                   0000000180000000     PhysXCommon_64:PhysXCommon_64.dll
 0000:fff95000       .debug$S                   0000000180000000     PhysXCommon_64:PhysXCommon_64.dll
 0000:fff95000       .debug$S                   0000000180000000     PhysXCommon_64:PhysXCommon_64.dll
 0000:fff95000       .debug$S                   0000000180000000     PhysXCommon_64:PhysXCommon_64.dll
 0000:fff95000       .debug$S                   0000000180000000     PhysXCommon_64:PhysXCommon_64.dll
 0000:fff95000       .debug$S                   0000000180000000     PhysXCommon_64:PhysXCommon_64.dll
 0000:fff95000       .debug$S                   0000000180000000     PhysXCommon_64:PhysXCommon_64.dll
 0000:fff95000       .debug$S                   0000000180000000     PhysXCommon_64:PhysXCommon_64.dll
 0000:fff95000       .debug$S                   0000000180000000     PhysXCommon_64:PhysXCommon_64.dll
 0000:fff95000       .debug$S                   0000000180000000     PhysXCommon_64:PhysXCommon_64.dll
 0000:fff95000       .debug$S                   0000000180000000     PhysXCommon_64:PhysXCommon_64.dll
 0000:fff95000       .debug$S                   0000000180000000     PhysXCommon_64:PhysXCommon_64.dll
 0000:fff95000       .debug$S                   0000000180000000     PhysXCommon_64:PhysXCommon_64.dll
 0000:fff95000       .debug$S                   0000000180000000     PhysXCommon_64:PhysXCommon_64.dll
 0000:fff95000       .debug$S                   0000000180000000     PhysXCommon_64:PhysXCommon_64.dll
 0000:fff95000       .debug$S                   0000000180000000     PhysXCommon_64:PhysXCommon_64.dll
 0000:fff95000       .debug$S                   0000000180000000     PhysXCommon_64:PhysXCommon_64.dll
 0000:fff95000       .debug$S                   0000000180000000     PhysXCommon_64:PhysXCommon_64.dll
 0000:fff95000       .debug$S                   0000000180000000     PhysXCommon_64:PhysXCommon_64.dll
 0000:fff95000       .debug$S                   0000000180000000     PhysXCommon_64:PhysXCommon_64.dll
 0000:fff95000       .debug$S                   0000000180000000     PhysXCommon_64:PhysXCommon_64.dll
 0000:fff95000       .debug$S                   0000000180000000     PhysXFoundation_64:PhysXFoundation_64.dll
 0000:fff95000       .debug$S                   0000000180000000     PhysXFoundation_64:PhysXFoundation_64.dll
 0000:fff95000       .debug$S                   0000000180000000     PhysXFoundation_64:PhysXFoundation_64.dll
 0000:fff95000       .debug$S                   0000000180000000     PhysXFoundation_64:PhysXFoundation_64.dll
 0000:fff95000       .debug$S                   0000000180000000     PhysXFoundation_64:PhysXFoundation_64.dll
 0000:fff95000       .debug$S                   0000000180000000     PhysXFoundation_64:PhysXFoundation_64.dll
 0000:fff95000       .debug$S                   0000000180000000     PhysXFoundation_64:PhysXFoundation_64.dll
 0000:fff95000       .debug$S                   0000000180000000     PhysXFoundation_64:PhysXFoundation_64.dll
 0000:fff95000       .debug$S                   0000000180000000     PhysXFoundation_64:PhysXFoundation_64.dll
 0000:fff95000       .debug$S                   0000000180000000     PhysXFoundation_64:PhysXFoundation_64.dll
 0000:fff95000       .debug$S                   0000000180000000     PhysXFoundation_64:PhysXFoundation_64.dll
 0001:00000000       ??__EmaxFError@_VecMathTests@aos@shdfnd@physx@@YAXXZ 0000000180001000 f   Cooking.obj
 0001:00000010       ??__EmaxV3Error@_VecMathTests@aos@shdfnd@physx@@YAXXZ 0000000180001010 f   Cooking.obj
 0001:00000020       ??__EmaxV4Error@_VecMathTests@aos@shdfnd@physx@@YAXXZ 0000000180001020 f   Cooking.obj
 0001:00000030       ??__EminFError@_VecMathTests@aos@shdfnd@physx@@YAXXZ 0000000180001030 f   Cooking.obj
 0001:00000040       ??__EminV3Error@_VecMathTests@aos@shdfnd@physx@@YAXXZ 0000000180001040 f   Cooking.obj
 0001:00000050       ??__EminV4Error@_VecMathTests@aos@shdfnd@physx@@YAXXZ 0000000180001050 f   Cooking.obj
 0001:00000060       ??__EmaxFError@_VecMathTests@aos@shdfnd@physx@@YAXXZ 0000000180001060 f   BVHStructureBuilder.obj
 0001:00000070       ??__EmaxV3Error@_VecMathTests@aos@shdfnd@physx@@YAXXZ 0000000180001070 f   BVHStructureBuilder.obj
 0001:00000080       ??__EmaxV4Error@_VecMathTests@aos@shdfnd@physx@@YAXXZ 0000000180001080 f   BVHStructureBuilder.obj
 0001:00000090       ??__EminFError@_VecMathTests@aos@shdfnd@physx@@YAXXZ 0000000180001090 f   BVHStructureBuilder.obj
 0001:000000a0       ??__EminV3Error@_VecMathTests@aos@shdfnd@physx@@YAXXZ 00000001800010a0 f   BVHStructureBuilder.obj
 0001:000000b0       ??__EminV4Error@_VecMathTests@aos@shdfnd@physx@@YAXXZ 00000001800010b0 f   BVHStructureBuilder.obj
 0001:000000c0       ??__EmaxFError@_VecMathTests@aos@shdfnd@physx@@YAXXZ 00000001800010c0 f   RTreeCooking.obj
 0001:000000d0       ??__EmaxV3Error@_VecMathTests@aos@shdfnd@physx@@YAXXZ 00000001800010d0 f   RTreeCooking.obj
 0001:000000e0       ??__EmaxV4Error@_VecMathTests@aos@shdfnd@physx@@YAXXZ 00000001800010e0 f   RTreeCooking.obj
 0001:000000f0       ??__EminFError@_VecMathTests@aos@shdfnd@physx@@YAXXZ 00000001800010f0 f   RTreeCooking.obj
 0001:00000100       ??__EminV3Error@_VecMathTests@aos@shdfnd@physx@@YAXXZ 0000000180001100 f   RTreeCooking.obj
 0001:00000110       ??__EminV4Error@_VecMathTests@aos@shdfnd@physx@@YAXXZ 0000000180001110 f   RTreeCooking.obj
 0001:00000120       ??__EmaxFError@_VecMathTests@aos@shdfnd@physx@@YAXXZ 0000000180001120 f   MeshBuilder.obj
 0001:00000130       ??__EmaxV3Error@_VecMathTests@aos@shdfnd@physx@@YAXXZ 0000000180001130 f   MeshBuilder.obj
 0001:00000140       ??__EmaxV4Error@_VecMathTests@aos@shdfnd@physx@@YAXXZ 0000000180001140 f   MeshBuilder.obj
 0001:00000150       ??__EminFError@_VecMathTests@aos@shdfnd@physx@@YAXXZ 0000000180001150 f   MeshBuilder.obj
 0001:00000160       ??__EminV3Error@_VecMathTests@aos@shdfnd@physx@@YAXXZ 0000000180001160 f   MeshBuilder.obj
 0001:00000170       ??__EminV4Error@_VecMathTests@aos@shdfnd@physx@@YAXXZ 0000000180001170 f   MeshBuilder.obj
 0001:00000180       ??__EmaxFError@_VecMathTests@aos@shdfnd@physx@@YAXXZ 0000000180001180 f   TriangleMeshBuilder.obj
 0001:00000190       ??__EmaxV3Error@_VecMathTests@aos@shdfnd@physx@@YAXXZ 0000000180001190 f   TriangleMeshBuilder.obj
 0001:000001a0       ??__EmaxV4Error@_VecMathTests@aos@shdfnd@physx@@YAXXZ 00000001800011a0 f   TriangleMeshBuilder.obj
 0001:000001b0       ??__EminFError@_VecMathTests@aos@shdfnd@physx@@YAXXZ 00000001800011b0 f   TriangleMeshBuilder.obj
 0001:000001c0       ??__EminV3Error@_VecMathTests@aos@shdfnd@physx@@YAXXZ 00000001800011c0 f   TriangleMeshBuilder.obj
 0001:000001d0       ??__EminV4Error@_VecMathTests@aos@shdfnd@physx@@YAXXZ 00000001800011d0 f   TriangleMeshBuilder.obj
 0001:000001e0       ??__EmaxFError@_VecMathTests@aos@shdfnd@physx@@YAXXZ 00000001800011e0 f   BigConvexDataBuilder.obj
 0001:000001f0       ??__EmaxV3Error@_VecMathTests@aos@shdfnd@physx@@YAXXZ 00000001800011f0 f   BigConvexDataBuilder.obj
 0001:00000200       ??__EmaxV4Error@_VecMathTests@aos@shdfnd@physx@@YAXXZ 0000000180001200 f   BigConvexDataBuilder.obj
 0001:00000210       ??__EminFError@_VecMathTests@aos@shdfnd@physx@@YAXXZ 0000000180001210 f   BigConvexDataBuilder.obj
 0001:00000220       ??__EminV3Error@_VecMathTests@aos@shdfnd@physx@@YAXXZ 0000000180001220 f   BigConvexDataBuilder.obj
 0001:00000230       ??__EminV4Error@_VecMathTests@aos@shdfnd@physx@@YAXXZ 0000000180001230 f   BigConvexDataBuilder.obj
 0001:00000240       ??__EmaxFError@_VecMathTests@aos@shdfnd@physx@@YAXXZ 0000000180001240 f   ConvexHullBuilder.obj
 0001:00000250       ??__EmaxV3Error@_VecMathTests@aos@shdfnd@physx@@YAXXZ 0000000180001250 f   ConvexHullBuilder.obj
 0001:00000260       ??__EmaxV4Error@_VecMathTests@aos@shdfnd@physx@@YAXXZ 0000000180001260 f   ConvexHullBuilder.obj
 0001:00000270       ??__EminFError@_VecMathTests@aos@shdfnd@physx@@YAXXZ 0000000180001270 f   ConvexHullBuilder.obj
 0001:00000280       ??__EminV3Error@_VecMathTests@aos@shdfnd@physx@@YAXXZ 0000000180001280 f   ConvexHullBuilder.obj
 0001:00000290       ??__EminV4Error@_VecMathTests@aos@shdfnd@physx@@YAXXZ 0000000180001290 f   ConvexHullBuilder.obj
 0001:000002a0       ??__EmaxFError@_VecMathTests@aos@shdfnd@physx@@YAXXZ 00000001800012a0 f   ConvexHullUtils.obj
 0001:000002b0       ??__EmaxV3Error@_VecMathTests@aos@shdfnd@physx@@YAXXZ 00000001800012b0 f   ConvexHullUtils.obj
 0001:000002c0       ??__EmaxV4Error@_VecMathTests@aos@shdfnd@physx@@YAXXZ 00000001800012c0 f   ConvexHullUtils.obj
 0001:000002d0       ??__EminFError@_VecMathTests@aos@shdfnd@physx@@YAXXZ 00000001800012d0 f   ConvexHullUtils.obj
 0001:000002e0       ??__EminV3Error@_VecMathTests@aos@shdfnd@physx@@YAXXZ 00000001800012e0 f   ConvexHullUtils.obj
 0001:000002f0       ??__EminV4Error@_VecMathTests@aos@shdfnd@physx@@YAXXZ 00000001800012f0 f   ConvexHullUtils.obj
 0001:00000300       ??__EmaxFError@_VecMathTests@aos@shdfnd@physx@@YAXXZ 0000000180001300 f   ConvexMeshBuilder.obj
 0001:00000310       ??__EmaxV3Error@_VecMathTests@aos@shdfnd@physx@@YAXXZ 0000000180001310 f   ConvexMeshBuilder.obj
 0001:00000320       ??__EmaxV4Error@_VecMathTests@aos@shdfnd@physx@@YAXXZ 0000000180001320 f   ConvexMeshBuilder.obj
 0001:00000330       ??__EminFError@_VecMathTests@aos@shdfnd@physx@@YAXXZ 0000000180001330 f   ConvexMeshBuilder.obj
 0001:00000340       ??__EminV3Error@_VecMathTests@aos@shdfnd@physx@@YAXXZ 0000000180001340 f   ConvexMeshBuilder.obj
 0001:00000350       ??__EminV4Error@_VecMathTests@aos@shdfnd@physx@@YAXXZ 0000000180001350 f   ConvexMeshBuilder.obj
 0001:00000360       ??__EmaxFError@_VecMathTests@aos@shdfnd@physx@@YAXXZ 0000000180001360 f   VolumeIntegration.obj
 0001:00000370       ??__EmaxV3Error@_VecMathTests@aos@shdfnd@physx@@YAXXZ 0000000180001370 f   VolumeIntegration.obj
 0001:00000380       ??__EmaxV4Error@_VecMathTests@aos@shdfnd@physx@@YAXXZ 0000000180001380 f   VolumeIntegration.obj
 0001:00000390       ??__EminFError@_VecMathTests@aos@shdfnd@physx@@YAXXZ 0000000180001390 f   VolumeIntegration.obj
 0001:000003a0       ??__EminV3Error@_VecMathTests@aos@shdfnd@physx@@YAXXZ 00000001800013a0 f   VolumeIntegration.obj
 0001:000003b0       ??__EminV4Error@_VecMathTests@aos@shdfnd@physx@@YAXXZ 00000001800013b0 f   VolumeIntegration.obj
 0001:00000640       ?CreateDatabase@@YA_NPEAVAdjTriangle@physx@@IPEBVAdjEdge@@AEBUADJACENCIESCREATE@2@@Z 0000000180001640 f   Adjacencies.obj
 0001:00000cb0       ?UpdateLink@@YA_NIIIIPEAVAdjTriangle@physx@@AEBUADJACENCIESCREATE@2@@Z 0000000180001cb0 f   Adjacencies.obj
 0001:00008f30       ?buildFromBounds@physx@@YAXAEAURTree@Gu@1@PEBUPxBounds3V@1@IAEAV?$Array@IV?$ReflectionAllocator@I@shdfnd@physx@@@shdfnd@1@PEAURemapCallback@RTreeCooker@1@AEAT__m128@@4MW4Enum@PxMeshCookingHint@1@@Z 0000000180009f30 f   RTreeCooking.obj
 0001:0000d030       ?buildAdjacencies@physx@@YAXPEAUuint4@1@PEAVPxVec3@1@PEBV31@PEBUuint3@1@I@Z 000000018000e030 f   TriangleMeshBuilder.obj
 0001:0000e860       ?findAdjacent@physx@@YAIPEBVPxVec3@1@0PEBUuint3@1@IIIAEBVPxPlane@1@PEAUEdgeTriLookup@1@I@Z 000000018000f860 f   TriangleMeshBuilder.obj
 0001:00013180       ?checkPointsAABBValidity@local@@YA_NIPEBVPxVec3@physx@@IMMAEAV23@1AEAIPEAV23@_N@Z 0000000180014180 f   ConvexHullLib.obj
 0001:00018530       ?ComputeInternalExtent@@YAXAEAUConvexHullData@Gu@physx@@PEBUHullPolygonData@23@@Z 0000000180019530 f   ConvexMeshBuilder.obj
 0001:00019a80       ?CheckFloodFillFace@Local@?7??extractHullPolygons@@YA_NAEAIAEAV?$Array@IV?$ReflectionAllocator@I@shdfnd@physx@@@shdfnd@physx@@AEBVConvexPolygonsBuilder@5@PEAV345@1@Z@SA_NIPEBVAdjTriangle@5@PEBI@Z 000000018001aa80 f   ConvexPolygonsBuilder.obj
 0001:0001a060       ?FloodFill@Local@?7??extractHullPolygons@@YA_NAEAIAEAV?$Array@IV?$ReflectionAllocator@I@shdfnd@physx@@@shdfnd@physx@@AEBVConvexPolygonsBuilder@5@PEAV345@1@Z@SAX1PEBVAdjTriangle@5@IPEA_N@Z 000000018001b060 f   ConvexPolygonsBuilder.obj
 0001:0001a140       ?TestDuplicateTriangles@@YA_NAEAIPEAU?$TriangleT@I@Gu@physx@@_N@Z 000000018001b140 f   ConvexPolygonsBuilder.obj
 0001:0001a310       ?checkRedundantVertices@@YAXAEAIAEAV?$Array@IV?$ReflectionAllocator@I@shdfnd@physx@@@shdfnd@physx@@AEBVConvexPolygonsBuilder@3@11@Z 000000018001b310 f   ConvexPolygonsBuilder.obj
 0001:0001bb70       ?computeNewellPlane@@YA_NAEAVPxPlane@physx@@IPEBEPEBVPxVec3@2@@Z 000000018001cb70 f   ConvexPolygonsBuilder.obj
 0001:0001d3a0       ?extractHullPolygons@@YA_NAEAIAEAV?$Array@IV?$ReflectionAllocator@I@shdfnd@physx@@@shdfnd@physx@@AEBVConvexPolygonsBuilder@3@PEAV123@1@Z 000000018001e3a0 f   ConvexPolygonsBuilder.obj
 0001:0001ddf0       ?findLineStrip@@YA_NAEAV?$Array@IV?$ReflectionAllocator@I@shdfnd@physx@@@shdfnd@physx@@AEBV?$Array@VPair@@V?$ReflectionAllocator@VPair@@@shdfnd@physx@@@23@@Z 000000018001edf0 f   ConvexPolygonsBuilder.obj
 0001:00025a90       ?computeVolumeIntegrals@VolumeIntegratorEberly@?A0x86a9014e@physx@@QEAA_NAEAUPxIntegrals@3@AEBVPxVec3@3@@Z 0000000180026a90 f   VolumeIntegration.obj
 0001:00026600       ?computeVolumeIntegralsSIMD@VolumeIntegratorEberly@?A0x86a9014e@physx@@QEAA_NAEAUPxIntegrals@3@AEBVPxVec3@3@@Z 0000000180027600 f   VolumeIntegration.obj
 0001:00026ce0       $LN24                      0000000180027ce0     WindowsCookingDelayLoadHook.obj
 0001:00027148       ??$GuardedWrite@V<lambda_1>@?1??__delayLoadHelper2@@YAP6A_JXZPEBUImgDelayDescr@@PEAP6A_JXZ@Z@@@YAXPEAX_KV<lambda_1>@?1??__delayLoadHelper2@@YAP6A_JXZPEBUImgDelayDescr@@PEAP6A_JXZ@Z@@Z 0000000180028148 f   Delayimp:delayhlp.obj
 0001:000279c0       $$000000                   00000001800289c0     LIBCMT:chkstk.obj
 0001:00027a20       ?<lambda_invoker_cdecl>@<lambda_2>@?1??__std_type_info_name@@YAPEBDPEAU__std_type_info_data@@PEAU__type_info_node@@@Z@SA@QEAX@Z 0000000180028a20 f   libvcruntime:std_type_info.obj
 0001:00027a30       $$000000                   0000000180028a30     LIBCMT:svml_ssinf4_dispatch.obj
 0001:00027aa0       ?dllmain_crt_dispatch@@YAHQEAUHINSTANCE__@@KQEAX@Z 0000000180028aa0 f   LIBCMT:dll_dllmain.obj
 0001:00027af0       ?dllmain_crt_process_attach@@YAHQEAUHINSTANCE__@@QEAX@Z 0000000180028af0 f   LIBCMT:dll_dllmain.obj
 0001:00027c08       ?dllmain_crt_process_detach@@YAH_N@Z 0000000180028c08 f   LIBCMT:dll_dllmain.obj
 0001:00027c8c       ?dllmain_dispatch@@YAHQEAUHINSTANCE__@@KQEAX@Z 0000000180028c8c f   LIBCMT:dll_dllmain.obj
 0001:00028090       $$000000                   0000000180029090     LIBCMT:svml_ssinf4_sse2.obj
 0001:000289d0       $$000000                   00000001800299d0     LIBCMT:svml_ssinf4_sse4.obj
 0001:00029720       $$000000                   000000018002a720     LIBCMT:svml_s_sin_cout.obj
 0001:000297c4       ?<lambda_invoker_cdecl>@<lambda_1>@?1??__std_type_info_name@@YAPEBDPEAU__std_type_info_data@@PEAU__type_info_node@@@Z@SA@_K@Z 000000018002a7c4 f   libvcruntime:std_type_info.obj
 0001:0002a5e0       ??1TrackRecursion@?1??getDecoratedName@UnDecorator@@AEAA?AVDName@@XZ@QEAA@XZ 000000018002b5e0 f   libvcruntime:undname.obj
 0001:00032e40       $$000000                   0000000180033e40     libvcruntime:notify.obj
 0001:00032e60       $$000000                   0000000180033e60     libvcruntime:notify.obj
 0001:00032e70       $$000000                   0000000180033e70     libvcruntime:notify.obj
 0001:00033e34       ?try_get_function@@YAPEAXW4function_id@?A0x14174aea@@QEBDQEBW4module_id@2@2@Z 0000000180034e34 f   libvcruntime:winapi_downlevel.obj
 0001:00034320       ??$BuildCatchObjectHelperInternal@V__FrameHandler3@@@@YAHPEAUEHExceptionRecord@@PEAXPEBU_s_HandlerType@@PEBU_s_CatchableType@@@Z 0000000180035320 f   libvcruntime:frame.obj
 0001:00034514       ??$BuildCatchObjectHelperInternal@V__FrameHandler4@@@@YAHPEAUEHExceptionRecord@@PEAXPEAUHandlerType4@FH4@@PEBU_s_CatchableType@@@Z 0000000180035514 f   libvcruntime:frame.obj
 0001:0003470c       ??$BuildCatchObjectInternal@V__FrameHandler3@@@@YAXPEAUEHExceptionRecord@@PEAXPEBU_s_HandlerType@@PEBU_s_CatchableType@@@Z 000000018003570c f   libvcruntime:frame.obj
 0001:000347cc       ??$BuildCatchObjectInternal@V__FrameHandler4@@@@YAXPEAUEHExceptionRecord@@PEAXPEAUHandlerType4@FH4@@PEBU_s_CatchableType@@@Z 00000001800357cc f   libvcruntime:frame.obj
 0001:00034890       ??$CatchIt@V__FrameHandler3@@@@YAXPEAUEHExceptionRecord@@PEA_KPEAU_CONTEXT@@PEAU_xDISPATCHER_CONTEXT@@PEBU_s_FuncInfo@@PEBU_s_HandlerType@@PEBU_s_CatchableType@@PEBU_s_TryBlockMapEntry@@H1EE@Z 0000000180035890 f   libvcruntime:frame.obj
 0001:00034968       ??$CatchIt@V__FrameHandler4@@@@YAXPEAUEHExceptionRecord@@PEA_KPEAU_CONTEXT@@PEAU_xDISPATCHER_CONTEXT@@PEAUFuncInfo4@FH4@@PEAUHandlerType4@4@PEBU_s_CatchableType@@PEAUTryBlockMapEntry4@4@H1EE@Z 0000000180035968 f   libvcruntime:frame.obj
 0001:00034a40       ??$FindHandler@V__FrameHandler3@@@@YAXPEAUEHExceptionRecord@@PEA_KPEAU_CONTEXT@@PEAU_xDISPATCHER_CONTEXT@@PEBU_s_FuncInfo@@EH1@Z 0000000180035a40 f   libvcruntime:frame.obj
 0001:00034f38       ??$FindHandler@V__FrameHandler4@@@@YAXPEAUEHExceptionRecord@@PEA_KPEAU_CONTEXT@@PEAU_xDISPATCHER_CONTEXT@@PEAUFuncInfo4@FH4@@EH1@Z 0000000180035f38 f   libvcruntime:frame.obj
 0001:00035470       ??$FindHandlerForForeignException@V__FrameHandler3@@@@YAXPEAUEHExceptionRecord@@PEA_KPEAU_CONTEXT@@PEAU_xDISPATCHER_CONTEXT@@PEBU_s_FuncInfo@@HH1@Z 0000000180036470 f   libvcruntime:frame.obj
 0001:000356d4       ??$FindHandlerForForeignException@V__FrameHandler4@@@@YAXPEAUEHExceptionRecord@@PEA_KPEAU_CONTEXT@@PEAU_xDISPATCHER_CONTEXT@@PEAUFuncInfo4@FH4@@HH1@Z 00000001800366d4 f   libvcruntime:frame.obj
 0001:00036994       ?ExFilterRethrow@@YAHPEAU_EXCEPTION_POINTERS@@PEAUEHExceptionRecord@@PEAH@Z 0000000180037994 f   libvcruntime:frame.obj
 0001:00036a2c       ?ExFilterRethrowFH4@@YAHPEAU_EXCEPTION_POINTERS@@PEAUEHExceptionRecord@@HPEAH@Z 0000000180037a2c f   libvcruntime:frame.obj
 0001:00036f8c       ?IsInExceptionSpec@@YAEPEAUEHExceptionRecord@@PEBU_s_ESTypeList@@@Z 0000000180037f8c f   libvcruntime:frame.obj
 0001:00037074       ?Is_bad_exception_allowed@@YAEPEBU_s_ESTypeList@@@Z 0000000180038074 f   libvcruntime:frame.obj
 0001:00037390       $$000000                   0000000180038390     libvcruntime:handlers.obj
 0001:000373d0       $$000000                   00000001800383d0     libvcruntime:handlers.obj
 0001:00037400       $$000000                   0000000180038400     libvcruntime:handlers.obj
 0001:00037430       $$000000                   0000000180038430     libvcruntime:handlers.obj
 0001:000375d0       $$000000                   00000001800385d0     libucrt:strcmp.obj
 0001:00037a40       $$000000                   0000000180038a40     libucrt:cosf.obj
 0001:00037f40       $$000000                   0000000180038f40     libucrt:sinf.obj
 0001:000388f8       ??$?RV<lambda_d80eeec6fff315bfe5c115232f3240e3>@@AEAV<lambda_6e4b09c48022b2350581041d5f6b0c4c>@@V<lambda_2358e3775559c9db80273638284d5e45>@@@?$__crt_seh_guarded_call@X@@QEAAX$$QEAV<lambda_d80eeec6fff315bfe5c115232f3240e3>@@AEAV<lambda_6e4b09c48022b2350581041d5f6b0c4c>@@$$QEAV<lambda_2358e3775559c9db80273638284d5e45>@@@Z 00000001800398f8 f   libucrt:exit.obj
 0001:00038930       ??R<lambda_6e4b09c48022b2350581041d5f6b0c4c>@@QEBA@XZ 0000000180039930 f   libucrt:exit.obj
 0001:000389fc       ?common_exit@@YAXHW4_crt_exit_cleanup_mode@@W4_crt_exit_return_mode@@@Z 00000001800399fc f   libucrt:exit.obj
 0001:00038ac4       ?exit_or_terminate_process@@YAXI@Z 0000000180039ac4 f   libucrt:exit.obj
 0001:00038af8       ?should_call_terminate_process@@YA_NXZ 0000000180039af8 f   libucrt:exit.obj
 0001:00038b1c       ?try_cor_exit_process@@YAXI@Z 0000000180039b1c f   libucrt:exit.obj
 0001:00038bb8       ??$parse_command_line@D@@YAXPEADPEAPEAD0PEA_K2@Z 0000000180039bb8 f   libucrt:argv_parsing.obj
 0001:00038f68       ??$common_initialize_environment_nolock@D@@YAHXZ 0000000180039f68 f   libucrt:environment_initialization.obj
 0001:00038fdc       ??$create_environment@D@@YAQEAPEADQEAD@Z 0000000180039fdc f   libucrt:environment_initialization.obj
 0001:000390ec       ??$free_environment@D@@YAXQEAPEAD@Z 000000018003a0ec f   libucrt:environment_initialization.obj
 0001:000390ec       ??$free_environment@_W@@YAXQEAPEA_W@Z 000000018003a0ec f   libucrt:environment_initialization.obj
 0001:00039130       ??$uninitialize_environment_internal@D@@YAXAEAPEAPEAD@Z 000000018003a130 f   libucrt:environment_initialization.obj
 0001:0003914c       ??$uninitialize_environment_internal@_W@@YAXAEAPEAPEA_W@Z 000000018003a14c f   libucrt:environment_initialization.obj
 0001:000391b4       ??$?RV<lambda_7777bce6b2f8c936911f934f8298dc43>@@AEAV<lambda_f03950bc5685219e0bcd2087efbe011e>@@V<lambda_3883c3dff614d5e0c5f61bb1ac94921c>@@@?$__crt_seh_guarded_call@H@@QEAAH$$QEAV<lambda_7777bce6b2f8c936911f934f8298dc43>@@AEAV<lambda_f03950bc5685219e0bcd2087efbe011e>@@$$QEAV<lambda_3883c3dff614d5e0c5f61bb1ac94921c>@@@Z 000000018003a1b4 f   libucrt:onexit.obj
 0001:000391f0       ??R<lambda_f03950bc5685219e0bcd2087efbe011e>@@QEBA@XZ 000000018003a1f0 f   libucrt:onexit.obj
 0001:0003937c       initialize_global_variables 000000018003a37c f   libucrt:initialization.obj
 0001:00039390       initialize_c               000000018003a390 f   libucrt:initialization.obj
 0001:000393b4       initialize_environment     000000018003a3b4 f   libucrt:initialization.obj
 0001:000393b4       initialize_global_state_isolation 000000018003a3b4 f   libucrt:initialization.obj
 0001:000393b4       report_memory_leaks        000000018003a3b4 f   libucrt:initialization.obj
 0001:000393b4       uninitialize_c             000000018003a3b4 f   libucrt:initialization.obj
 0001:000393b4       uninitialize_global_state_isolation 000000018003a3b4 f   libucrt:initialization.obj
 0001:000393b8       uninitialize_environment   000000018003a3b8 f   libucrt:initialization.obj
 0001:000393c8       initialize_pointers        000000018003a3c8 f   libucrt:initialization.obj
 0001:00039408       uninitialize_vcruntime     000000018003a408 f   libucrt:initialization.obj
 0001:00039410       uninitialize_allocated_memory 000000018003a410 f   libucrt:initialization.obj
 0001:00039450       uninitialize_allocated_io_buffers 000000018003a450 f   libucrt:initialization.obj
 0001:00039618       ??$common_vsprintf@Vformat_validation_base@__crt_stdio_output@@D@@YAH_KQEAD0QEBDAEAV__crt_cached_ptd_host@@1@Z 000000018003a618 f   libucrt:output.obj
 0001:0003c000       $$000000                   000000018003d000     libucrt:strncmp.obj
 0001:0003c194       _call_matherr              000000018003d194 f   libucrt:libm_error.obj
 0001:0003c1fc       _exception_enabled         000000018003d1fc f   libucrt:libm_error.obj
 0001:0003c540       $$000000                   000000018003d540     libucrt:remainder_piby2f_forasm.obj
 0001:0003c690       $$000000                   000000018003d690     libucrt:remainder_piby2_forfma3.obj
 0001:0003c90c       _sincosf_special           000000018003d90c f   libucrt:sincos_special.obj
 0001:0003ca20       $$000000                   000000018003da20     libucrt:remainder_piby2f_forc.obj
 0001:0003cbe8       ??$?RV<lambda_0ae27a3a962d80f24befdcbee591983d>@@AEAV<lambda_8d0ee55de4b1038c4002e0adecdf1839>@@V<lambda_dc504788e8f1664fe9b84e20bfb512f2>@@@?$__crt_seh_guarded_call@X@@QEAAX$$QEAV<lambda_0ae27a3a962d80f24befdcbee591983d>@@AEAV<lambda_8d0ee55de4b1038c4002e0adecdf1839>@@$$QEAV<lambda_dc504788e8f1664fe9b84e20bfb512f2>@@@Z 000000018003dbe8 f   libucrt:per_thread_data.obj
 0001:0003cc28       ??$?RV<lambda_2d41944a1d46af3157314b8a01080d33>@@AEAV<lambda_8f455de75cd7d7f24b4096f044d8b9e6>@@V<lambda_aa500f224e6afead328df44964fe2772>@@@?$__crt_seh_guarded_call@X@@QEAAX$$QEAV<lambda_2d41944a1d46af3157314b8a01080d33>@@AEAV<lambda_8f455de75cd7d7f24b4096f044d8b9e6>@@$$QEAV<lambda_aa500f224e6afead328df44964fe2772>@@@Z 000000018003dc28 f   libucrt:per_thread_data.obj
 0001:0003cc68       ??$?RV<lambda_aa87e3671a710a21b5dc78c0bdf72e11>@@AEAV<lambda_92619d2358a28f41a33ba319515a20b9>@@V<lambda_6992ecaafeb10aed2b74cb1fae11a551>@@@?$__crt_seh_guarded_call@X@@QEAAX$$QEAV<lambda_aa87e3671a710a21b5dc78c0bdf72e11>@@AEAV<lambda_92619d2358a28f41a33ba319515a20b9>@@$$QEAV<lambda_6992ecaafeb10aed2b74cb1fae11a551>@@@Z 000000018003dc68 f   libucrt:per_thread_data.obj
 0001:0003ccb0       ??$?RV<lambda_f2e299630e499de9f9a165e60fcd3db5>@@AEAV<lambda_2ae9d31cdba2644fcbeaf08da7c24588>@@V<lambda_40d01ff24d0e7b3814fdbdcee8eab3c7>@@@?$__crt_seh_guarded_call@X@@QEAAX$$QEAV<lambda_f2e299630e499de9f9a165e60fcd3db5>@@AEAV<lambda_2ae9d31cdba2644fcbeaf08da7c24588>@@$$QEAV<lambda_40d01ff24d0e7b3814fdbdcee8eab3c7>@@@Z 000000018003dcb0 f   libucrt:per_thread_data.obj
 0001:0003cd10       ?construct_ptd_array@@YAXQEAU__acrt_ptd@@@Z 000000018003dd10 f   libucrt:per_thread_data.obj
 0001:0003cde0       ?destroy_fls@@YAXPEAX@Z    000000018003dde0 f   libucrt:per_thread_data.obj
 0001:0003ce00       ?destroy_ptd_array@@YAXQEAU__acrt_ptd@@@Z 000000018003de00 f   libucrt:per_thread_data.obj
 0001:0003cef8       ?replace_current_thread_locale_nolock@@YAXQEAU__acrt_ptd@@QEAU__crt_locale_data@@@Z 000000018003def8 f   libucrt:per_thread_data.obj
 0001:0003d978       ?<lambda_invoker_cdecl>@<lambda_a1ce4c8ae42411fd470c77163914f50e>@@CAHPEBX0@Z 000000018003e978 f   libucrt:argv_wildcards.obj
 0001:0003dc94       ??$common_expand_argv_wildcards@D@@YAHQEAPEADQEAPEAPEAD@Z 000000018003ec94 f   libucrt:argv_wildcards.obj
 0001:0003ded8       ??$copy_and_add_argument_to_buffer@D@@YAHQEBD0_KAEAV?$argument_list@D@?A0x5f5c8891@@@Z 000000018003eed8 f   libucrt:argv_wildcards.obj
 0001:0003e05c       ??$expand_argument_wildcards@D@@YAHQEAD0AEAV?$argument_list@D@?A0x5f5c8891@@@Z 000000018003f05c f   libucrt:argv_wildcards.obj
 0001:0003e690       ??$?RV<lambda_efdfa57d1f175319df784efa44bb7b81>@@AEAV<lambda_5f0a4c1567f8adc6734073e5d1e1b35c>@@V<lambda_2e8a7d3640ea6ccb4c2413664c2db6fd>@@@?$__crt_seh_guarded_call@X@@QEAAX$$QEAV<lambda_efdfa57d1f175319df784efa44bb7b81>@@AEAV<lambda_5f0a4c1567f8adc6734073e5d1e1b35c>@@$$QEAV<lambda_2e8a7d3640ea6ccb4c2413664c2db6fd>@@@Z 000000018003f690 f   libucrt:mbctype.obj
 0001:0003e860       ?getSystemCP@@YAHH@Z       000000018003f860 f   libucrt:mbctype.obj
 0001:0003e8e0       ?setSBCS@@YAXPEAU__crt_multibyte_data@@@Z 000000018003f8e0 f   libucrt:mbctype.obj
 0001:0003e978       ?setSBUpLow@@YAXPEAU__crt_multibyte_data@@@Z 000000018003f978 f   libucrt:mbctype.obj
 0001:0003eb60       ?setmbcp_internal@@YAHH_NQEAU__acrt_ptd@@QEAPEAU__crt_multibyte_data@@@Z 000000018003fb60 f   libucrt:mbctype.obj
 0001:0003edd0       ?update_thread_multibyte_data_internal@@YAPEAU__crt_multibyte_data@@QEAU__acrt_ptd@@QEAPEAU1@@Z 000000018003fdd0 f   libucrt:mbctype.obj
 0001:0003f1c4       ?x_ismbbtype_l@@YAHPEAU__crt_locale_pointers@@IHH@Z 00000001800401c4 f   libucrt:ismbbyte.obj
 0001:0003f58c       ?try_get_function@@YAPEAXW4function_id@?A0x391cf84c@@QEBDQEBW4module_id@2@2@Z 000000018004058c f   libucrt:winapi_thunks.obj
 0001:0003fa50       ?initialize_inherited_file_handles_nolock@@YAXXZ 0000000180040a50 f   libucrt:ioinit.obj
 0001:0003fb40       ?initialize_stdio_handles_nolock@@YAXXZ 0000000180040b40 f   libucrt:ioinit.obj
 0001:0003fe20       ??$?RV<lambda_450d765d439847d4c735a33c368b5fc0>@@AEAV<lambda_44731a7d0e6d81c3e6aa82d741081786>@@V<lambda_601a2a7da3b7a96e9554ac7215c4b07c>@@@?$__crt_seh_guarded_call@P6AXH@Z@@QEAAP6AXH@Z$$QEAV<lambda_450d765d439847d4c735a33c368b5fc0>@@AEAV<lambda_44731a7d0e6d81c3e6aa82d741081786>@@$$QEAV<lambda_601a2a7da3b7a96e9554ac7215c4b07c>@@@Z 0000000180040e20 f   libucrt:signal.obj
 0001:00040198       ??$?RV<lambda_842d9ff0dc9ef11c61343bbaebe7f885>@@AEAV<lambda_c5860995281e5c4ce005b3de8f5874ee>@@V<lambda_d90129c13df834fdcbf8d2b88dafcf2d>@@@?$__crt_seh_guarded_call@X@@QEAAX$$QEAV<lambda_842d9ff0dc9ef11c61343bbaebe7f885>@@AEAV<lambda_c5860995281e5c4ce005b3de8f5874ee>@@$$QEAV<lambda_d90129c13df834fdcbf8d2b88dafcf2d>@@@Z 0000000180041198 f   libucrt:fflush.obj
 0001:00040234       ??$?RV<lambda_886d6c58226a84441f68b9f2b8217b83>@@AEAV<lambda_ab61a845afdef5b7c387490eaf3616ee>@@V<lambda_f7f22ab5edc0698d5f6905b0d3f44752>@@@?$__crt_seh_guarded_call@X@@QEAAX$$QEAV<lambda_886d6c58226a84441f68b9f2b8217b83>@@AEAV<lambda_ab61a845afdef5b7c387490eaf3616ee>@@$$QEAV<lambda_f7f22ab5edc0698d5f6905b0d3f44752>@@@Z 0000000180041234 f   libucrt:fflush.obj
 0001:00040318       ?common_flush_all@@YAH_N@Z 0000000180041318 f   libucrt:fflush.obj
 0001:00040ad4       ?fp_format_a@@YAHQEBNPEAD_KQEAD2H_NIW4__acrt_rounding_mode@@AEAV__crt_cached_ptd_host@@@Z 0000000180041ad4 f   libucrt:cvt.obj
 0001:00040e6c       ?fp_format_e@@YAHQEBNQEAD_K12H_NIW4__acrt_rounding_mode@@AEAV__crt_cached_ptd_host@@@Z 0000000180041e6c f   libucrt:cvt.obj
 0001:00040f68       ?fp_format_e_internal@@YAHQEAD_KH_NIQEAU_strflt@@2AEAV__crt_cached_ptd_host@@@Z 0000000180041f68 f   libucrt:cvt.obj
 0001:0004114c       ?fp_format_f@@YAHQEBNQEAD_K12HW4__acrt_rounding_mode@@AEAV__crt_cached_ptd_host@@@Z 000000018004214c f   libucrt:cvt.obj
 0001:00041224       ?fp_format_f_internal@@YAHQEAD_KHQEAU_strflt@@_NAEAV__crt_cached_ptd_host@@@Z 0000000180042224 f   libucrt:cvt.obj
 0001:0004137c       ?fp_format_g@@YAHQEBNQEAD_K12H_NIW4__acrt_rounding_mode@@AEAV__crt_cached_ptd_host@@@Z 000000018004237c f   libucrt:cvt.obj
 0001:000414d0       ?should_round_up@@YA_NQEBN_KFW4__acrt_rounding_mode@@@Z 00000001800424d0 f   libucrt:cvt.obj
 0001:00041c38       ??$?RV<lambda_410d79af7f07d98d83a3f525b3859a53>@@AEAV<lambda_3e16ef9562a7dcce91392c22ab16ea36>@@V<lambda_38119f0e861e05405d8a144b9b982f0a>@@@?$__crt_seh_guarded_call@X@@QEAAX$$QEAV<lambda_410d79af7f07d98d83a3f525b3859a53>@@AEAV<lambda_3e16ef9562a7dcce91392c22ab16ea36>@@$$QEAV<lambda_38119f0e861e05405d8a144b9b982f0a>@@@Z 0000000180042c38 f   libucrt:wsetlocale.obj
 0001:00041e20       $$000000                   0000000180042e20     libucrt:fpsr.obj
 0001:00042b20       fallbackMethod             0000000180043b20 f   libucrt:strpbrk.obj
 0001:00042ecc       $LN79                      0000000180043ecc     libucrt:strpbrk.obj
 0001:00042f08       $LN78                      0000000180043f08     libucrt:strpbrk.obj
 0001:00042f48       $LN77                      0000000180043f48     libucrt:strpbrk.obj
 0001:000431b4       ?__acrt_LCMapStringA_stat@@YAHPEAU__crt_locale_pointers@@PEB_WKPEBDHPEADHHH@Z 00000001800441b4 f   libucrt:lcmapstringa.obj
 0001:00043580       ?initialize_multibyte@@YAHXZ 0000000180044580 f   libucrt:multibyte_initializer.obj
 0001:00043a18       ??$?RV<lambda_a37b2b86f63e897a80ea819b0eb08c01>@@AEAV<lambda_38ce7e780aa69e748d6df282ebc68efe>@@V<lambda_99fb1378e971ab6e7edea83e3a7a83a2>@@@?$__crt_seh_guarded_call@H@@QEAAH$$QEAV<lambda_a37b2b86f63e897a80ea819b0eb08c01>@@AEAV<lambda_38ce7e780aa69e748d6df282ebc68efe>@@$$QEAV<lambda_99fb1378e971ab6e7edea83e3a7a83a2>@@@Z 0000000180044a18 f   libucrt:commit.obj
 0001:00043b38       ?write_double_translated_ansi_nolock@@YA?AUwrite_result@?A0x17268360@@HQEBDIAEAV__crt_cached_ptd_host@@@Z 0000000180044b38 f   libucrt:write.obj
 0001:00043fb0       ?write_text_ansi_nolock@@YA?AUwrite_result@?A0x17268360@@HQEBDI@Z 0000000180044fb0 f   libucrt:write.obj
 0001:000440b4       ?write_text_utf16le_nolock@@YA?AUwrite_result@?A0x17268360@@HQEBDI@Z 00000001800450b4 f   libucrt:write.obj
 0001:000441d0       ?write_text_utf8_nolock@@YA?AUwrite_result@?A0x17268360@@HQEBDI@Z 00000001800451d0 f   libucrt:write.obj
 0001:000448c0       ?should_round_up@@YA_NQEBD0HW4__acrt_has_trailing_digits@@W4__acrt_rounding_mode@@@Z 00000001800458c0 f   libucrt:_fptostr.obj
 0001:000461cc       memcpy_s                   00000001800471cc f   libucrt:cfout.obj
 0001:0004666c       ?free_crt_array_internal@@YAXQEAPEBX_K@Z 000000018004766c f   libucrt:inittime.obj
 0001:00046814       ??$common_lseek_nolock@_J@@YA_JH_JHAEAV__crt_cached_ptd_host@@@Z 0000000180047814 f   libucrt:lseek.obj
 0001:00046904       ?_fclose_internal@@YAHQEAU_iobuf@@AEAV__crt_cached_ptd_host@@@Z 0000000180047904 f   libucrt:fclose.obj
 0001:00046980       ?_fclose_nolock_internal@@YAHQEAU_iobuf@@AEAV__crt_cached_ptd_host@@@Z 0000000180047980 f   libucrt:fclose.obj
 0001:00046cb0       $$000000                   0000000180047cb0     libucrt:log10.obj
 0001:00047878       ??$?RV<lambda_ad8af0d99a0adf03d037d7dffe354bb5>@@AEAV<lambda_c9ba49e555ba839a7b07aa3fbecb7617>@@V<lambda_2f1ebd5d68526518146ae959c9e734c8>@@@?$__crt_seh_guarded_call@H@@QEAAH$$QEAV<lambda_ad8af0d99a0adf03d037d7dffe354bb5>@@AEAV<lambda_c9ba49e555ba839a7b07aa3fbecb7617>@@$$QEAV<lambda_2f1ebd5d68526518146ae959c9e734c8>@@@Z 0000000180048878 f   libucrt:close.obj
 0001:00047b14       common_control87           0000000180048b14 f   libucrt:ieee.obj
 0001:00047dd0       _log_special_common        0000000180048dd0 f   libucrt:log_special.obj
 0001:00047fc0       $$000000                   0000000180048fc0     LIBCMT:amdsecgs.obj
 0001:00048234       capture_current_context    0000000180049234 f   LIBCMT:gs_report.obj
 0001:000482a4       capture_previous_context   00000001800492a4 f   LIBCMT:gs_report.obj
 0001:00048520       $$000000                   0000000180049520     LIBCMT:guard_dispatch.obj
 0001:00048540       $$000000                   0000000180049540     LIBCMT:guard_xfg_dispatch.obj
 0001:00048580       $$000000                   0000000180049580     libvcruntime:memset.obj
 0001:00048590       $$000000                   0000000180049590     libvcruntime:memset.obj
 0001:000485d1       SetSmall15                 00000001800495d1     libvcruntime:memset.obj
 0001:000485d5       SetSmall7                  00000001800495d5     libvcruntime:memset.obj
 0001:000485d9       SetSmall3                  00000001800495d9     libvcruntime:memset.obj
 0001:000485de       SetSmall1                  00000001800495de     libvcruntime:memset.obj
 0001:000485e2       SetSmall0                  00000001800495e2     libvcruntime:memset.obj
 0001:000485e3       SetSmall14                 00000001800495e3     libvcruntime:memset.obj
 0001:000485e7       SetSmall6                  00000001800495e7     libvcruntime:memset.obj
 0001:000485eb       SetSmall2                  00000001800495eb     libvcruntime:memset.obj
 0001:000485f0       MoveSmall0                 00000001800495f0     libvcruntime:memset.obj
 0001:00048600       SetSmall13                 0000000180049600     libvcruntime:memset.obj
 0001:00048604       SetSmall5                  0000000180049604     libvcruntime:memset.obj
 0001:00048610       SetSmall12                 0000000180049610     libvcruntime:memset.obj
 0001:00048614       SetSmall4                  0000000180049614     libvcruntime:memset.obj
 0001:00048619       SetSmall11                 0000000180049619     libvcruntime:memset.obj
 0001:00048627       SetSmall9                  0000000180049627     libvcruntime:memset.obj
 0001:00048630       SetSmall10                 0000000180049630     libvcruntime:memset.obj
 0001:0004863a       SetSmall8                  000000018004963a     libvcruntime:memset.obj
 0001:00048640       SetAbove15                 0000000180049640     libvcruntime:memset.obj
 0001:00048656       SetAbove32                 0000000180049656     libvcruntime:memset.obj
 0001:00048682       SetWithYMM                 0000000180049682     libvcruntime:memset.obj
 0001:000486c0       YmmLoop                    00000001800496c0     libvcruntime:memset.obj
 0001:0004870a       SetUpTo256WithYMM          000000018004970a     libvcruntime:memset.obj
 0001:00048727       Set8YmmBlocks              0000000180049727     libvcruntime:memset.obj
 0001:00048731       Set7YmmBlocks              0000000180049731     libvcruntime:memset.obj
 0001:0004873b       Set6YmmBlocks              000000018004973b     libvcruntime:memset.obj
 0001:00048745       Set5YmmBlocks              0000000180049745     libvcruntime:memset.obj
 0001:0004874f       Set4YmmBlocks              000000018004974f     libvcruntime:memset.obj
 0001:00048756       Set3YmmBlocks              0000000180049756     libvcruntime:memset.obj
 0001:0004875d       Set2YmmBlocks              000000018004975d     libvcruntime:memset.obj
 0001:00048764       Set1YmmBlocks              0000000180049764     libvcruntime:memset.obj
 0001:0004876b       Set0YmmBlocks              000000018004976b     libvcruntime:memset.obj
 0001:00048773       SetWithYMMNT               0000000180049773     libvcruntime:memset.obj
 0001:00048780       YmmLoopNT                  0000000180049780     libvcruntime:memset.obj
 0001:000487e7       Set8YmmBlocksNT            00000001800497e7     libvcruntime:memset.obj
 0001:000487f1       Set7YmmBlocksNT            00000001800497f1     libvcruntime:memset.obj
 0001:000487fb       Set6YmmBlocksNT            00000001800497fb     libvcruntime:memset.obj
 0001:00048805       Set5YmmBlocksNT            0000000180049805     libvcruntime:memset.obj
 0001:0004880f       Set4YmmBlocksNT            000000018004980f     libvcruntime:memset.obj
 0001:00048816       Set3YmmBlocksNT            0000000180049816     libvcruntime:memset.obj
 0001:0004881d       Set2YmmBlocksNT            000000018004981d     libvcruntime:memset.obj
 0001:00048824       Set1YmmBlocksNT            0000000180049824     libvcruntime:memset.obj
 0001:0004882b       Set0YmmBlocksNT            000000018004982b     libvcruntime:memset.obj
 0001:00048840       NoAVX                      0000000180049840     libvcruntime:memset.obj
 0001:00048856       SetWithXMM                 0000000180049856     libvcruntime:memset.obj
 0001:00048880       XmmLoop                    0000000180049880     libvcruntime:memset.obj
 0001:000488be       SetUpTo128WithXMM          00000001800498be     libvcruntime:memset.obj
 0001:000488db       Set8XmmBlocks              00000001800498db     libvcruntime:memset.obj
 0001:000488e2       Set7XmmBlocks              00000001800498e2     libvcruntime:memset.obj
 0001:000488e9       Set6XmmBlocks              00000001800498e9     libvcruntime:memset.obj
 0001:000488f0       Set5XmmBlocks              00000001800498f0     libvcruntime:memset.obj
 0001:000488f7       Set4XmmBlocks              00000001800498f7     libvcruntime:memset.obj
 0001:000488fe       Set3XmmBlocks              00000001800498fe     libvcruntime:memset.obj
 0001:00048905       Set2XmmBlocks              0000000180049905     libvcruntime:memset.obj
 0001:0004890c       Set1XmmBlocks              000000018004990c     libvcruntime:memset.obj
 0001:00048913       Set0XmmBlocks              0000000180049913     libvcruntime:memset.obj
 0001:00048940       $$000000                   0000000180049940     libvcruntime:memcpy.obj
 0001:00048950       $$000000                   0000000180049950     libvcruntime:memcpy.obj
 0001:0004897e       MoveSmall0                 000000018004997e     libvcruntime:memcpy.obj
 0001:00048980       MoveSmall15                0000000180049980     libvcruntime:memcpy.obj
 0001:000489a0       MoveSmall11                00000001800499a0     libvcruntime:memcpy.obj
 0001:000489b8       MoveSmall2                 00000001800499b8     libvcruntime:memcpy.obj
 0001:000489c0       MoveSmall7                 00000001800499c0     libvcruntime:memcpy.obj
 0001:000489d8       MoveSmall14                00000001800499d8     libvcruntime:memcpy.obj
 0001:000489ef       MoveSmall3                 00000001800499ef     libvcruntime:memcpy.obj
 0001:00048a00       MoveSmall13                0000000180049a00     libvcruntime:memcpy.obj
 0001:00048a16       MoveSmall10                0000000180049a16     libvcruntime:memcpy.obj
 0001:00048a25       MoveSmall9                 0000000180049a25     libvcruntime:memcpy.obj
 0001:00048a33       MoveSmall12                0000000180049a33     libvcruntime:memcpy.obj
 0001:00048a40       MoveSmall6                 0000000180049a40     libvcruntime:memcpy.obj
 0001:00048a4f       MoveSmall5                 0000000180049a4f     libvcruntime:memcpy.obj
 0001:00048a5d       MoveSmall8                 0000000180049a5d     libvcruntime:memcpy.obj
 0001:00048a64       MoveSmall1                 0000000180049a64     libvcruntime:memcpy.obj
 0001:00048a6a       MoveSmall4                 0000000180049a6a     libvcruntime:memcpy.obj
 0001:00048a70       MoveAbove15                0000000180049a70     libvcruntime:memcpy.obj
 0001:00048a8d       MoveAbove32                0000000180049a8d     libvcruntime:memcpy.obj
 0001:00048acd       MoveWithYMM                0000000180049acd     libvcruntime:memcpy.obj
 0001:00048b20       YmmLoop                    0000000180049b20     libvcruntime:memcpy.obj
 0001:00048ba8       MovUpTo256WithYMM          0000000180049ba8     libvcruntime:memcpy.obj
 0001:00048bc5       Mov8YmmBlocks              0000000180049bc5     libvcruntime:memcpy.obj
 0001:00048bd9       Mov7YmmBlocks              0000000180049bd9     libvcruntime:memcpy.obj
 0001:00048bed       Mov6YmmBlocks              0000000180049bed     libvcruntime:memcpy.obj
 0001:00048c01       Mov5YmmBlocks              0000000180049c01     libvcruntime:memcpy.obj
 0001:00048c15       Mov4YmmBlocks              0000000180049c15     libvcruntime:memcpy.obj
 0001:00048c23       Mov3YmmBlocks              0000000180049c23     libvcruntime:memcpy.obj
 0001:00048c31       Mov2YmmBlocks              0000000180049c31     libvcruntime:memcpy.obj
 0001:00048c3f       Mov1YmmBlocks              0000000180049c3f     libvcruntime:memcpy.obj
 0001:00048c46       Mov0YmmBlocks              0000000180049c46     libvcruntime:memcpy.obj
 0001:00048c50       YmmLoopNT                  0000000180049c50     libvcruntime:memcpy.obj
 0001:00048cf5       Mov8YmmBlocksNT            0000000180049cf5     libvcruntime:memcpy.obj
 0001:00048d09       Mov7YmmBlocksNT            0000000180049d09     libvcruntime:memcpy.obj
 0001:00048d1d       Mov6YmmBlocksNT            0000000180049d1d     libvcruntime:memcpy.obj
 0001:00048d31       Mov5YmmBlocksNT            0000000180049d31     libvcruntime:memcpy.obj
 0001:00048d45       Mov4YmmBlocksNT            0000000180049d45     libvcruntime:memcpy.obj
 0001:00048d53       Mov3YmmBlocksNT            0000000180049d53     libvcruntime:memcpy.obj
 0001:00048d61       Mov2YmmBlocksNT            0000000180049d61     libvcruntime:memcpy.obj
 0001:00048d6f       Mov1YmmBlocksNT            0000000180049d6f     libvcruntime:memcpy.obj
 0001:00048d76       Mov0YmmBlocksNT            0000000180049d76     libvcruntime:memcpy.obj
 0001:00048d90       NoAVX                      0000000180049d90     libvcruntime:memcpy.obj
 0001:00048da6       MoveWithXMM                0000000180049da6     libvcruntime:memcpy.obj
 0001:00048de0       XmmLoop                    0000000180049de0     libvcruntime:memcpy.obj
 0001:00048e4c       MovUpTo128WithXMM          0000000180049e4c     libvcruntime:memcpy.obj
 0001:00048e69       Mov8XmmBlocks              0000000180049e69     libvcruntime:memcpy.obj
 0001:00048e77       Mov7XmmBlocks              0000000180049e77     libvcruntime:memcpy.obj
 0001:00048e85       Mov6XmmBlocks              0000000180049e85     libvcruntime:memcpy.obj
 0001:00048e93       Mov5XmmBlocks              0000000180049e93     libvcruntime:memcpy.obj
 0001:00048ea1       Mov4XmmBlocks              0000000180049ea1     libvcruntime:memcpy.obj
 0001:00048eaf       Mov3XmmBlocks              0000000180049eaf     libvcruntime:memcpy.obj
 0001:00048ebd       Mov2XmmBlocks              0000000180049ebd     libvcruntime:memcpy.obj
 0001:00048ecb       Mov1XmmBlocks              0000000180049ecb     libvcruntime:memcpy.obj
 0001:00048ed2       Mov0XmmBlocks              0000000180049ed2     libvcruntime:memcpy.obj
 0001:00048ee0       CopyDown                   0000000180049ee0     libvcruntime:memcpy.obj
 0001:00048efb       XmmMovAlign                0000000180049efb     libvcruntime:memcpy.obj
 0001:00048f13       XmmMovLargeTest            0000000180049f13     libvcruntime:memcpy.obj
 0001:00048f30       XmmMovLargeOuter           0000000180049f30     libvcruntime:memcpy.obj
 0001:00048f37       XmmMovLargeInner           0000000180049f37     libvcruntime:memcpy.obj
 0001:00048f8d       XmmMovSmallTest            0000000180049f8d     libvcruntime:memcpy.obj
 0001:00048fa0       XmmMovSmallLoop            0000000180049fa0     libvcruntime:memcpy.obj
 0001:00048fb0       XmmMovTrailing             0000000180049fb0     libvcruntime:memcpy.obj
 0001:00048fb9       XmmMovReturn               0000000180049fb9     libvcruntime:memcpy.obj
 0001:00048fd0       ?fin$0@?0??dllmain_crt_process_attach@@YAHQEAUHINSTANCE__@@QEAX@Z@4HA 0000000180049fd0 f   LIBCMT:dll_dllmain.obj
 0001:00048fe7       ?fin$0@?0??dllmain_crt_process_detach@@YAH_N@Z@4HA 0000000180049fe7 f   LIBCMT:dll_dllmain.obj
 0001:00049000       ?fin$1@?0??dllmain_crt_process_detach@@YAH_N@Z@4HA 000000018004a000 f   LIBCMT:dll_dllmain.obj
 0001:00049014       ?filt$0@?0??dllmain_dispatch@@YAHQEAUHINSTANCE__@@KQEAX@Z@4HA 000000018004a014 f   LIBCMT:dll_dllmain.obj
 0001:0004904a       __scrt_is_nonwritable_in_current_image$filt$0 000000018004a04a f   LIBCMT:utility.obj
 0001:00049062       __DestructExceptionObject$filt$0 000000018004a062 f   libvcruntime:ehhelpers.obj
 0001:000490f4       ?dtor$0@?0??getDecoratedName@UnDecorator@@AEAA?AVDName@@XZ@4HA 000000018004a0f4 f   libvcruntime:undname.obj
 0001:00049100       __unDNameEx$fin$0          000000018004a100 f   libvcruntime:undname.obj
 0001:00049116       ?filt$0@?0???$_CallSETranslator@V__FrameHandler3@@@@YAHPEAUEHExceptionRecord@@PEA_KPEAU_CONTEXT@@PEAU_xDISPATCHER_CONTEXT@@PEBU_s_FuncInfo@@K1H@Z@4HA 000000018004a116 f   libvcruntime:risctrnsctrl.obj
 0001:000491bd       ?filt$0@?0???$_CallSETranslator@V__FrameHandler4@@@@YAHPEAUEHExceptionRecord@@PEA_KPEAU_CONTEXT@@PEAU_xDISPATCHER_CONTEXT@@PEAUFuncInfo4@FH4@@K1H@Z@4HA 000000018004a1bd f   libvcruntime:risctrnsctrl.obj
 0001:00049272       ?fin$0@?0???$__InternalCxxFrameHandlerWrapper@V__FrameHandler4@@@@YA?AW4_EXCEPTION_DISPOSITION@@PEAUEHExceptionRecord@@PEA_KPEAU_CONTEXT@@PEAU_xDISPATCHER_CONTEXT@@PEAUFuncInfo4@FH4@@H1E@Z@4HA 000000018004a272 f   libvcruntime:frame.obj
 0001:0004928e       ?filt$0@?0??CxxCallCatchBlock@__FrameHandler3@@SAPEAXPEAU_EXCEPTION_RECORD@@@Z@4HA 000000018004a28e f   libvcruntime:frame.obj
 0001:000492af       ?fin$1@?0??CxxCallCatchBlock@__FrameHandler3@@SAPEAXPEAU_EXCEPTION_RECORD@@@Z@4HA 000000018004a2af f   libvcruntime:frame.obj
 0001:00049335       ?filt$0@?0??CxxCallCatchBlock@__FrameHandler4@@SAPEAXPEAU_EXCEPTION_RECORD@@@Z@4HA 000000018004a335 f   libvcruntime:frame.obj
 0001:0004935d       ?fin$1@?0??CxxCallCatchBlock@__FrameHandler4@@SAPEAXPEAU_EXCEPTION_RECORD@@@Z@4HA 000000018004a35d f   libvcruntime:frame.obj
 0001:000493ee       ?filt$0@?0??FrameUnwindToState@__FrameHandler3@@SAXPEA_KPEAU_xDISPATCHER_CONTEXT@@PEBU_s_FuncInfo@@H@Z@4HA 000000018004a3ee f   libvcruntime:frame.obj
 0001:00049404       ?fin$1@?0??FrameUnwindToState@__FrameHandler3@@SAXPEA_KPEAU_xDISPATCHER_CONTEXT@@PEBU_s_FuncInfo@@H@Z@4HA 000000018004a404 f   libvcruntime:frame.obj
 0001:00049427       ?filt$0@?0??FrameUnwindToState@__FrameHandler4@@SAXPEA_KPEAU_xDISPATCHER_CONTEXT@@PEAUFuncInfo4@FH4@@H@Z@4HA 000000018004a427 f   libvcruntime:frame.obj
 0001:0004943d       ?fin$1@?0??FrameUnwindToState@__FrameHandler4@@SAXPEA_KPEAU_xDISPATCHER_CONTEXT@@PEAUFuncInfo4@FH4@@H@Z@4HA 000000018004a43d f   libvcruntime:frame.obj
 0001:00049460       ?fin$0@?0???$?RV<lambda_0ae27a3a962d80f24befdcbee591983d>@@AEAV<lambda_8d0ee55de4b1038c4002e0adecdf1839>@@V<lambda_dc504788e8f1664fe9b84e20bfb512f2>@@@?$__crt_seh_guarded_call@X@@QEAAX$$QEAV<lambda_0ae27a3a962d80f24befdcbee591983d>@@AEAV<lambda_8d0ee55de4b1038c4002e0adecdf1839>@@$$QEAV<lambda_dc504788e8f1664fe9b84e20bfb512f2>@@@Z@4HA 000000018004a460 f   libucrt:per_thread_data.obj
 0001:00049460       ?fin$0@?0???$?RV<lambda_2d41944a1d46af3157314b8a01080d33>@@AEAV<lambda_8f455de75cd7d7f24b4096f044d8b9e6>@@V<lambda_aa500f224e6afead328df44964fe2772>@@@?$__crt_seh_guarded_call@X@@QEAAX$$QEAV<lambda_2d41944a1d46af3157314b8a01080d33>@@AEAV<lambda_8f455de75cd7d7f24b4096f044d8b9e6>@@$$QEAV<lambda_aa500f224e6afead328df44964fe2772>@@@Z@4HA 000000018004a460 f   libucrt:per_thread_data.obj
 0001:00049460       ?fin$0@?0???$?RV<lambda_aa87e3671a710a21b5dc78c0bdf72e11>@@AEAV<lambda_92619d2358a28f41a33ba319515a20b9>@@V<lambda_6992ecaafeb10aed2b74cb1fae11a551>@@@?$__crt_seh_guarded_call@X@@QEAAX$$QEAV<lambda_aa87e3671a710a21b5dc78c0bdf72e11>@@AEAV<lambda_92619d2358a28f41a33ba319515a20b9>@@$$QEAV<lambda_6992ecaafeb10aed2b74cb1fae11a551>@@@Z@4HA 000000018004a460 f   libucrt:per_thread_data.obj
 0001:00049460       ?fin$0@?0???$?RV<lambda_f2e299630e499de9f9a165e60fcd3db5>@@AEAV<lambda_2ae9d31cdba2644fcbeaf08da7c24588>@@V<lambda_40d01ff24d0e7b3814fdbdcee8eab3c7>@@@?$__crt_seh_guarded_call@X@@QEAAX$$QEAV<lambda_f2e299630e499de9f9a165e60fcd3db5>@@AEAV<lambda_2ae9d31cdba2644fcbeaf08da7c24588>@@$$QEAV<lambda_40d01ff24d0e7b3814fdbdcee8eab3c7>@@@Z@4HA 000000018004a460 f   libucrt:per_thread_data.obj
 0001:00049460       ?fin$0@?0???$?RV<lambda_450d765d439847d4c735a33c368b5fc0>@@AEAV<lambda_44731a7d0e6d81c3e6aa82d741081786>@@V<lambda_601a2a7da3b7a96e9554ac7215c4b07c>@@@?$__crt_seh_guarded_call@P6AXH@Z@@QEAAP6AXH@Z$$QEAV<lambda_450d765d439847d4c735a33c368b5fc0>@@AEAV<lambda_44731a7d0e6d81c3e6aa82d741081786>@@$$QEAV<lambda_601a2a7da3b7a96e9554ac7215c4b07c>@@@Z@4HA 000000018004a460 f   libucrt:signal.obj
 0001:00049460       ?fin$0@?0???$?RV<lambda_d80eeec6fff315bfe5c115232f3240e3>@@AEAV<lambda_6e4b09c48022b2350581041d5f6b0c4c>@@V<lambda_2358e3775559c9db80273638284d5e45>@@@?$__crt_seh_guarded_call@X@@QEAAX$$QEAV<lambda_d80eeec6fff315bfe5c115232f3240e3>@@AEAV<lambda_6e4b09c48022b2350581041d5f6b0c4c>@@$$QEAV<lambda_2358e3775559c9db80273638284d5e45>@@@Z@4HA 000000018004a460 f   libucrt:exit.obj
 0001:00049460       ?fin$0@?0???$?RV<lambda_7777bce6b2f8c936911f934f8298dc43>@@AEAV<lambda_f03950bc5685219e0bcd2087efbe011e>@@V<lambda_3883c3dff614d5e0c5f61bb1ac94921c>@@@?$__crt_seh_guarded_call@H@@QEAAH$$QEAV<lambda_7777bce6b2f8c936911f934f8298dc43>@@AEAV<lambda_f03950bc5685219e0bcd2087efbe011e>@@$$QEAV<lambda_3883c3dff614d5e0c5f61bb1ac94921c>@@@Z@4HA 000000018004a460 f   libucrt:onexit.obj
 0001:0004947a       ?filt$0@?0???R<lambda_6e4b09c48022b2350581041d5f6b0c4c>@@QEBA@XZ@4HA 000000018004a47a f   libucrt:exit.obj
 0001:000494a7       _ctrlfp$filt$0             000000018004a4a7 f   libucrt:fpctrl.obj
 0001:000494a7       common_control87$filt$0    000000018004a4a7 f   libucrt:ieee.obj
 0001:000494d3       ?fin$0@?0???$?RV<lambda_efdfa57d1f175319df784efa44bb7b81>@@AEAV<lambda_5f0a4c1567f8adc6734073e5d1e1b35c>@@V<lambda_2e8a7d3640ea6ccb4c2413664c2db6fd>@@@?$__crt_seh_guarded_call@X@@QEAAX$$QEAV<lambda_efdfa57d1f175319df784efa44bb7b81>@@AEAV<lambda_5f0a4c1567f8adc6734073e5d1e1b35c>@@$$QEAV<lambda_2e8a7d3640ea6ccb4c2413664c2db6fd>@@@Z@4HA 000000018004a4d3 f   libucrt:mbctype.obj
 0001:000494ed       ?fin$0@?0??update_thread_multibyte_data_internal@@YAPEAU__crt_multibyte_data@@QEAU__acrt_ptd@@QEAPEAU1@@Z@4HA 000000018004a4ed f   libucrt:mbctype.obj
 0001:00049506       __acrt_initialize_lowio$fin$0 000000018004a506 f   libucrt:ioinit.obj
 0001:00049506       __acrt_lowio_ensure_fh_exists$fin$0 000000018004a506 f   libucrt:osfinfo.obj
 0001:0004951f       _query_new_handler$fin$0   000000018004a51f f   libucrt:new_handler.obj
 0001:00049535       raise$fin$0                000000018004a535 f   libucrt:signal.obj
 0001:00049556       ?fin$0@?0???$?RV<lambda_842d9ff0dc9ef11c61343bbaebe7f885>@@AEAV<lambda_c5860995281e5c4ce005b3de8f5874ee>@@V<lambda_d90129c13df834fdcbf8d2b88dafcf2d>@@@?$__crt_seh_guarded_call@X@@QEAAX$$QEAV<lambda_842d9ff0dc9ef11c61343bbaebe7f885>@@AEAV<lambda_c5860995281e5c4ce005b3de8f5874ee>@@$$QEAV<lambda_d90129c13df834fdcbf8d2b88dafcf2d>@@@Z@4HA 000000018004a556 f   libucrt:fflush.obj
 0001:00049571       ?fin$0@?0???$?RV<lambda_886d6c58226a84441f68b9f2b8217b83>@@AEAV<lambda_ab61a845afdef5b7c387490eaf3616ee>@@V<lambda_f7f22ab5edc0698d5f6905b0d3f44752>@@@?$__crt_seh_guarded_call@X@@QEAAX$$QEAV<lambda_886d6c58226a84441f68b9f2b8217b83>@@AEAV<lambda_ab61a845afdef5b7c387490eaf3616ee>@@$$QEAV<lambda_f7f22ab5edc0698d5f6905b0d3f44752>@@@Z@4HA 000000018004a571 f   libucrt:fflush.obj
 0001:0004958e       ?fin$0@?0???$?RV<lambda_410d79af7f07d98d83a3f525b3859a53>@@AEAV<lambda_3e16ef9562a7dcce91392c22ab16ea36>@@V<lambda_38119f0e861e05405d8a144b9b982f0a>@@@?$__crt_seh_guarded_call@X@@QEAAX$$QEAV<lambda_410d79af7f07d98d83a3f525b3859a53>@@AEAV<lambda_3e16ef9562a7dcce91392c22ab16ea36>@@$$QEAV<lambda_38119f0e861e05405d8a144b9b982f0a>@@@Z@4HA 000000018004a58e f   libucrt:wsetlocale.obj
 0001:000495a8       __acrt_update_thread_locale_data$fin$0 000000018004a5a8 f   libucrt:locale_refcounting.obj
 0001:000495c1       ?fin$0@?0???$?RV<lambda_ad8af0d99a0adf03d037d7dffe354bb5>@@AEAV<lambda_c9ba49e555ba839a7b07aa3fbecb7617>@@V<lambda_2f1ebd5d68526518146ae959c9e734c8>@@@?$__crt_seh_guarded_call@H@@QEAAH$$QEAV<lambda_ad8af0d99a0adf03d037d7dffe354bb5>@@AEAV<lambda_c9ba49e555ba839a7b07aa3fbecb7617>@@$$QEAV<lambda_2f1ebd5d68526518146ae959c9e734c8>@@@Z@4HA 000000018004a5c1 f   libucrt:close.obj
 0001:000495c1       ?fin$0@?0???$?RV<lambda_a37b2b86f63e897a80ea819b0eb08c01>@@AEAV<lambda_38ce7e780aa69e748d6df282ebc68efe>@@V<lambda_99fb1378e971ab6e7edea83e3a7a83a2>@@@?$__crt_seh_guarded_call@H@@QEAAH$$QEAV<lambda_a37b2b86f63e897a80ea819b0eb08c01>@@AEAV<lambda_38ce7e780aa69e748d6df282ebc68efe>@@$$QEAV<lambda_99fb1378e971ab6e7edea83e3a7a83a2>@@@Z@4HA 000000018004a5c1 f   libucrt:commit.obj
 0001:000495db       _write_internal$fin$0      000000018004a5db f   libucrt:write.obj
 0001:000495f2       _fcloseall$fin$0           000000018004a5f2 f   libucrt:closeall.obj
 0001:0004960b       ?fin$0@?0??_fclose_internal@@YAHQEAU_iobuf@@AEAV__crt_cached_ptd_host@@@Z@4HA 000000018004a60b f   libucrt:fclose.obj
 0001:00049630       _IsNonwritableInCurrentImage$filt$0 000000018004a630 f   LIBCMT:pesect.obj
 0002:000002b8       ?minFError$initializer$@_VecMathTests@aos@shdfnd@physx@@3P6AXXZEA 000000018004b2b8     Cooking.obj
 0002:000002c0       ?maxFError$initializer$@_VecMathTests@aos@shdfnd@physx@@3P6AXXZEA 000000018004b2c0     Cooking.obj
 0002:000002c8       ?minV3Error$initializer$@_VecMathTests@aos@shdfnd@physx@@3P6AXXZEA 000000018004b2c8     Cooking.obj
 0002:000002d0       ?maxV3Error$initializer$@_VecMathTests@aos@shdfnd@physx@@3P6AXXZEA 000000018004b2d0     Cooking.obj
 0002:000002d8       ?minV4Error$initializer$@_VecMathTests@aos@shdfnd@physx@@3P6AXXZEA 000000018004b2d8     Cooking.obj
 0002:000002e0       ?maxV4Error$initializer$@_VecMathTests@aos@shdfnd@physx@@3P6AXXZEA 000000018004b2e0     Cooking.obj
 0002:000002e8       ?minFError$initializer$@_VecMathTests@aos@shdfnd@physx@@3P6AXXZEA 000000018004b2e8     BVHStructureBuilder.obj
 0002:000002f0       ?maxFError$initializer$@_VecMathTests@aos@shdfnd@physx@@3P6AXXZEA 000000018004b2f0     BVHStructureBuilder.obj
 0002:000002f8       ?minV3Error$initializer$@_VecMathTests@aos@shdfnd@physx@@3P6AXXZEA 000000018004b2f8     BVHStructureBuilder.obj
 0002:00000300       ?maxV3Error$initializer$@_VecMathTests@aos@shdfnd@physx@@3P6AXXZEA 000000018004b300     BVHStructureBuilder.obj
 0002:00000308       ?minV4Error$initializer$@_VecMathTests@aos@shdfnd@physx@@3P6AXXZEA 000000018004b308     BVHStructureBuilder.obj
 0002:00000310       ?maxV4Error$initializer$@_VecMathTests@aos@shdfnd@physx@@3P6AXXZEA 000000018004b310     BVHStructureBuilder.obj
 0002:00000318       ?minFError$initializer$@_VecMathTests@aos@shdfnd@physx@@3P6AXXZEA 000000018004b318     RTreeCooking.obj
 0002:00000320       ?maxFError$initializer$@_VecMathTests@aos@shdfnd@physx@@3P6AXXZEA 000000018004b320     RTreeCooking.obj
 0002:00000328       ?minV3Error$initializer$@_VecMathTests@aos@shdfnd@physx@@3P6AXXZEA 000000018004b328     RTreeCooking.obj
 0002:00000330       ?maxV3Error$initializer$@_VecMathTests@aos@shdfnd@physx@@3P6AXXZEA 000000018004b330     RTreeCooking.obj
 0002:00000338       ?minV4Error$initializer$@_VecMathTests@aos@shdfnd@physx@@3P6AXXZEA 000000018004b338     RTreeCooking.obj
 0002:00000340       ?maxV4Error$initializer$@_VecMathTests@aos@shdfnd@physx@@3P6AXXZEA 000000018004b340     RTreeCooking.obj
 0002:00000348       ?minFError$initializer$@_VecMathTests@aos@shdfnd@physx@@3P6AXXZEA 000000018004b348     MeshBuilder.obj
 0002:00000350       ?maxFError$initializer$@_VecMathTests@aos@shdfnd@physx@@3P6AXXZEA 000000018004b350     MeshBuilder.obj
 0002:00000358       ?minV3Error$initializer$@_VecMathTests@aos@shdfnd@physx@@3P6AXXZEA 000000018004b358     MeshBuilder.obj
 0002:00000360       ?maxV3Error$initializer$@_VecMathTests@aos@shdfnd@physx@@3P6AXXZEA 000000018004b360     MeshBuilder.obj
 0002:00000368       ?minV4Error$initializer$@_VecMathTests@aos@shdfnd@physx@@3P6AXXZEA 000000018004b368     MeshBuilder.obj
 0002:00000370       ?maxV4Error$initializer$@_VecMathTests@aos@shdfnd@physx@@3P6AXXZEA 000000018004b370     MeshBuilder.obj
 0002:00000378       ?minFError$initializer$@_VecMathTests@aos@shdfnd@physx@@3P6AXXZEA 000000018004b378     TriangleMeshBuilder.obj
 0002:00000380       ?maxFError$initializer$@_VecMathTests@aos@shdfnd@physx@@3P6AXXZEA 000000018004b380     TriangleMeshBuilder.obj
 0002:00000388       ?minV3Error$initializer$@_VecMathTests@aos@shdfnd@physx@@3P6AXXZEA 000000018004b388     TriangleMeshBuilder.obj
 0002:00000390       ?maxV3Error$initializer$@_VecMathTests@aos@shdfnd@physx@@3P6AXXZEA 000000018004b390     TriangleMeshBuilder.obj
 0002:00000398       ?minV4Error$initializer$@_VecMathTests@aos@shdfnd@physx@@3P6AXXZEA 000000018004b398     TriangleMeshBuilder.obj
 0002:000003a0       ?maxV4Error$initializer$@_VecMathTests@aos@shdfnd@physx@@3P6AXXZEA 000000018004b3a0     TriangleMeshBuilder.obj
 0002:000003a8       ?minFError$initializer$@_VecMathTests@aos@shdfnd@physx@@3P6AXXZEA 000000018004b3a8     BigConvexDataBuilder.obj
 0002:000003b0       ?maxFError$initializer$@_VecMathTests@aos@shdfnd@physx@@3P6AXXZEA 000000018004b3b0     BigConvexDataBuilder.obj
 0002:000003b8       ?minV3Error$initializer$@_VecMathTests@aos@shdfnd@physx@@3P6AXXZEA 000000018004b3b8     BigConvexDataBuilder.obj
 0002:000003c0       ?maxV3Error$initializer$@_VecMathTests@aos@shdfnd@physx@@3P6AXXZEA 000000018004b3c0     BigConvexDataBuilder.obj
 0002:000003c8       ?minV4Error$initializer$@_VecMathTests@aos@shdfnd@physx@@3P6AXXZEA 000000018004b3c8     BigConvexDataBuilder.obj
 0002:000003d0       ?maxV4Error$initializer$@_VecMathTests@aos@shdfnd@physx@@3P6AXXZEA 000000018004b3d0     BigConvexDataBuilder.obj
 0002:000003d8       ?minFError$initializer$@_VecMathTests@aos@shdfnd@physx@@3P6AXXZEA 000000018004b3d8     ConvexHullBuilder.obj
 0002:000003e0       ?maxFError$initializer$@_VecMathTests@aos@shdfnd@physx@@3P6AXXZEA 000000018004b3e0     ConvexHullBuilder.obj
 0002:000003e8       ?minV3Error$initializer$@_VecMathTests@aos@shdfnd@physx@@3P6AXXZEA 000000018004b3e8     ConvexHullBuilder.obj
 0002:000003f0       ?maxV3Error$initializer$@_VecMathTests@aos@shdfnd@physx@@3P6AXXZEA 000000018004b3f0     ConvexHullBuilder.obj
 0002:000003f8       ?minV4Error$initializer$@_VecMathTests@aos@shdfnd@physx@@3P6AXXZEA 000000018004b3f8     ConvexHullBuilder.obj
 0002:00000400       ?maxV4Error$initializer$@_VecMathTests@aos@shdfnd@physx@@3P6AXXZEA 000000018004b400     ConvexHullBuilder.obj
 0002:00000408       ?minFError$initializer$@_VecMathTests@aos@shdfnd@physx@@3P6AXXZEA 000000018004b408     ConvexHullUtils.obj
 0002:00000410       ?maxFError$initializer$@_VecMathTests@aos@shdfnd@physx@@3P6AXXZEA 000000018004b410     ConvexHullUtils.obj
 0002:00000418       ?minV3Error$initializer$@_VecMathTests@aos@shdfnd@physx@@3P6AXXZEA 000000018004b418     ConvexHullUtils.obj
 0002:00000420       ?maxV3Error$initializer$@_VecMathTests@aos@shdfnd@physx@@3P6AXXZEA 000000018004b420     ConvexHullUtils.obj
 0002:00000428       ?minV4Error$initializer$@_VecMathTests@aos@shdfnd@physx@@3P6AXXZEA 000000018004b428     ConvexHullUtils.obj
 0002:00000430       ?maxV4Error$initializer$@_VecMathTests@aos@shdfnd@physx@@3P6AXXZEA 000000018004b430     ConvexHullUtils.obj
 0002:00000438       ?minFError$initializer$@_VecMathTests@aos@shdfnd@physx@@3P6AXXZEA 000000018004b438     ConvexMeshBuilder.obj
 0002:00000440       ?maxFError$initializer$@_VecMathTests@aos@shdfnd@physx@@3P6AXXZEA 000000018004b440     ConvexMeshBuilder.obj
 0002:00000448       ?minV3Error$initializer$@_VecMathTests@aos@shdfnd@physx@@3P6AXXZEA 000000018004b448     ConvexMeshBuilder.obj
 0002:00000450       ?maxV3Error$initializer$@_VecMathTests@aos@shdfnd@physx@@3P6AXXZEA 000000018004b450     ConvexMeshBuilder.obj
 0002:00000458       ?minV4Error$initializer$@_VecMathTests@aos@shdfnd@physx@@3P6AXXZEA 000000018004b458     ConvexMeshBuilder.obj
 0002:00000460       ?maxV4Error$initializer$@_VecMathTests@aos@shdfnd@physx@@3P6AXXZEA 000000018004b460     ConvexMeshBuilder.obj
 0002:00000468       ?minFError$initializer$@_VecMathTests@aos@shdfnd@physx@@3P6AXXZEA 000000018004b468     VolumeIntegration.obj
 0002:00000470       ?maxFError$initializer$@_VecMathTests@aos@shdfnd@physx@@3P6AXXZEA 000000018004b470     VolumeIntegration.obj
 0002:00000478       ?minV3Error$initializer$@_VecMathTests@aos@shdfnd@physx@@3P6AXXZEA 000000018004b478     VolumeIntegration.obj
 0002:00000480       ?maxV3Error$initializer$@_VecMathTests@aos@shdfnd@physx@@3P6AXXZEA 000000018004b480     VolumeIntegration.obj
 0002:00000488       ?minV4Error$initializer$@_VecMathTests@aos@shdfnd@physx@@3P6AXXZEA 000000018004b488     VolumeIntegration.obj
 0002:00000490       ?maxV4Error$initializer$@_VecMathTests@aos@shdfnd@physx@@3P6AXXZEA 000000018004b490     VolumeIntegration.obj
 0002:00000630       ?minus1w@?A0x37c868b8@aos@shdfnd@physx@@3QBMB 000000018004b630     Cooking.obj
 0002:00000640       ?gMaskXYZ@internalWindowsSimd@aos@shdfnd@physx@@3QBIB 000000018004b640     Cooking.obj
 0002:00000dd0       ?minus1w@?A0x89379eb9@aos@shdfnd@physx@@3QBMB 000000018004bdd0     BVHStructureBuilder.obj
 0002:00000de0       ?gMaskXYZ@internalWindowsSimd@aos@shdfnd@physx@@3QBIB 000000018004bde0     BVHStructureBuilder.obj
 0002:00000e60       ?minus1w@?A0x0f00d077@aos@shdfnd@physx@@3QBMB 000000018004be60     RTreeCooking.obj
 0002:00000e70       ?gMaskXYZ@internalWindowsSimd@aos@shdfnd@physx@@3QBIB 000000018004be70     RTreeCooking.obj
 0002:00000eb8       ?stopAtTrisPerPage@physx@@3QBIB 000000018004beb8     RTreeCooking.obj
 0002:00000ef8       ?stopAtTrisPerLeaf@physx@@3QBIB 000000018004bef8     RTreeCooking.obj
 0002:000010a0       ?minus1w@?A0x517a1832@aos@shdfnd@physx@@3QBMB 000000018004c0a0     MeshBuilder.obj
 0002:000010b0       ?gMaskXYZ@internalWindowsSimd@aos@shdfnd@physx@@3QBIB 000000018004c0b0     MeshBuilder.obj
 0002:000010d0       ?minus1w@?A0xe3b09cb6@aos@shdfnd@physx@@3QBMB 000000018004c0d0     TriangleMeshBuilder.obj
 0002:000010e0       ?gMaskXYZ@internalWindowsSimd@aos@shdfnd@physx@@3QBIB 000000018004c0e0     TriangleMeshBuilder.obj
 0002:00001490       ?minus1w@?A0xcf36c951@aos@shdfnd@physx@@3QBMB 000000018004c490     BigConvexDataBuilder.obj
 0002:000014a0       ?gMaskXYZ@internalWindowsSimd@aos@shdfnd@physx@@3QBIB 000000018004c4a0     BigConvexDataBuilder.obj
 0002:00001520       ?minus1w@?A0x0747126a@aos@shdfnd@physx@@3QBMB 000000018004c520     ConvexHullBuilder.obj
 0002:00001530       ?gMaskXYZ@internalWindowsSimd@aos@shdfnd@physx@@3QBIB 000000018004c530     ConvexHullBuilder.obj
 0002:000019b0       ?minus1w@?A0xe5cc46cc@aos@shdfnd@physx@@3QBMB 000000018004c9b0     ConvexHullUtils.obj
 0002:000019c0       ?gMaskXYZ@internalWindowsSimd@aos@shdfnd@physx@@3QBIB 000000018004c9c0     ConvexHullUtils.obj
 0002:00001a60       ?minus1w@?A0xc9e3b23f@aos@shdfnd@physx@@3QBMB 000000018004ca60     ConvexMeshBuilder.obj
 0002:00001a70       ?gMaskXYZ@internalWindowsSimd@aos@shdfnd@physx@@3QBIB 000000018004ca70     ConvexMeshBuilder.obj
 0002:00001ff0       ?minus1w@?A0x86a9014e@aos@shdfnd@physx@@3QBMB 000000018004cff0     VolumeIntegration.obj
 0002:00002000       ?gMaskXYZ@internalWindowsSimd@aos@shdfnd@physx@@3QBIB 000000018004d000     VolumeIntegration.obj
 0002:00002190       L_abs_mask                 000000018004d190     LIBCMT:svml_ssinf4_dispatch.obj
 0002:000021a0       L_real_one                 000000018004d1a0     LIBCMT:svml_ssinf4_dispatch.obj
 0002:000021b0       L_one_half                 000000018004d1b0     LIBCMT:svml_ssinf4_dispatch.obj
 0002:000021c0       L_two_to_neg_13            000000018004d1c0     LIBCMT:svml_ssinf4_dispatch.obj
 0002:000021d0       L_pi_over_two              000000018004d1d0     LIBCMT:svml_ssinf4_dispatch.obj
 0002:000021e0       L_pi_over_two2             000000018004d1e0     LIBCMT:svml_ssinf4_dispatch.obj
 0002:00002360       ?tokenTable@@3QBUStringLiteral@@B 000000018004d360     libvcruntime:undname.obj
 0002:00002470       ?nameTable@@3QBUStringLiteral@@B 000000018004d470     libvcruntime:undname.obj
 0002:000029a0       ?rttiTable@@3QBUStringLiteral@@B 000000018004d9a0     libvcruntime:undname.obj
 0002:000029f0       ?IndirectionName@@3QBUStringLiteral@@B 000000018004d9f0     libvcruntime:undname.obj
 0002:00002a50       ?PrefixName@@3QBUStringLiteral@@B 000000018004da50     libvcruntime:undname.obj
 0002:000036e0       ?result@?1??IsValidIdentChar@@YA_ND@Z@4U<unnamed-type-result>@?1??InitValidIdentChar@@YA@XZ@B 000000018004e6e0     libvcruntime:undname.obj
 0002:00003850       ?ExceptionTemplate@?1??UnwindNestedFrames@__FrameHandler4@@SAXPEA_KPEAUEHExceptionRecord@@PEAU_CONTEXT@@0PEAXPEAUFuncInfo4@FH4@@HHPEAUHandlerType4@6@PEAU_xDISPATCHER_CONTEXT@@E@Z@4U_EXCEPTION_RECORD@@B 000000018004e850     libvcruntime:risctrnsctrl.obj
 0002:000038f0       ?ExceptionTemplate@?1??UnwindNestedFrames@__FrameHandler3@@SAXPEA_KPEAUEHExceptionRecord@@PEAU_CONTEXT@@0PEAXPEBU_s_FuncInfo@@HHPEBU_s_HandlerType@@PEAU_xDISPATCHER_CONTEXT@@E@Z@4U_EXCEPTION_RECORD@@B 000000018004e8f0     libvcruntime:risctrnsctrl.obj
 0002:00003988       ?module_names@?A0x14174aea@@3QBQEB_WB 000000018004e988     libvcruntime:winapi_downlevel.obj
 0002:00003a48       ?candidate_modules@?1??try_get_FlsAlloc@@YAP6AKP6AXPEAX@Z@ZXZ@4QBW4module_id@?A0x14174aea@@B 000000018004ea48     libvcruntime:winapi_downlevel.obj
 0002:00003a60       ?candidate_modules@?1??try_get_FlsFree@@YAP6AHK@ZXZ@4QBW4module_id@?A0x14174aea@@B 000000018004ea60     libvcruntime:winapi_downlevel.obj
 0002:00003a70       ?candidate_modules@?1??try_get_FlsGetValue@@YAP6APEAXK@ZXZ@4QBW4module_id@?A0x14174aea@@B 000000018004ea70     libvcruntime:winapi_downlevel.obj
 0002:00003a88       ?candidate_modules@?1??try_get_FlsSetValue@@YAP6AHKPEAX@ZXZ@4QBW4module_id@?A0x14174aea@@B 000000018004ea88     libvcruntime:winapi_downlevel.obj
 0002:00003aa0       ?candidate_modules@?1??try_get_InitializeCriticalSectionEx@@YAP6AHPEAU_RTL_CRITICAL_SECTION@@KK@ZXZ@4QBW4module_id@?A0x14174aea@@B 000000018004eaa0     libvcruntime:winapi_downlevel.obj
 0002:00003b20       ?atan_jby256@?1??atan2f@@9@9 000000018004eb20     libucrt:atan2f.obj
 0002:00004320       L_real_one                 000000018004f320     libucrt:cosf.obj
 0002:00004330       L_one_half                 000000018004f330     libucrt:cosf.obj
 0002:00004340       L_2bypi                    000000018004f340     libucrt:cosf.obj
 0002:00004350       L_one_sixth                000000018004f350     libucrt:cosf.obj
 0002:00004360       L_piby2                    000000018004f360     libucrt:cosf.obj
 0002:00004370       L_piby2_1                  000000018004f370     libucrt:cosf.obj
 0002:00004380       L_piby2_1tail              000000018004f380     libucrt:cosf.obj
 0002:00004390       L_piby2_2                  000000018004f390     libucrt:cosf.obj
 0002:000043a0       L_piby2_2tail              000000018004f3a0     libucrt:cosf.obj
 0002:000043b0       L_large_x_sse2             000000018004f3b0     libucrt:cosf.obj
 0002:000043c0       L_large_x_fma3             000000018004f3c0     libucrt:cosf.obj
 0002:000043d0       L_sign_mask                000000018004f3d0     libucrt:cosf.obj
 0002:000043e0       L__int_three               000000018004f3e0     libucrt:cosf.obj
 0002:000043f0       L__min_norm_double         000000018004f3f0     libucrt:cosf.obj
 0002:00004400       L_two_to_neg_7             000000018004f400     libucrt:cosf.obj
 0002:00004410       L_two_to_neg_13            000000018004f410     libucrt:cosf.obj
 0002:00004420       L_two_to_32_float          000000018004f420     libucrt:cosf.obj
 0002:00004428       L_one_float                000000018004f428     libucrt:cosf.obj
 0002:00004430       L_inf_mask_32              000000018004f430     libucrt:cosf.obj
 0002:00004440       L_signbit                  000000018004f440     libucrt:sinf.obj
 0002:00004450       L_sign_mask                000000018004f450     libucrt:sinf.obj
 0002:00004460       L_one                      000000018004f460     libucrt:sinf.obj
 0002:00004470       L_int_three                000000018004f470     libucrt:sinf.obj
 0002:00004480       L_one_half                 000000018004f480     libucrt:sinf.obj
 0002:00004490       L_twobypi                  000000018004f490     libucrt:sinf.obj
 0002:000044a0       L_piby2_1                  000000018004f4a0     libucrt:sinf.obj
 0002:000044b0       L_one_sixth                000000018004f4b0     libucrt:sinf.obj
 0002:000044c0       L_piby2_1tail              000000018004f4c0     libucrt:sinf.obj
 0002:000044d0       L_piby2_2                  000000018004f4d0     libucrt:sinf.obj
 0002:000044e0       L_piby2_2tail              000000018004f4e0     libucrt:sinf.obj
 0002:000044f0       L_inf_mask_32              000000018004f4f0     libucrt:sinf.obj
 0002:00004500       L_int_two                  000000018004f500     libucrt:sinf.obj
 0002:00004510       L_piby2_lead               000000018004f510     libucrt:sinf.obj
 0002:00004520       L_piby4                    000000018004f520     libucrt:sinf.obj
 0002:00004530       L_mask_3f2                 000000018004f530     libucrt:sinf.obj
 0002:00004540       L_mask_3f8                 000000018004f540     libucrt:sinf.obj
 0002:00004550       L_large_x_fma3             000000018004f550     libucrt:sinf.obj
 0002:00004558       L_large_x_sse2             000000018004f558     libucrt:sinf.obj
 0002:00004560       L_near_one                 000000018004f560     libucrt:sinf.obj
 0002:00004568       L_two_to_32                000000018004f568     libucrt:sinf.obj
 0002:00004648       $cppxdata$?try_cor_exit_process@@YAXI@Z 000000018004f648     libucrt:exit.obj
 0002:00004670       $cppxdata$?common_exit@@YAXHW4_crt_exit_cleanup_mode@@W4_crt_exit_return_mode@@@Z 000000018004f670     libucrt:exit.obj
 0002:000046c0       $cppxdata$__dcrt_uninitialize_environments_nolock 000000018004f6c0     libucrt:environment_initialization.obj
 0002:000046e8       $cppxdata$_execute_onexit_table 000000018004f6e8     libucrt:onexit.obj
 0002:00004710       __acrt_initializers        000000018004f710     libucrt:initialization.obj
 0002:00004a30       L__piby2                   000000018004fa30     libucrt:remainder_piby2f_forasm.obj
 0002:00004a40       L_piby2_lead               000000018004fa40     libucrt:remainder_piby2_forfma3.obj
 0002:00004a50       L_fff800                   000000018004fa50     libucrt:remainder_piby2_forfma3.obj
 0002:00004a60       L_piby2_part1              000000018004fa60     libucrt:remainder_piby2_forfma3.obj
 0002:00004a70       L_piby2_part2              000000018004fa70     libucrt:remainder_piby2_forfma3.obj
 0002:00004a80       L_piby2_part3              000000018004fa80     libucrt:remainder_piby2_forfma3.obj
 0002:00004a90       L_piby2_1                  000000018004fa90     libucrt:remainder_piby2_forfma3.obj
 0002:00004aa0       L_piby2_2                  000000018004faa0     libucrt:remainder_piby2_forfma3.obj
 0002:00004ab0       L_piby2_3                  000000018004fab0     libucrt:remainder_piby2_forfma3.obj
 0002:00004ac0       L_piby2_1tail              000000018004fac0     libucrt:remainder_piby2_forfma3.obj
 0002:00004ad0       L_piby2_2tail              000000018004fad0     libucrt:remainder_piby2_forfma3.obj
 0002:00004ae0       L_piby2_3tail              000000018004fae0     libucrt:remainder_piby2_forfma3.obj
 0002:00004af0       L_sign_mask                000000018004faf0     libucrt:remainder_piby2_forfma3.obj
 0002:00004b00       L_twobypi                  000000018004fb00     libucrt:remainder_piby2_forfma3.obj
 0002:00004b10       L_point_five               000000018004fb10     libucrt:remainder_piby2_forfma3.obj
 0002:00004b20       L_int_three                000000018004fb20     libucrt:remainder_piby2_forfma3.obj
 0002:00004b30       L_inf_mask_64              000000018004fb30     libucrt:remainder_piby2_forfma3.obj
 0002:00004b40       L_signbit                  000000018004fb40     libucrt:remainder_piby2_forfma3.obj
 0002:00004b50       L_r                        000000018004fb50     libucrt:remainder_piby2_forfma3.obj
 0002:00004b60       L_xc1                      000000018004fb60     libucrt:remainder_piby2_forfma3.obj
 0002:00004b70       L_xc2                      000000018004fb70     libucrt:remainder_piby2_forfma3.obj
 0002:00004b80       L_xc3                      000000018004fb80     libucrt:remainder_piby2_forfma3.obj
 0002:00004b90       L_sigma                    000000018004fb90     libucrt:remainder_piby2_forfma3.obj
 0002:00004ca0       L__piby2                   000000018004fca0     libucrt:remainder_piby2f_forc.obj
 0002:00004cb0       L__2_by_pi_bits            000000018004fcb0     libucrt:remainder_piby2f_forc.obj
 0002:00004d50       ?errtable@@3QBUerrentry@?A0x31fdb9ec@@B 000000018004fd50     libucrt:errno.obj
 0002:00004eb8       ?_mb_locale_names@@3QBQEB_WB 000000018004feb8     libucrt:mbctype.obj
 0002:00004f20       ?module_names@?A0x391cf84c@@3QBQEB_WB 000000018004ff20     libucrt:winapi_thunks.obj
 0002:00005478       ?candidate_modules@?1??try_get_AreFileApisANSI@@YAP6AHXZXZ@4QBW4module_id@?A0x391cf84c@@B 0000000180050478     libucrt:winapi_thunks.obj
 0002:00005490       ?candidate_modules@?1??try_get_InitializeCriticalSectionEx@@YAP6AHPEAU_RTL_CRITICAL_SECTION@@KK@ZXZ@4QBW4module_id@?A0x391cf84c@@B 0000000180050490     libucrt:winapi_thunks.obj
 0002:00005498       ?candidate_modules@?1??try_get_LCMapStringEx@@YAP6AHPEB_WK0HPEA_WHPEAU_nlsversioninfo@@PEAX_J@ZXZ@4QBW4module_id@?A0x391cf84c@@B 0000000180050498     libucrt:winapi_thunks.obj
 0002:000054b0       ?candidate_modules@?1??try_get_LocaleNameToLCID@@YAP6AKPEB_WK@ZXZ@4QBW4module_id@?A0x391cf84c@@B 00000001800504b0     libucrt:winapi_thunks.obj
 0002:000054cc       ?candidate_modules@?1??try_get_AppPolicyGetProcessTerminationMethod@@YAP6AJPEAXPEAW4AppPolicyProcessTerminationMethod@@@ZXZ@4QBW4module_id@?A0x391cf84c@@B 00000001800504cc     libucrt:winapi_thunks.obj
 0002:00005b80       ?strings@?1??fp_format_nan_or_infinity@@YAHW4__acrt_fp_class@@_NPEAD_K1@Z@4QAY03QEBDA 0000000180050b80     libucrt:cvt.obj
 0002:00006260       __real@433fffffffffffff    0000000180051260     libucrt:fpsr.obj
 0002:00006268       __real@c33fffffffffffff    0000000180051268     libucrt:fpsr.obj
 0002:00006280       ?LcidToLocaleNameTable@?A0x881e4c05@@3QBULcidToLocaleName@1@B 0000000180051280     libucrt:lcidtoname_downlevel.obj
 0002:00007ce0       ?LocaleNameToIndexTable@?A0x881e4c05@@3QBULocaleNameIndex@1@B 0000000180052ce0     libucrt:lcidtoname_downlevel.obj
 0002:00009578       $cppxdata$?write_double_translated_ansi_nolock@@YA?AUwrite_result@?A0x17268360@@HQEBDIAEAV__crt_cached_ptd_host@@@Z 0000000180054578     libucrt:write.obj
 0002:00009f90       __real_ninf                0000000180054f90     libucrt:log10.obj
 0002:00009fa0       __real_inf                 0000000180054fa0     libucrt:log10.obj
 0002:00009fb0       __real_neg_qnan            0000000180054fb0     libucrt:log10.obj
 0002:00009fc0       __real_qnanbit             0000000180054fc0     libucrt:log10.obj
 0002:00009fd0       __int_1023                 0000000180054fd0     libucrt:log10.obj
 0002:00009fe0       __mask_001                 0000000180054fe0     libucrt:log10.obj
 0002:00009ff0       __mask_mant                0000000180054ff0     libucrt:log10.obj
 0002:0000a000       __mask_mant_top8           0000000180055000     libucrt:log10.obj
 0002:0000a010       __mask_mant9               0000000180055010     libucrt:log10.obj
 0002:0000a020       __real_log10_e             0000000180055020     libucrt:log10.obj
 0002:0000a030       __real_log10_e_lead        0000000180055030     libucrt:log10.obj
 0002:0000a040       __real_log10_e_tail        0000000180055040     libucrt:log10.obj
 0002:0000a050       __real_log10_2_lead        0000000180055050     libucrt:log10.obj
 0002:0000a060       __real_log10_2_tail        0000000180055060     libucrt:log10.obj
 0002:0000a070       __real_two                 0000000180055070     libucrt:log10.obj
 0002:0000a080       __real_one                 0000000180055080     libucrt:log10.obj
 0002:0000a090       __real_half                0000000180055090     libucrt:log10.obj
 0002:0000a0a0       __mask_100                 00000001800550a0     libucrt:log10.obj
 0002:0000a0b0       __real_1_over_512          00000001800550b0     libucrt:log10.obj
 0002:0000a0c0       __real_1_over_2            00000001800550c0     libucrt:log10.obj
 0002:0000a0d0       __real_1_over_3            00000001800550d0     libucrt:log10.obj
 0002:0000a0e0       __real_1_over_4            00000001800550e0     libucrt:log10.obj
 0002:0000a0f0       __real_1_over_5            00000001800550f0     libucrt:log10.obj
 0002:0000a100       __real_1_over_6            0000000180055100     libucrt:log10.obj
 0002:0000a110       __real_neg_1023            0000000180055110     libucrt:log10.obj
 0002:0000a120       __mask_2045                0000000180055120     libucrt:log10.obj
 0002:0000a130       __real_threshold           0000000180055130     libucrt:log10.obj
 0002:0000a140       __real_near_one_lt         0000000180055140     libucrt:log10.obj
 0002:0000a150       __real_near_one_gt         0000000180055150     libucrt:log10.obj
 0002:0000a160       __real_min_norm            0000000180055160     libucrt:log10.obj
 0002:0000a170       __real_notsign             0000000180055170     libucrt:log10.obj
 0002:0000a180       __real_ca1                 0000000180055180     libucrt:log10.obj
 0002:0000a190       __real_ca2                 0000000180055190     libucrt:log10.obj
 0002:0000a1a0       __real_ca3                 00000001800551a0     libucrt:log10.obj
 0002:0000a1b0       __real_ca4                 00000001800551b0     libucrt:log10.obj
 0002:0000a1c0       __mask_lower               00000001800551c0     libucrt:log10.obj
 0002:0000a1d0       __flag_x_zero              00000001800551d0     libucrt:log10.obj
 0002:0000a1d4       __flag_x_neg               00000001800551d4     libucrt:log10.obj
 0002:0000a1d8       __flag_x_nan               00000001800551d8     libucrt:log10.obj
 0002:0000ba20       GS_ExceptionPointers       0000000180056a20     LIBCMT:gs_report.obj
 0002:0000ba90       SetSmall                   0000000180056a90     libvcruntime:memset.obj
 0002:0000bad0       SetSmallYmm                0000000180056ad0     libvcruntime:memset.obj
 0002:0000baf4       SetSmallYmmNT              0000000180056af4     libvcruntime:memset.obj
 0002:0000bb18       SetSmallXmm                0000000180056b18     libvcruntime:memset.obj
 0002:0000bb40       MoveSmall                  0000000180056b40     libvcruntime:memcpy.obj
 0002:0000bb80       MoveSmallYmm               0000000180056b80     libvcruntime:memcpy.obj
 0002:0000bba4       MoveSmallYmmNT             0000000180056ba4     libvcruntime:memcpy.obj
 0002:0000bbc8       MoveSmallXmm               0000000180056bc8     libvcruntime:memcpy.obj
 0002:0000c678       $unwind$??1Adjacencies@physx@@QEAA@XZ 0000000180057678     Adjacencies.obj
 0002:0000c678       $unwind$??_EPxFoundation@physx@@MEAAPEAXI@Z 0000000180057678     Adjacencies.obj
 0002:0000c678       $unwind$??0ConvexMeshBuilder@physx@@QEAA@_N@Z 0000000180057678     ConvexMeshBuilder.obj
 0002:0000c678       $unwind$?isFinite@PxVec3@physx@@QEBA_NXZ 0000000180057678     ConvexMeshBuilder.obj
 0002:0000c678       $unwind$??0ConvexPolygonsBuilder@physx@@QEAA@PEAUConvexHullData@Gu@1@_N@Z 0000000180057678     ConvexPolygonsBuilder.obj
 0002:0000c678       $unwind$??_GCooking@physx@@UEAAPEAXI@Z 0000000180057678     Cooking.obj
 0002:0000c678       $unwind$??_GPxBase@physx@@MEAAPEAXI@Z 0000000180057678     Cooking.obj
 0002:0000c678       $unwind$??_GPxCooking@physx@@MEAAPEAXI@Z 0000000180057678     Cooking.obj
 0002:0000c678       $unwind$?isKindOf@PxConvexMesh@physx@@MEBA_NPEBD@Z 0000000180057678     Cooking.obj
 0002:0000c678       $unwind$?isKindOf@PxHeightField@physx@@MEBA_NPEBD@Z 0000000180057678     Cooking.obj
 0002:0000c678       $unwind$??_GQuantizer@physx@@MEAAPEAXI@Z 0000000180057678     Quantizer.obj
 0002:0000c678       $unwind$??1RTreeTriangleData@Gu@physx@@UEAA@XZ 0000000180057678     TriangleMeshBuilder.obj
 0002:0000c678       $unwind$??1RTreeTriangleMeshBuilder@physx@@UEAA@XZ 0000000180057678     TriangleMeshBuilder.obj
 0002:0000c678       $unwind$??_GRTreeCookerRemap@physx@@UEAAPEAXI@Z 0000000180057678     TriangleMeshBuilder.obj
 0002:0000c678       $unwind$??_GRemapCallback@RTreeCooker@physx@@UEAAPEAXI@Z 0000000180057678     TriangleMeshBuilder.obj
 0002:0000c678       $unwind$_calloc_base       0000000180057678     libucrt:calloc_base.obj
 0002:0000c678       $unwind$_malloc_base       0000000180057678     libucrt:malloc_base.obj
 0002:0000c678       $unwind$initialize_pointers 0000000180057678     libucrt:initialization.obj
 0002:0000c678       $unwind$uninitialize_allocated_memory 0000000180057678     libucrt:initialization.obj
 0002:0000c678       $unwind$__acrt_initialize_locks 0000000180057678     libucrt:locks.obj
 0002:0000c678       $unwind$__acrt_uninitialize_locks 0000000180057678     libucrt:locks.obj
 0002:0000c678       $unwind$__acrt_freeptd     0000000180057678     libucrt:per_thread_data.obj
 0002:0000c678       $unwind$__acrt_getptd_head 0000000180057678     libucrt:per_thread_data.obj
 0002:0000c678       $unwind$__acrt_get_process_end_policy 0000000180057678     libucrt:win_policies.obj
 0002:0000c678       $unwind$__acrt_AppPolicyGetProcessTerminationMethodInternal 0000000180057678     libucrt:winapi_thunks.obj
 0002:0000c678       $unwind$__acrt_uninitialize_winapi_thunks 0000000180057678     libucrt:winapi_thunks.obj
 0002:0000c678       $unwind$__acrt_update_locale_info 0000000180057678     libucrt:locale_update.obj
 0002:0000c678       $unwind$__acrt_update_locale_info_explicit 0000000180057678     libucrt:locale_update.obj
 0002:0000c678       $unwind$__acrt_update_multibyte_info 0000000180057678     libucrt:locale_update.obj
 0002:0000c678       $unwind$__acrt_update_multibyte_info_explicit 0000000180057678     libucrt:locale_update.obj
 0002:0000c678       $unwind$__acrt_errno_map_os_error 0000000180057678     libucrt:errno.obj
 0002:0000c678       $unwind$__acrt_errno_map_os_error_ptd 0000000180057678     libucrt:errno.obj
 0002:0000c678       $unwind$__acrt_allocate_buffer_for_argv 0000000180057678     libucrt:argv_parsing.obj
 0002:0000c678       $unwind$?exit_or_terminate_process@@YAXI@Z 0000000180057678     libucrt:exit.obj
 0002:0000c678       $unwind$__acrt_uninitialize_stdio 0000000180057678     libucrt:_file.obj
 0002:0000c678       $unwind$__acrt_stdio_free_buffer_nolock 0000000180057678     libucrt:_freebuf.obj
 0002:0000c678       $unwind$?type_case_s@?$output_processor@DV?$string_output_adapter@D@__crt_stdio_output@@V?$format_validation_base@DV?$string_output_adapter@D@__crt_stdio_output@@@2@@__crt_stdio_output@@AEAA_NXZ 0000000180057678     libucrt:output.obj
 0002:0000c678       $unwind$?type_case_s@?$output_processor@DV?$string_output_adapter@D@__crt_stdio_output@@V?$standard_base@DV?$string_output_adapter@D@__crt_stdio_output@@@2@@__crt_stdio_output@@AEAA_NXZ 0000000180057678     libucrt:output.obj
 0002:0000c678       $unwind$strcpy_s           0000000180057678     libucrt:strcpy_s.obj
 0002:0000c678       $unwind$_clrfp             0000000180057678     libucrt:fpctrl.obj
 0002:0000c678       $unwind$_set_statfp        0000000180057678     libucrt:fpctrl.obj
 0002:0000c678       $unwind$_clearfp           0000000180057678     libucrt:ieee.obj
 0002:0000c678       $unwind$_controlfp_s       0000000180057678     libucrt:contrlfp.obj
 0002:0000c678       $unwind$fegetenv           0000000180057678     libucrt:fegetenv.obj
 0002:0000c678       $unwind$feholdexcept       0000000180057678     libucrt:feholdexcept.obj
 0002:0000c678       $unwind$?DloadAcquireSectionWriteAccess@@YAXXZ 0000000180057678     Delayimp:delayhlp.obj
 0002:0000c678       $unwind$__raise_securityfailure 0000000180057678     LIBCMT:gs_report.obj
 0002:0000c678       $unwind$??_Gtype_info@@UEAAPEAXI@Z 0000000180057678     LIBCMT:std_type_info_static.obj
 0002:0000c678       $unwind$__scrt_initialize_onexit_tables 0000000180057678     LIBCMT:utility.obj
 0002:0000c678       $unwind$__scrt_release_startup_lock 0000000180057678     LIBCMT:utility.obj
 0002:0000c678       $unwind$__scrt_uninitialize_crt 0000000180057678     LIBCMT:utility.obj
 0002:0000c678       $unwind$_IsExceptionObjectToBeDestroyed 0000000180057678     libvcruntime:ehhelpers.obj
 0002:0000c678       $unwind$?GetUnwindTryBlock@__FrameHandler3@@SAHPEA_KPEAU_xDISPATCHER_CONTEXT@@PEBU_s_FuncInfo@@@Z 0000000180057678     libvcruntime:ehstate.obj
 0002:0000c678       $unwind$?StateFromIp@__FrameHandler3@@SAHPEBU_s_FuncInfo@@PEAU_xDISPATCHER_CONTEXT@@_K@Z 0000000180057678     libvcruntime:ehstate.obj
 0002:0000c678       $unwind$??0HandlerMap4@FH4@@QEAA@PEBUTryBlockMapEntry4@1@_KH@Z 0000000180057678     libvcruntime:frame.obj
 0002:0000c678       $unwind$??0bad_exception@std@@QEAA@AEBV01@@Z 0000000180057678     libvcruntime:frame.obj
 0002:0000c678       $unwind$??0exception@std@@QEAA@AEBV01@@Z 0000000180057678     libvcruntime:frame.obj
 0002:0000c678       $unwind$?ExFilterRethrow@@YAHPEAU_EXCEPTION_POINTERS@@PEAUEHExceptionRecord@@PEAH@Z 0000000180057678     libvcruntime:frame.obj
 0002:0000c678       $unwind$__vcrt_initialize_locks 0000000180057678     libvcruntime:locks.obj
 0002:0000c678       $unwind$__vcrt_uninitialize_locks 0000000180057678     libvcruntime:locks.obj
 0002:0000c678       $unwind$__vcrt_freeptd_for_this_thread 0000000180057678     libvcruntime:per_thread_data.obj
 0002:0000c678       $unwind$?ExecutionInCatch@__FrameHandler3@@SA_NPEAU_xDISPATCHER_CONTEXT@@PEBU_s_FuncInfo@@@Z 0000000180057678     libvcruntime:risctrnsctrl.obj
 0002:0000c678       $unwind$_CreateFrameInfo   0000000180057678     libvcruntime:risctrnsctrl.obj
 0002:0000c678       $unwind$_SetImageBase      0000000180057678     libvcruntime:risctrnsctrl.obj
 0002:0000c678       $unwind$_SetThrowImageBase 0000000180057678     libvcruntime:risctrnsctrl.obj
 0002:0000c678       $unwind$__std_exception_destroy 0000000180057678     libvcruntime:std_exception.obj
 0002:0000c678       $unwind$__std_type_info_destroy_list 0000000180057678     libvcruntime:std_type_info.obj
 0002:0000c678       $unwind$??$?0$00@DName@@QEAA@PEAVUnDecorator@@PEBDU?$StringLifeSelector@$00@@@Z 0000000180057678     libvcruntime:undname.obj
 0002:0000c678       $unwind$??$?0$01@DName@@QEAA@PEAVUnDecorator@@PEBDU?$StringLifeSelector@$01@@@Z 0000000180057678     libvcruntime:undname.obj
 0002:0000c678       $unwind$??$?0$0A@@DName@@QEAA@PEAVUnDecorator@@PEBDU?$StringLifeSelector@$0A@@@@Z 0000000180057678     libvcruntime:undname.obj
 0002:0000c678       $unwind$??0DName@@QEAA@PEAVUnDecorator@@AEBUStringLiteral@@@Z 0000000180057678     libvcruntime:undname.obj
 0002:0000c678       $unwind$??0DName@@QEAA@PEAVUnDecorator@@D@Z 0000000180057678     libvcruntime:undname.obj
 0002:0000c678       $unwind$??4DName@@QEAAAEAV0@AEBUStringLiteral@@@Z 0000000180057678     libvcruntime:undname.obj
 0002:0000c678       $unwind$??AReplicator@@QEBA?AVDName@@H@Z 0000000180057678     libvcruntime:undname.obj
 0002:0000c678       $unwind$??HDName@@QEBA?AV0@AEBUStringLiteral@@@Z 0000000180057678     libvcruntime:undname.obj
 0002:0000c678       $unwind$??HDName@@QEBA?AV0@AEBV0@@Z 0000000180057678     libvcruntime:undname.obj
 0002:0000c678       $unwind$??HDName@@QEBA?AV0@D@Z 0000000180057678     libvcruntime:undname.obj
 0002:0000c678       $unwind$??HDName@@QEBA?AV0@W4DNameStatus@@@Z 0000000180057678     libvcruntime:undname.obj
 0002:0000c678       $unwind$??YDName@@QEAAAEAV0@AEBV0@@Z 0000000180057678     libvcruntime:undname.obj
 0002:0000c678       $unwind$??YDName@@QEAAAEAV0@W4DNameStatus@@@Z 0000000180057678     libvcruntime:undname.obj
 0002:0000c678       $unwind$?getDispatchTarget@UnDecorator@@AEAA?AVDName@@XZ 0000000180057678     libvcruntime:undname.obj
 0002:0000c678       $unwind$?getLastChar@pairNode@@UEBADXZ 0000000180057678     libvcruntime:undname.obj
 0002:0000c678       $unwind$?getReturnType@UnDecorator@@AEAA?AVDName@@PEAV2@@Z 0000000180057678     libvcruntime:undname.obj
 0002:0000c678       $unwind$?getSymbolName@UnDecorator@@AEAA?AVDName@@XZ 0000000180057678     libvcruntime:undname.obj
 0002:0000c678       $unwind$?getTypeEncoding@UnDecorator@@AEAAHXZ 0000000180057678     libvcruntime:undname.obj
 0002:0000c678       $unwind$__vcrt_FlsAlloc    0000000180057678     libvcruntime:winapi_downlevel.obj
 0002:0000c678       $unwind$__vcrt_FlsFree     0000000180057678     libvcruntime:winapi_downlevel.obj
 0002:0000c678       $unwind$__vcrt_FlsGetValue 0000000180057678     libvcruntime:winapi_downlevel.obj
 0002:0000c680       $chain$0$??_EPxFoundation@physx@@MEAAPEAXI@Z 0000000180057680     Adjacencies.obj
 0002:0000c694       $chain$1$??_EPxFoundation@physx@@MEAAPEAXI@Z 0000000180057694     Adjacencies.obj
 0002:0000c6a4       $chain$0$??1Adjacencies@physx@@QEAA@XZ 00000001800576a4     Adjacencies.obj
 0002:0000c6b8       $chain$2$??1Adjacencies@physx@@QEAA@XZ 00000001800576b8     Adjacencies.obj
 0002:0000c6cc       $chain$3$??1Adjacencies@physx@@QEAA@XZ 00000001800576cc     Adjacencies.obj
 0002:0000c6dc       $unwind$?Init@AdjacenciesBuilder@physx@@QEAA_NAEBUADJACENCIESCREATE@2@@Z 00000001800576dc     Adjacencies.obj
 0002:0000c6f0       $chain$2$?Init@AdjacenciesBuilder@physx@@QEAA_NAEBUADJACENCIESCREATE@2@@Z 00000001800576f0     Adjacencies.obj
 0002:0000c704       $chain$4$?Init@AdjacenciesBuilder@physx@@QEAA_NAEBUADJACENCIESCREATE@2@@Z 0000000180057704     Adjacencies.obj
 0002:0000c71c       $chain$5$?Init@AdjacenciesBuilder@physx@@QEAA_NAEBUADJACENCIESCREATE@2@@Z 000000018005771c     Adjacencies.obj
 0002:0000c730       $chain$6$?Init@AdjacenciesBuilder@physx@@QEAA_NAEBUADJACENCIESCREATE@2@@Z 0000000180057730     Adjacencies.obj
 0002:0000c740       $chain$7$?Init@AdjacenciesBuilder@physx@@QEAA_NAEBUADJACENCIESCREATE@2@@Z 0000000180057740     Adjacencies.obj
 0002:0000c754       $chain$8$?Init@AdjacenciesBuilder@physx@@QEAA_NAEBUADJACENCIESCREATE@2@@Z 0000000180057754     Adjacencies.obj
 0002:0000c768       $unwind$??$?_UV?$ReflectionAllocator@VAdjTriangle@physx@@@shdfnd@physx@@@UserAllocated@shdfnd@physx@@SAPEAX_KV?$ReflectionAllocator@VAdjTriangle@physx@@@12@PEBDH@Z 0000000180057768     Adjacencies.obj
 0002:0000c768       $unwind$??$?_UE@@YAPEAX_KV?$ReflectionAllocator@E@shdfnd@physx@@PEBDH@Z 0000000180057768     ConvexHullBuilder.obj
 0002:0000c768       $unwind$??$?_UUHullTriangleData@physx@@@@YAPEAX_KV?$ReflectionAllocator@UHullTriangleData@physx@@@shdfnd@physx@@PEBDH@Z 0000000180057768     ConvexPolygonsBuilder.obj
 0002:0000c768       $unwind$??$?_UI@@YAPEAX_KV?$ReflectionAllocator@I@shdfnd@physx@@PEBDH@Z 0000000180057768     EdgeList.obj
 0002:0000c768       $unwind$?allocate@?$ReflectionAllocator@I@shdfnd@physx@@QEAAPEAX_KPEBDH@Z 0000000180057768     RTreeCooking.obj
 0002:0000c768       $unwind$??$?_UG@@YAPEAX_KV?$ReflectionAllocator@G@shdfnd@physx@@PEBDH@Z 0000000180057768     TriangleMeshBuilder.obj
 0002:0000c778       $chain$0$??$?_UV?$ReflectionAllocator@VAdjTriangle@physx@@@shdfnd@physx@@@UserAllocated@shdfnd@physx@@SAPEAX_KV?$ReflectionAllocator@VAdjTriangle@physx@@@12@PEBDH@Z 0000000180057778     Adjacencies.obj
 0002:0000c78c       $chain$1$??$?_UV?$ReflectionAllocator@VAdjTriangle@physx@@@shdfnd@physx@@@UserAllocated@shdfnd@physx@@SAPEAX_KV?$ReflectionAllocator@VAdjTriangle@physx@@@12@PEBDH@Z 000000018005778c     Adjacencies.obj
 0002:0000c79c       $unwind$?UpdateLink@@YA_NIIIIPEAVAdjTriangle@physx@@AEBUADJACENCIESCREATE@2@@Z 000000018005779c     Adjacencies.obj
 0002:0000c7a8       $chain$0$?UpdateLink@@YA_NIIIIPEAVAdjTriangle@physx@@AEBUADJACENCIESCREATE@2@@Z 00000001800577a8     Adjacencies.obj
 0002:0000c7bc       $chain$4$?UpdateLink@@YA_NIIIIPEAVAdjTriangle@physx@@AEBUADJACENCIESCREATE@2@@Z 00000001800577bc     Adjacencies.obj
 0002:0000c7dc       $chain$5$?UpdateLink@@YA_NIIIIPEAVAdjTriangle@physx@@AEBUADJACENCIESCREATE@2@@Z 00000001800577dc     Adjacencies.obj
 0002:0000c7f0       $chain$6$?UpdateLink@@YA_NIIIIPEAVAdjTriangle@physx@@AEBUADJACENCIESCREATE@2@@Z 00000001800577f0     Adjacencies.obj
 0002:0000c800       $chain$7$?UpdateLink@@YA_NIIIIPEAVAdjTriangle@physx@@AEBUADJACENCIESCREATE@2@@Z 0000000180057800     Adjacencies.obj
 0002:0000c814       $chain$8$?UpdateLink@@YA_NIIIIPEAVAdjTriangle@physx@@AEBUADJACENCIESCREATE@2@@Z 0000000180057814     Adjacencies.obj
 0002:0000c824       $unwind$?CreateDatabase@@YA_NPEAVAdjTriangle@physx@@IPEBVAdjEdge@@AEBUADJACENCIESCREATE@2@@Z 0000000180057824     Adjacencies.obj
 0002:0000c840       $unwind$?isKindOf@PxBase@physx@@MEBA_NPEBD@Z 0000000180057840     Cooking.obj
 0002:0000c840       $unwind$?release@Cooking@physx@@UEAAXXZ 0000000180057840     Cooking.obj
 0002:0000c840       $unwind$?cookingDelayHook@@YAP6A_JXZIPEAUDelayLoadInfo@@@Z 0000000180057840     WindowsCookingDelayLoadHook.obj
 0002:0000c840       $unwind$__dcrt_terminate_console_output 0000000180057840     libucrt:initcon.obj
 0002:0000c840       $unwind$??$uninitialize_environment_internal@D@@YAXAEAPEAPEAD@Z 0000000180057840     libucrt:environment_initialization.obj
 0002:0000c840       $unwind$??$uninitialize_environment_internal@_W@@YAXAEAPEAPEA_W@Z 0000000180057840     libucrt:environment_initialization.obj
 0002:0000c840       $unwind$__acrt_initialize_heap 0000000180057840     libucrt:heap_handle.obj
 0002:0000c840       $unwind$_msize_base        0000000180057840     libucrt:msize.obj
 0002:0000c840       $unwind$?initialize_multibyte@@YAHXZ 0000000180057840     libucrt:multibyte_initializer.obj
 0002:0000c840       $unwind$__acrt_thread_attach 0000000180057840     libucrt:initialization.obj
 0002:0000c840       $unwind$__acrt_thread_detach 0000000180057840     libucrt:initialization.obj
 0002:0000c840       $unwind$__acrt_uninitialize 0000000180057840     libucrt:initialization.obj
 0002:0000c840       $unwind$__acrt_uninitialize_critical 0000000180057840     libucrt:initialization.obj
 0002:0000c840       $unwind$initialize_c       0000000180057840     libucrt:initialization.obj
 0002:0000c840       $unwind$uninitialize_allocated_io_buffers 0000000180057840     libucrt:initialization.obj
 0002:0000c840       $unwind$uninitialize_environment 0000000180057840     libucrt:initialization.obj
 0002:0000c840       $unwind$__acrt_initialize_ptd 0000000180057840     libucrt:per_thread_data.obj
 0002:0000c840       $unwind$__acrt_uninitialize_ptd 0000000180057840     libucrt:per_thread_data.obj
 0002:0000c840       $unwind$__acrt_AreFileApisANSI 0000000180057840     libucrt:winapi_thunks.obj
 0002:0000c840       $unwind$__pctype_func      0000000180057840     libucrt:ctype.obj
 0002:0000c840       $unwind$__acrt_release_locale_ref 0000000180057840     libucrt:locale_refcounting.obj
 0002:0000c840       $unwind$_isatty            0000000180057840     libucrt:isatty.obj
 0002:0000c840       $unwind$_get_osfhandle     0000000180057840     libucrt:osfinfo.obj
 0002:0000c840       $unwind$__acrt_initialize_multibyte 0000000180057840     libucrt:mbctype.obj
 0002:0000c840       $unwind$__acrt_update_thread_multibyte_data 0000000180057840     libucrt:mbctype.obj
 0002:0000c840       $unwind$__doserrno         0000000180057840     libucrt:errno.obj
 0002:0000c840       $unwind$_errno             0000000180057840     libucrt:errno.obj
 0002:0000c840       $unwind$_invoke_watson     0000000180057840     libucrt:invalid_parameter.obj
 0002:0000c840       $unwind$abort              0000000180057840     libucrt:abort.obj
 0002:0000c840       $unwind$__acrt_initialize_command_line 0000000180057840     libucrt:argv_data.obj
 0002:0000c840       $unwind$?should_call_terminate_process@@YA_NXZ 0000000180057840     libucrt:exit.obj
 0002:0000c840       $unwind$_fileno            0000000180057840     libucrt:fileno.obj
 0002:0000c840       $unwind$_statfp            0000000180057840     libucrt:fpctrl.obj
 0002:0000c840       $unwind$fegetround         0000000180057840     libucrt:fegetround.obj
 0002:0000c840       $unwind$_set_errno_from_matherr 0000000180057840     libucrt:fpexcept.obj
 0002:0000c840       $unwind$?DloadReleaseSectionWriteAccess@@YAXXZ 0000000180057840     Delayimp:delayhlp.obj
 0002:0000c840       $unwind$__scrt_initialize_default_local_stdio_options 0000000180057840     LIBCMT:default_local_stdio_options.obj
 0002:0000c840       $unwind$?dllmain_crt_dispatch@@YAHQEAUHINSTANCE__@@KQEAX@Z 0000000180057840     LIBCMT:dll_dllmain.obj
 0002:0000c840       $unwind$__report_rangecheckfailure 0000000180057840     LIBCMT:gs_report.obj
 0002:0000c840       $unwind$__GSHandlerCheck   0000000180057840     LIBCMT:gshandler.obj
 0002:0000c840       $unwind$__scrt_acquire_startup_lock 0000000180057840     LIBCMT:utility.obj
 0002:0000c840       $unwind$__scrt_dllmain_after_initialize_c 0000000180057840     LIBCMT:utility.obj
 0002:0000c840       $unwind$__scrt_dllmain_before_initialize_c 0000000180057840     LIBCMT:utility.obj
 0002:0000c840       $unwind$__scrt_dllmain_crt_thread_attach 0000000180057840     LIBCMT:utility.obj
 0002:0000c840       $unwind$__scrt_dllmain_crt_thread_detach 0000000180057840     LIBCMT:utility.obj
 0002:0000c840       $unwind$__scrt_dllmain_uninitialize_c 0000000180057840     LIBCMT:utility.obj
 0002:0000c840       $unwind$__scrt_dllmain_uninitialize_critical 0000000180057840     LIBCMT:utility.obj
 0002:0000c840       $unwind$__scrt_initialize_crt 0000000180057840     LIBCMT:utility.obj
 0002:0000c840       $unwind$__std_terminate    0000000180057840     libvcruntime:ehhelpers.obj
 0002:0000c840       $unwind$?GetCurrentState@__FrameHandler3@@SAHPEA_KPEAU_xDISPATCHER_CONTEXT@@PEBU_s_FuncInfo@@@Z 0000000180057840     libvcruntime:ehstate.obj
 0002:0000c840       $xdatasym$_CallSettingFrame 0000000180057840     libvcruntime:handlers.obj
 0002:0000c840       $xdatasym$_CallSettingFrameEncoded 0000000180057840     libvcruntime:handlers.obj
 0002:0000c840       $xdatasym$_CallSettingFrame_LookupContinuationIndex 0000000180057840     libvcruntime:handlers.obj
 0002:0000c840       $xdatasym$_CallSettingFrame_NotifyContinuationAddr 0000000180057840     libvcruntime:handlers.obj
 0002:0000c840       $unwind$__vcrt_initialize  0000000180057840     libvcruntime:initialization.obj
 0002:0000c840       $unwind$__vcrt_thread_attach 0000000180057840     libvcruntime:initialization.obj
 0002:0000c840       $unwind$__vcrt_thread_detach 0000000180057840     libvcruntime:initialization.obj
 0002:0000c840       $unwind$__vcrt_uninitialize 0000000180057840     libvcruntime:initialization.obj
 0002:0000c840       $unwind$__vcrt_uninitialize_critical 0000000180057840     libvcruntime:initialization.obj
 0002:0000c840       $unwind$__vcrt_freefls     0000000180057840     libvcruntime:per_thread_data.obj
 0002:0000c840       $unwind$__vcrt_getptd      0000000180057840     libvcruntime:per_thread_data.obj
 0002:0000c840       $unwind$__vcrt_initialize_ptd 0000000180057840     libvcruntime:per_thread_data.obj
 0002:0000c840       $unwind$__vcrt_uninitialize_ptd 0000000180057840     libvcruntime:per_thread_data.obj
 0002:0000c840       $unwind$_purecall          0000000180057840     libvcruntime:purevirt.obj
 0002:0000c840       $unwind$?FrameUnwindToEmptyState@__FrameHandler4@@SAXPEA_KPEAU_xDISPATCHER_CONTEXT@@PEAUFuncInfo4@FH4@@@Z 0000000180057840     libvcruntime:risctrnsctrl.obj
 0002:0000c840       $unwind$_GetImageBase      0000000180057840     libvcruntime:risctrnsctrl.obj
 0002:0000c840       $unwind$_GetThrowImageBase 0000000180057840     libvcruntime:risctrnsctrl.obj
 0002:0000c840       $unwind$?getLastChar@pDNameNode@@UEBADXZ 0000000180057840     libvcruntime:undname.obj
 0002:0000c840       $unwind$?getString@pDNameNode@@UEBAPEADPEAD0@Z 0000000180057840     libvcruntime:undname.obj
 0002:0000c840       $unwind$?length@pDNameNode@@UEBAHXZ 0000000180057840     libvcruntime:undname.obj
 0002:0000c848       $unwind$?getTransform@Box@Gu@physx@@QEBA?AVPxTransform@3@XZ 0000000180057848     ConvexHullUtils.obj
 0002:0000c848       $unwind$PxCreateCooking    0000000180057848     Cooking.obj
 0002:0000c848       $unwind$?type_case_c_tchar@?$output_processor@DV?$string_output_adapter@D@__crt_stdio_output@@V?$format_validation_base@DV?$string_output_adapter@D@__crt_stdio_output@@@2@@__crt_stdio_output@@AEAA_ND@Z 0000000180057848     libucrt:output.obj
 0002:0000c848       $unwind$?type_case_c_tchar@?$output_processor@DV?$string_output_adapter@D@__crt_stdio_output@@V?$standard_base@DV?$string_output_adapter@D@__crt_stdio_output@@@2@@__crt_stdio_output@@AEAA_ND@Z 0000000180057848     libucrt:output.obj
 0002:0000c848       $unwind$?type_case_n@?$output_processor@DV?$string_output_adapter@D@__crt_stdio_output@@V?$format_validation_base@DV?$string_output_adapter@D@__crt_stdio_output@@@2@@__crt_stdio_output@@AEAA_NXZ 0000000180057848     libucrt:output.obj
 0002:0000c848       $unwind$?type_case_n@?$output_processor@DV?$string_output_adapter@D@__crt_stdio_output@@V?$standard_base@DV?$string_output_adapter@D@__crt_stdio_output@@@2@@__crt_stdio_output@@AEAA_NXZ 0000000180057848     libucrt:output.obj
 0002:0000c854       $unwind$?cookConvexMesh@Cooking@physx@@UEBA_NAEBVPxConvexMeshDesc@2@AEAVPxOutputStream@2@PEAW4Enum@PxConvexMeshCookingResult@2@@Z 0000000180057854     Cooking.obj
 0002:0000c854       $unwind$?cookTriangleMesh@Cooking@physx@@UEBA_NAEBVPxTriangleMeshDesc@2@AEAVPxOutputStream@2@PEAW4Enum@PxTriangleMeshCookingResult@2@@Z 0000000180057854     Cooking.obj
 0002:0000c854       $unwind$?createTriangleMesh@Cooking@physx@@UEBAPEAVPxTriangleMesh@2@AEBVPxTriangleMeshDesc@2@AEAVPxPhysicsInsertionCallback@2@PEAW4Enum@PxTriangleMeshCookingResult@2@@Z 0000000180057854     Cooking.obj
 0002:0000c870       $unwind$?validateTriangleMesh@Cooking@physx@@UEBA_NAEBVPxTriangleMeshDesc@2@@Z 0000000180057870     Cooking.obj
 0002:0000c880       $unwind$?createConvexMesh@Cooking@physx@@UEBAPEAVPxConvexMesh@2@AEBVPxConvexMeshDesc@2@AEAVPxPhysicsInsertionCallback@2@PEAW4Enum@PxConvexMeshCookingResult@2@@Z 0000000180057880     Cooking.obj
 0002:0000c89c       $unwind$?validateConvexMesh@Cooking@physx@@UEBA_NAEBVPxConvexMeshDesc@2@@Z 000000018005789c     Cooking.obj
 0002:0000c8ac       $unwind$?computeHullPolygons@Cooking@physx@@UEBA_NAEBVPxSimpleTriangleMesh@2@AEAVPxAllocatorCallback@2@AEAIAEAPEAVPxVec3@2@2AEAPEAI2AEAPEAUPxHullPolygon@2@@Z 00000001800578ac     Cooking.obj
 0002:0000c8cc       $unwind$?cookHeightField@Cooking@physx@@UEBA_NAEBVPxHeightFieldDesc@2@AEAVPxOutputStream@2@@Z 00000001800578cc     Cooking.obj
 0002:0000c8e0       $unwind$?createHeightField@Cooking@physx@@UEBAPEAVPxHeightField@2@AEBVPxHeightFieldDesc@2@AEAVPxPhysicsInsertionCallback@2@@Z 00000001800578e0     Cooking.obj
 0002:0000c8e0       $unwind$__acrt_fp_format   00000001800578e0     libucrt:cvt.obj
 0002:0000c8f0       $unwind$?cookBVHStructure@Cooking@physx@@UEBA_NAEBVPxBVHStructureDesc@2@AEAVPxOutputStream@2@@Z 00000001800578f0     Cooking.obj
 0002:0000c900       $unwind$?createBVHStructure@Cooking@physx@@UEBAPEAVPxBVHStructure@2@AEBVPxBVHStructureDesc@2@AEAVPxPhysicsInsertionCallback@2@@Z 0000000180057900     Cooking.obj
 0002:0000c900       $unwind$?DloadMakePermanentImageCommit@@YAXPEAX_K@Z 0000000180057900     Delayimp:delayhlp.obj
 0002:0000c900       $unwind$?parseDecoratedName@UnDecorator@@AEAA?AVDName@@XZ 0000000180057900     libvcruntime:undname.obj
 0002:0000c90c       $unwind$?cookConvexMeshInternal@Cooking@physx@@AEBA_NAEBVPxConvexMeshDesc@2@AEAVConvexMeshBuilder@2@PEAVConvexHullLib@2@PEAW4Enum@PxConvexMeshCookingResult@2@@Z 000000018005790c     Cooking.obj
 0002:0000c920       $chain$2$?cookConvexMeshInternal@Cooking@physx@@AEBA_NAEBVPxConvexMeshDesc@2@AEAVConvexMeshBuilder@2@PEAVConvexHullLib@2@PEAW4Enum@PxConvexMeshCookingResult@2@@Z 0000000180057920     Cooking.obj
 0002:0000c938       $chain$3$?cookConvexMeshInternal@Cooking@physx@@AEBA_NAEBVPxConvexMeshDesc@2@AEAVConvexMeshBuilder@2@PEAVConvexHullLib@2@PEAW4Enum@PxConvexMeshCookingResult@2@@Z 0000000180057938     Cooking.obj
 0002:0000c938       $chain$5$?cookConvexMeshInternal@Cooking@physx@@AEBA_NAEBVPxConvexMeshDesc@2@AEAVConvexMeshBuilder@2@PEAVConvexHullLib@2@PEAW4Enum@PxConvexMeshCookingResult@2@@Z 0000000180057938     Cooking.obj
 0002:0000c948       $chain$4$?cookConvexMeshInternal@Cooking@physx@@AEBA_NAEBVPxConvexMeshDesc@2@AEAVConvexMeshBuilder@2@PEAVConvexHullLib@2@PEAW4Enum@PxConvexMeshCookingResult@2@@Z 0000000180057948     Cooking.obj
 0002:0000c960       $unwind$?allocate@?$Array@USlab@NodeAllocator@Gu@physx@@V?$ReflectionAllocator@USlab@NodeAllocator@Gu@physx@@@shdfnd@4@@shdfnd@physx@@IEAAPEAUSlab@NodeAllocator@Gu@3@I@Z 0000000180057960     BVHStructureBuilder.obj
 0002:0000c960       $unwind$?allocate@?$Array@VHalfEdge@ConvexHull@physx@@V?$ReflectionAllocator@VHalfEdge@ConvexHull@physx@@@shdfnd@3@@shdfnd@physx@@IEAAPEAVHalfEdge@ConvexHull@3@I@Z 0000000180057960     ConvexHullUtils.obj
 0002:0000c960       $unwind$?allocate@?$Array@VPxPlane@physx@@V?$ReflectionAllocator@VPxPlane@physx@@@shdfnd@2@@shdfnd@physx@@IEAAPEAVPxPlane@3@I@Z 0000000180057960     ConvexHullUtils.obj
 0002:0000c960       $unwind$?computeBoxPoints@Box@Gu@physx@@QEBAXPEIAVPxVec3@3@@Z 0000000180057960     ConvexHullUtils.obj
 0002:0000c960       $unwind$?allocate@?$Array@VPair@@V?$ReflectionAllocator@VPair@@@shdfnd@physx@@@shdfnd@physx@@IEAAPEAVPair@@I@Z 0000000180057960     ConvexPolygonsBuilder.obj
 0002:0000c960       $unwind$?allocate@?$Array@UPxDebugLine@physx@@V?$ReflectionAllocator@UPxDebugLine@physx@@@shdfnd@2@@shdfnd@physx@@IEAAPEAUPxDebugLine@3@I@Z 0000000180057960     Cooking.obj
 0002:0000c960       $unwind$?allocate@?$Array@PEAUQuickHullFace@local@@V?$ReflectionAllocator@PEAUQuickHullFace@local@@@shdfnd@physx@@@shdfnd@physx@@IEAAPEAPEAUQuickHullFace@local@@I@Z 0000000180057960     QuickHullConvexHullLib.obj
 0002:0000c960       $unwind$?allocate@?$Array@PEAUQuickHullHalfEdge@local@@V?$ReflectionAllocator@PEAUQuickHullHalfEdge@local@@@shdfnd@physx@@@shdfnd@physx@@IEAAPEAPEAUQuickHullHalfEdge@local@@I@Z 0000000180057960     QuickHullConvexHullLib.obj
 0002:0000c960       $unwind$?allocate@?$Array@PEAUQuickHullVertex@local@@V?$ReflectionAllocator@PEAUQuickHullVertex@local@@@shdfnd@physx@@@shdfnd@physx@@IEAAPEAPEAUQuickHullVertex@local@@I@Z 0000000180057960     QuickHullConvexHullLib.obj
 0002:0000c960       $unwind$?allocate@?$Array@UExpandPoint@local@@V?$ReflectionAllocator@UExpandPoint@local@@@shdfnd@physx@@@shdfnd@physx@@IEAAPEAUExpandPoint@local@@I@Z 0000000180057960     QuickHullConvexHullLib.obj
 0002:0000c960       $unwind$?allocate@?$Array@UInterval@physx@@V?$InlineAllocator@$0CAAA@V?$ReflectionAllocator@UInterval@physx@@@shdfnd@physx@@@shdfnd@2@@shdfnd@physx@@IEAAPEAUInterval@3@I@Z 0000000180057960     RTreeCooking.obj
 0002:0000c960       $unwind$?allocate@?$Array@UPxBounds3V@physx@@V?$ReflectionAllocator@UPxBounds3V@physx@@@shdfnd@2@@shdfnd@physx@@IEAAPEAUPxBounds3V@3@I@Z 0000000180057960     RTreeCooking.obj
 0002:0000c960       $unwind$?allocate@?$Array@URTreeNodeNQ@physx@@V?$ReflectionAllocator@URTreeNodeNQ@physx@@@shdfnd@2@@shdfnd@physx@@IEAAPEAURTreeNodeNQ@3@I@Z 0000000180057960     RTreeCooking.obj
 0002:0000c960       $unwind$?allocate@?$Array@URTreeNodeQ@Gu@physx@@V?$ReflectionAllocator@URTreeNodeQ@Gu@physx@@@shdfnd@3@@shdfnd@physx@@IEAAPEAURTreeNodeQ@Gu@3@I@Z 0000000180057960     RTreeCooking.obj
 0002:0000c960       $unwind$?allocate@?$Array@VPxVec3@physx@@V?$ReflectionAllocator@VPxVec3@physx@@@shdfnd@2@@shdfnd@physx@@IEAAPEAVPxVec3@3@I@Z 0000000180057960     RTreeCooking.obj
 0002:0000c960       $unwind$_invalid_parameter_noinfo 0000000180057960     libucrt:invalid_parameter.obj
 0002:0000c960       $unwind$?state_case_size@?$output_processor@DV?$string_output_adapter@D@__crt_stdio_output@@V?$format_validation_base@DV?$string_output_adapter@D@__crt_stdio_output@@@2@@__crt_stdio_output@@AEAA_NXZ 0000000180057960     libucrt:output.obj
 0002:0000c960       $unwind$?state_case_size@?$output_processor@DV?$string_output_adapter@D@__crt_stdio_output@@V?$standard_base@DV?$string_output_adapter@D@__crt_stdio_output@@@2@@__crt_stdio_output@@AEAA_NXZ 0000000180057960     libucrt:output.obj
 0002:0000c960       $unwind$_log10_special     0000000180057960     libucrt:log_special.obj
 0002:0000c968       $chain$1$?allocate@?$Array@UPxDebugLine@physx@@V?$ReflectionAllocator@UPxDebugLine@physx@@@shdfnd@2@@shdfnd@physx@@IEAAPEAUPxDebugLine@3@I@Z 0000000180057968     Cooking.obj
 0002:0000c980       $chain$3$?allocate@?$Array@UPxDebugLine@physx@@V?$ReflectionAllocator@UPxDebugLine@physx@@@shdfnd@2@@shdfnd@physx@@IEAAPEAUPxDebugLine@3@I@Z 0000000180057980     Cooking.obj
 0002:0000c994       $chain$4$?allocate@?$Array@UPxDebugLine@physx@@V?$ReflectionAllocator@UPxDebugLine@physx@@@shdfnd@2@@shdfnd@physx@@IEAAPEAUPxDebugLine@3@I@Z 0000000180057994     Cooking.obj
 0002:0000c9a4       $unwind$?recreate@?$Array@VPxPlane@physx@@V?$ReflectionAllocator@VPxPlane@physx@@@shdfnd@2@@shdfnd@physx@@IEAAXI@Z 00000001800579a4     ConvexHullUtils.obj
 0002:0000c9a4       $unwind$?resize@?$Array@VHalfEdge@ConvexHull@physx@@V?$ReflectionAllocator@VHalfEdge@ConvexHull@physx@@@shdfnd@3@@shdfnd@physx@@QEAAXIAEBVHalfEdge@ConvexHull@3@@Z 00000001800579a4     ConvexHullUtils.obj
 0002:0000c9a4       $unwind$?recreate@?$Array@UPxDebugLine@physx@@V?$ReflectionAllocator@UPxDebugLine@physx@@@shdfnd@2@@shdfnd@physx@@IEAAXI@Z 00000001800579a4     Cooking.obj
 0002:0000c9a4       $unwind$??_GQuickHullConvexHullLib@physx@@UEAAPEAXI@Z 00000001800579a4     QuickHullConvexHullLib.obj
 0002:0000c9a4       $unwind$?recreate@?$Array@UExpandPoint@local@@V?$ReflectionAllocator@UExpandPoint@local@@@shdfnd@physx@@@shdfnd@physx@@IEAAXI@Z 00000001800579a4     QuickHullConvexHullLib.obj
 0002:0000c9a4       $unwind$?growAndPushBack@?$Array@UInterval@physx@@V?$InlineAllocator@$0CAAA@V?$ReflectionAllocator@UInterval@physx@@@shdfnd@physx@@@shdfnd@2@@shdfnd@physx@@IEAAAEAUInterval@3@AEBU43@@Z 00000001800579a4     RTreeCooking.obj
 0002:0000c9a4       $unwind$?growAndPushBack@?$Array@UPxBounds3V@physx@@V?$ReflectionAllocator@UPxBounds3V@physx@@@shdfnd@2@@shdfnd@physx@@IEAAAEAUPxBounds3V@3@AEBU43@@Z 00000001800579a4     RTreeCooking.obj
 0002:0000c9a4       $unwind$?growAndPushBack@?$Array@URTreeNodeQ@Gu@physx@@V?$ReflectionAllocator@URTreeNodeQ@Gu@physx@@@shdfnd@3@@shdfnd@physx@@IEAAAEAURTreeNodeQ@Gu@3@AEBU453@@Z 00000001800579a4     RTreeCooking.obj
 0002:0000c9a4       $unwind$?recreate@?$Array@URTreeNodeNQ@physx@@V?$ReflectionAllocator@URTreeNodeNQ@physx@@@shdfnd@2@@shdfnd@physx@@IEAAXI@Z 00000001800579a4     RTreeCooking.obj
 0002:0000c9a4       $unwind$?recreate@?$Array@VPxVec3@physx@@V?$ReflectionAllocator@VPxVec3@physx@@@shdfnd@2@@shdfnd@physx@@IEAAXI@Z 00000001800579a4     RTreeCooking.obj
 0002:0000c9a4       $unwind$?resize@?$Array@IV?$ReflectionAllocator@I@shdfnd@physx@@@shdfnd@physx@@QEAAXIAEBI@Z 00000001800579a4     RTreeCooking.obj
 0002:0000c9a4       $unwind$?should_round_up@@YA_NQEBD0HW4__acrt_has_trailing_digits@@W4__acrt_rounding_mode@@@Z 00000001800579a4     libucrt:_fptostr.obj
 0002:0000c9a4       $unwind$_ischartype_l      00000001800579a4     libucrt:atox.obj
 0002:0000c9a4       $unwind$_recalloc_base     00000001800579a4     libucrt:recalloc.obj
 0002:0000c9a4       $unwind$__acrt_free_locale 00000001800579a4     libucrt:locale_refcounting.obj
 0002:0000c9a4       $unwind$__acrt_lowio_create_handle_array 00000001800579a4     libucrt:osfinfo.obj
 0002:0000c9a4       $unwind$_seh_filter_exe    00000001800579a4     libucrt:exception_filter.obj
 0002:0000c9a4       $unwind$__acrt_stdio_flush_nolock 00000001800579a4     libucrt:fflush.obj
 0002:0000c9a4       $unwind$??$ensure_buffer_is_big_enough@D@formatting_buffer@__crt_stdio_output@@QEAA_N_KAEAV__crt_cached_ptd_host@@@Z 00000001800579a4     libucrt:output.obj
 0002:0000c9a4       $unwind$__scrt_dllmain_exception_filter 00000001800579a4     LIBCMT:utility.obj
 0002:0000c9a4       $unwind$?GetHandlerSearchState@__FrameHandler3@@SAHPEA_KPEAU_xDISPATCHER_CONTEXT@@PEBU_s_FuncInfo@@@Z 00000001800579a4     libvcruntime:frame.obj
 0002:0000c9a4       $unwind$?Is_bad_exception_allowed@@YAEPEBU_s_ESTypeList@@@Z 00000001800579a4     libvcruntime:frame.obj
 0002:0000c9a4       $unwind$__vcrt_getptd_noexit 00000001800579a4     libvcruntime:per_thread_data.obj
 0002:0000c9a4       $unwind$?CatchTryBlock@__FrameHandler3@@SAPEBU_s_TryBlockMapEntry@@PEBU_s_FuncInfo@@H@Z 00000001800579a4     libvcruntime:risctrnsctrl.obj
 0002:0000c9a4       $unwind$__std_exception_copy 00000001800579a4     libvcruntime:std_exception.obj
 0002:0000c9b8       $unwind$??$copy@V?$ReflectionAllocator@USlab@NodeAllocator@Gu@physx@@@shdfnd@physx@@@?$Array@USlab@NodeAllocator@Gu@physx@@V?$ReflectionAllocator@USlab@NodeAllocator@Gu@physx@@@shdfnd@4@@shdfnd@physx@@IEAAXAEBV012@@Z 00000001800579b8     BVHStructureBuilder.obj
 0002:0000c9b8       $unwind$??0NodeAllocator@Gu@physx@@QEAA@AEBV012@@Z 00000001800579b8     BVHStructureBuilder.obj
 0002:0000c9b8       $unwind$??1ConvexHullLib@physx@@UEAA@XZ 00000001800579b8     ConvexHullLib.obj
 0002:0000c9b8       $unwind$??1ConvexMeshBuilder@physx@@QEAA@XZ 00000001800579b8     ConvexMeshBuilder.obj
 0002:0000c9b8       $unwind$??$copy@V?$ReflectionAllocator@VPair@@@shdfnd@physx@@@?$Array@VPair@@V?$ReflectionAllocator@VPair@@@shdfnd@physx@@@shdfnd@physx@@IEAAXAEBV012@@Z 00000001800579b8     ConvexPolygonsBuilder.obj
 0002:0000c9b8       $unwind$??1ConvexPolygonsBuilder@physx@@QEAA@XZ 00000001800579b8     ConvexPolygonsBuilder.obj
 0002:0000c9b8       $unwind$?reserveSegments@RenderOutput@Cm@physx@@QEAAPEAUPxDebugLine@3@I@Z 00000001800579b8     Cooking.obj
 0002:0000c9b8       $unwind$?Clean@ReducedVertexCloud@physx@@QEAAAEAV12@XZ 00000001800579b8     CookingUtils.obj
 0002:0000c9b8       $unwind$?computeLocalBounds@MeshBulider@physx@@IEAAXAEAVMeshDataBase@Gu@2@@Z 00000001800579b8     MeshBuilder.obj
 0002:0000c9b8       $unwind$??1QuickHull@local@@QEAA@XZ 00000001800579b8     QuickHullConvexHullLib.obj
 0002:0000c9b8       $unwind$?fillConvexMeshDesc@QuickHullConvexHullLib@physx@@UEAAXAEAVPxConvexMeshDesc@2@@Z 00000001800579b8     QuickHullConvexHullLib.obj
 0002:0000c9b8       $unwind$?resizeUninitialized@?$Array@URTreeNodeNQ@physx@@V?$ReflectionAllocator@URTreeNodeNQ@physx@@@shdfnd@2@@shdfnd@physx@@QEAAXI@Z 00000001800579b8     RTreeCooking.obj
 0002:0000c9b8       $unwind$??0BV4TriangleMeshBuilder@physx@@QEAA@AEBUPxCookingParams@1@@Z 00000001800579b8     TriangleMeshBuilder.obj
 0002:0000c9b8       $unwind$??1BV4TriangleMeshBuilder@physx@@UEAA@XZ 00000001800579b8     TriangleMeshBuilder.obj
 0002:0000c9b8       $unwind$??1TriangleMeshBuilder@physx@@UEAA@XZ 00000001800579b8     TriangleMeshBuilder.obj
 0002:0000c9b8       $unwind$??1TriangleMeshData@Gu@physx@@UEAA@XZ 00000001800579b8     TriangleMeshBuilder.obj
 0002:0000c9b8       $unwind$??_GBV4TriangleData@Gu@physx@@UEAAPEAXI@Z 00000001800579b8     TriangleMeshBuilder.obj
 0002:0000c9b8       $unwind$??_GMeshDataBase@Gu@physx@@UEAAPEAXI@Z 00000001800579b8     TriangleMeshBuilder.obj
 0002:0000c9b8       $unwind$??_GRTreeTriangleData@Gu@physx@@UEAAPEAXI@Z 00000001800579b8     TriangleMeshBuilder.obj
 0002:0000c9b8       $unwind$??_GRTreeTriangleMeshBuilder@physx@@UEAAPEAXI@Z 00000001800579b8     TriangleMeshBuilder.obj
 0002:0000c9b8       $unwind$??_GTriangleMeshBuilder@physx@@UEAAPEAXI@Z 00000001800579b8     TriangleMeshBuilder.obj
 0002:0000c9b8       $unwind$??_GTriangleMeshData@Gu@physx@@UEAAPEAXI@Z 00000001800579b8     TriangleMeshBuilder.obj
 0002:0000c9b8       $unwind$??$common_initialize_environment_nolock@D@@YAHXZ 00000001800579b8     libucrt:environment_initialization.obj
 0002:0000c9b8       $unwind$_callnewh          00000001800579b8     libucrt:new_handler.obj
 0002:0000c9b8       $unwind$_realloc_base      00000001800579b8     libucrt:realloc_base.obj
 0002:0000c9b8       $unwind$?replace_current_thread_locale_nolock@@YAXQEAU__acrt_ptd@@QEAU__crt_locale_data@@@Z 00000001800579b8     libucrt:per_thread_data.obj
 0002:0000c9b8       $unwind$__acrt_execute_uninitializers 00000001800579b8     libucrt:shared_initialization.obj
 0002:0000c9b8       $unwind$__acrt_LocaleNameToLCID 00000001800579b8     libucrt:winapi_thunks.obj
 0002:0000c9b8       $unwind$?free_crt_array_internal@@YAXQEAPEBX_K@Z 00000001800579b8     libucrt:inittime.obj
 0002:0000c9b8       $unwind$_updatetlocinfoEx_nolock 00000001800579b8     libucrt:locale_refcounting.obj
 0002:0000c9b8       $unwind$__acrt_uninitialize_lowio 00000001800579b8     libucrt:ioinit.obj
 0002:0000c9b8       $unwind$?setSBCS@@YAXPEAU__crt_multibyte_data@@@Z 00000001800579b8     libucrt:mbctype.obj
 0002:0000c9b8       $unwind$_initterm_e        00000001800579b8     libucrt:initterm.obj
 0002:0000c9b8       $unwind$?DloadGetSRWLockFunctionPointers@@YAEXZ 00000001800579b8     Delayimp:delayhlp.obj
 0002:0000c9b8       $unwind$_RTC_Initialize    00000001800579b8     LIBCMT:initsect.obj
 0002:0000c9b8       $unwind$_RTC_Terminate     00000001800579b8     LIBCMT:initsect.obj
 0002:0000c9b8       $unwind$__C_specific_handler_noexcept 00000001800579b8     libvcruntime:chandler_noexcept.obj
 0002:0000c9b8       $unwind$__FrameUnwindFilter 00000001800579b8     libvcruntime:ehhelpers.obj
 0002:0000c9b8       $unwind$?SetUnwindTryBlock@__FrameHandler3@@SAXPEA_KPEAU_xDISPATCHER_CONTEXT@@PEBU_s_FuncInfo@@H@Z 00000001800579b8     libvcruntime:ehstate.obj
 0002:0000c9b8       $unwind$??_Gbad_exception@std@@UEAAPEAXI@Z 00000001800579b8     libvcruntime:frame.obj
 0002:0000c9b8       $unwind$??_Gexception@std@@UEAAPEAXI@Z 00000001800579b8     libvcruntime:frame.obj
 0002:0000c9b8       $unwind$?ExFilterRethrowFH4@@YAHPEAU_EXCEPTION_POINTERS@@PEAUEHExceptionRecord@@HPEAH@Z 00000001800579b8     libvcruntime:frame.obj
 0002:0000c9b8       $unwind$_FindAndUnlinkFrame 00000001800579b8     libvcruntime:risctrnsctrl.obj
 0002:0000c9b8       $unwind$??$append@VDNameNode@@@DName@@AEAAXPEBVDNameNode@@@Z 00000001800579b8     libvcruntime:undname.obj
 0002:0000c9b8       $unwind$??$append@VDNameStatusNode@@@DName@@AEAAXPEBVDNameStatusNode@@@Z 00000001800579b8     libvcruntime:undname.obj
 0002:0000c9b8       $unwind$??$append@VcharNode@@@DName@@AEAAXPEBVcharNode@@@Z 00000001800579b8     libvcruntime:undname.obj
 0002:0000c9b8       $unwind$??$append@VpcharNode@@@DName@@AEAAXPEBVpcharNode@@@Z 00000001800579b8     libvcruntime:undname.obj
 0002:0000c9b8       $unwind$??YDName@@QEAAAEAV0@AEBUStringLiteral@@@Z 00000001800579b8     libvcruntime:undname.obj
 0002:0000c9b8       $unwind$??YDName@@QEAAAEAV0@D@Z 00000001800579b8     libvcruntime:undname.obj
 0002:0000c9b8       $unwind$??YReplicator@@QEAAAEAV0@AEBVDName@@@Z 00000001800579b8     libvcruntime:undname.obj
 0002:0000c9b8       $unwind$?getString@pairNode@@UEBAPEADPEAD0@Z 00000001800579b8     libvcruntime:undname.obj
 0002:0000c9b8       $unwind$__vcrt_FlsSetValue 00000001800579b8     libvcruntime:winapi_downlevel.obj
 0002:0000c9c4       $unwind$?outputSegment@RenderOutput@Cm@physx@@QEAAXAEBVPxVec3@3@0@Z 00000001800579c4     Cooking.obj
 0002:0000c9dc       $unwind$?getHeight@HeightField@Gu@physx@@UEBAMMM@Z 00000001800579dc     Cooking.obj
 0002:0000c9dc       $unwind$__dcrt_lowio_ensure_console_output_initialized 00000001800579dc     libucrt:initcon.obj
 0002:0000c9dc       $unwind$?__mbrtowc_utf8@__crt_mbstring@@YA_KPEA_WPEBD_KPEAU_Mbstatet@@AEAV__crt_cached_ptd_host@@@Z 00000001800579dc     libucrt:mbrtowc.obj
 0002:0000c9dc       $unwind$?getSystemCP@@YAHH@Z 00000001800579dc     libucrt:mbctype.obj
 0002:0000c9e4       $unwind$?getTriangleNormal@HeightField@Gu@physx@@UEBA?AVPxVec3@3@I@Z 00000001800579e4     Cooking.obj
 0002:0000c9e4       $unwind$??$median3@UEdgeTriLookup@physx@@$$CBU?$Less@UEdgeTriLookup@physx@@@shdfnd@2@@internal@shdfnd@physx@@YAXPEAUEdgeTriLookup@2@HHAEBU?$Less@UEdgeTriLookup@physx@@@12@@Z 00000001800579e4     TriangleMeshBuilder.obj
 0002:0000c9e4       $unwind$?DloadObtainSection@@YAPEAXPEAK0@Z 00000001800579e4     Delayimp:delayhlp.obj
 0002:0000c9f4       $unwind$?getHeightInternal2@HeightField@Gu@physx@@QEBAMIMM@Z 00000001800579f4     Cooking.obj
 0002:0000ca00       $chain$0$?getHeightInternal2@HeightField@Gu@physx@@QEBAMIMM@Z 0000000180057a00     Cooking.obj
 0002:0000ca14       $chain$2$?getHeightInternal2@HeightField@Gu@physx@@QEBAMIMM@Z 0000000180057a14     Cooking.obj
 0002:0000ca28       $unwind$?Reduce@ReducedVertexCloud@physx@@QEAA_NPEAUREDUCEDCLOUD@2@@Z 0000000180057a28     CookingUtils.obj
 0002:0000ca44       $unwind$??1AABBTreeBuildParams@Gu@physx@@QEAA@XZ 0000000180057a44     BVHStructureBuilder.obj
 0002:0000ca44       $unwind$??1BVHStructureBuilder@physx@@QEAA@XZ 0000000180057a44     BVHStructureBuilder.obj
 0002:0000ca44       $unwind$?reset@AABBTreeBuildParams@Gu@physx@@QEAAXXZ 0000000180057a44     BVHStructureBuilder.obj
 0002:0000ca44       $unwind$??1ConvexHullBuilder@physx@@QEAA@XZ 0000000180057a44     ConvexHullBuilder.obj
 0002:0000ca44       $unwind$??_GConvexHullLib@physx@@UEAAPEAXI@Z 0000000180057a44     ConvexHullLib.obj
 0002:0000ca44       $unwind$?resize@?$Array@VPxPlane@physx@@V?$ReflectionAllocator@VPxPlane@physx@@@shdfnd@2@@shdfnd@physx@@QEAAXIAEBVPxPlane@3@@Z 0000000180057a44     ConvexHullUtils.obj
 0002:0000ca44       $unwind$?resize@?$Array@VPxVec3@physx@@V?$ReflectionAllocator@VPxVec3@physx@@@shdfnd@2@@shdfnd@physx@@QEAAXIAEBVPxVec3@3@@Z 0000000180057a44     ConvexHullUtils.obj
 0002:0000ca44       $unwind$??1EdgeList@Gu@physx@@QEAA@XZ 0000000180057a44     EdgeList.obj
 0002:0000ca44       $unwind$??1MeshCleaner@physx@@QEAA@XZ 0000000180057a44     MeshCleaner.obj
 0002:0000ca44       $unwind$??1MeshDataBase@Gu@physx@@UEAA@XZ 0000000180057a44     TriangleMeshBuilder.obj
 0002:0000ca44       $unwind$??_GBV4TriangleMeshBuilder@physx@@UEAAPEAXI@Z 0000000180057a44     TriangleMeshBuilder.obj
 0002:0000ca44       $unwind$memcpy_s           0000000180057a44     libucrt:cfout.obj
 0002:0000ca44       $unwind$__acrt_getptd      0000000180057a44     libucrt:per_thread_data.obj
 0002:0000ca44       $unwind$__acrt_getptd_noexit 0000000180057a44     libucrt:per_thread_data.obj
 0002:0000ca44       $unwind$__acrt_getptd_noexit_explicit 0000000180057a44     libucrt:per_thread_data.obj
 0002:0000ca44       $unwind$__acrt_execute_initializers 0000000180057a44     libucrt:shared_initialization.obj
 0002:0000ca44       $unwind$__acrt_InitializeCriticalSectionEx 0000000180057a44     libucrt:winapi_thunks.obj
 0002:0000ca44       $unwind$_close_nolock_internal 0000000180057a44     libucrt:close.obj
 0002:0000ca44       $unwind$?value@?$dual_state_global@P6AXPEB_W00I_K@Z@__crt_state_management@@QEAAAEAP6AXPEB_W00I_K@ZAEAV__crt_cached_ptd_host@@@Z 0000000180057a44     libucrt:invalid_parameter.obj
 0002:0000ca44       $unwind$??0_LocaleUpdate@@QEAA@QEAU__crt_locale_pointers@@@Z 0000000180057a44     libucrt:argv_wildcards.obj
 0002:0000ca44       $unwind$?update_locale_slow@__crt_cached_ptd_host@@AEAAXXZ 0000000180057a44     libucrt:output.obj
 0002:0000ca44       $unwind$strncpy_s          0000000180057a44     libucrt:strncpy_s.obj
 0002:0000ca44       $unwind$_exception_enabled 0000000180057a44     libucrt:libm_error.obj
 0002:0000ca44       $unwind$_DllMainCRTStartup 0000000180057a44     LIBCMT:dll_dllmain.obj
 0002:0000ca44       $unwind$?FrameUnwindToEmptyState@__FrameHandler3@@SAXPEA_KPEAU_xDISPATCHER_CONTEXT@@PEBU_s_FuncInfo@@@Z 0000000180057a44     libvcruntime:risctrnsctrl.obj
 0002:0000ca44       $unwind$??$?0$01@pcharNode@@QEAA@PEBDHU?$StringLifeSelector@$01@@AEAV_HeapManager@@@Z 0000000180057a44     libvcruntime:undname.obj
 0002:0000ca44       $unwind$??$?0$0A@@pcharNode@@QEAA@PEBDHU?$StringLifeSelector@$0A@@@AEAV_HeapManager@@@Z 0000000180057a44     libvcruntime:undname.obj
 0002:0000ca44       $unwind$??0DName@@QEAA@PEAVUnDecorator@@AEAPEBDD@Z 0000000180057a44     libvcruntime:undname.obj
 0002:0000ca44       $unwind$??0DName@@QEAA@PEAVUnDecorator@@PEAV0@@Z 0000000180057a44     libvcruntime:undname.obj
 0002:0000ca44       $unwind$?getMemoryWithBuffer@_HeapManager@@QEAAPEAX_K@Z 0000000180057a44     libvcruntime:undname.obj
 0002:0000ca44       $unwind$?length@pairNode@@UEBAHXZ 0000000180057a44     libvcruntime:undname.obj
 0002:0000ca44       $unwind$__vcrt_InitializeCriticalSectionEx 0000000180057a44     libvcruntime:winapi_downlevel.obj
 0002:0000ca54       $unwind$?init@EdgeListBuilder@Gu@physx@@QEAA_NAEBUEDGELISTCREATE@23@@Z 0000000180057a54     EdgeList.obj
 0002:0000ca54       $unwind$__acrt_fp_strflt_to_string 0000000180057a54     libucrt:_fptostr.obj
 0002:0000ca54       $unwind$??$common_lseek_nolock@_J@@YA_JH_JHAEAV__crt_cached_ptd_host@@@Z 0000000180057a54     libucrt:lseek.obj
 0002:0000ca54       $unwind$_invalid_parameter_internal 0000000180057a54     libucrt:invalid_parameter.obj
 0002:0000ca68       $unwind$?createFacesToEdges@EdgeListBuilder@Gu@physx@@AEAA_NIPEBIPEBG@Z 0000000180057a68     EdgeList.obj
 0002:0000ca78       $chain$1$?createFacesToEdges@EdgeListBuilder@Gu@physx@@AEAA_NIPEBIPEBG@Z 0000000180057a78     EdgeList.obj
 0002:0000ca90       $chain$3$?createFacesToEdges@EdgeListBuilder@Gu@physx@@AEAA_NIPEBIPEBG@Z 0000000180057a90     EdgeList.obj
 0002:0000caa8       $chain$4$?createFacesToEdges@EdgeListBuilder@Gu@physx@@AEAA_NIPEBIPEBG@Z 0000000180057aa8     EdgeList.obj
 0002:0000cabc       $chain$5$?createFacesToEdges@EdgeListBuilder@Gu@physx@@AEAA_NIPEBIPEBG@Z 0000000180057abc     EdgeList.obj
 0002:0000cad4       $chain$6$?createFacesToEdges@EdgeListBuilder@Gu@physx@@AEAA_NIPEBIPEBG@Z 0000000180057ad4     EdgeList.obj
 0002:0000cae8       $chain$7$?createFacesToEdges@EdgeListBuilder@Gu@physx@@AEAA_NIPEBIPEBG@Z 0000000180057ae8     EdgeList.obj
 0002:0000caf8       $unwind$?createEdgesToFaces@EdgeListBuilder@Gu@physx@@AEAA_NIPEBIPEBG@Z 0000000180057af8     EdgeList.obj
 0002:0000cb04       $chain$2$?createEdgesToFaces@EdgeListBuilder@Gu@physx@@AEAA_NIPEBIPEBG@Z 0000000180057b04     EdgeList.obj
 0002:0000cb20       $chain$3$?createEdgesToFaces@EdgeListBuilder@Gu@physx@@AEAA_NIPEBIPEBG@Z 0000000180057b20     EdgeList.obj
 0002:0000cb38       $unwind$?computeActiveEdges@EdgeListBuilder@Gu@physx@@AEAA_NIPEBIPEBGPEBVPxVec3@3@M@Z 0000000180057b38     EdgeList.obj
 0002:0000cb48       $chain$0$?computeActiveEdges@EdgeListBuilder@Gu@physx@@AEAA_NIPEBIPEBGPEBVPxVec3@3@M@Z 0000000180057b48     EdgeList.obj
 0002:0000cb5c       $chain$1$?computeActiveEdges@EdgeListBuilder@Gu@physx@@AEAA_NIPEBIPEBGPEBVPxVec3@3@M@Z 0000000180057b5c     EdgeList.obj
 0002:0000cb70       $chain$2$?computeActiveEdges@EdgeListBuilder@Gu@physx@@AEAA_NIPEBIPEBGPEBVPxVec3@3@M@Z 0000000180057b70     EdgeList.obj
 0002:0000cb84       $chain$3$?computeActiveEdges@EdgeListBuilder@Gu@physx@@AEAA_NIPEBIPEBGPEBVPxVec3@3@M@Z 0000000180057b84     EdgeList.obj
 0002:0000cb94       $chain$4$?computeActiveEdges@EdgeListBuilder@Gu@physx@@AEAA_NIPEBIPEBGPEBVPxVec3@3@M@Z 0000000180057b94     EdgeList.obj
 0002:0000cba4       $chain$18$?computeActiveEdges@EdgeListBuilder@Gu@physx@@AEAA_NIPEBIPEBGPEBVPxVec3@3@M@Z 0000000180057ba4     EdgeList.obj
 0002:0000cbe4       $chain$19$?computeActiveEdges@EdgeListBuilder@Gu@physx@@AEAA_NIPEBIPEBGPEBVPxVec3@3@M@Z 0000000180057be4     EdgeList.obj
 0002:0000cbf8       $chain$6$?computeActiveEdges@EdgeListBuilder@Gu@physx@@AEAA_NIPEBIPEBGPEBVPxVec3@3@M@Z 0000000180057bf8     EdgeList.obj
 0002:0000cc14       $chain$20$?computeActiveEdges@EdgeListBuilder@Gu@physx@@AEAA_NIPEBIPEBGPEBVPxVec3@3@M@Z 0000000180057c14     EdgeList.obj
 0002:0000cc24       $chain$0$??$?_UI@@YAPEAX_KV?$ReflectionAllocator@I@shdfnd@physx@@PEBDH@Z 0000000180057c24     EdgeList.obj
 0002:0000cc38       $chain$1$??$?_UI@@YAPEAX_KV?$ReflectionAllocator@I@shdfnd@physx@@PEBDH@Z 0000000180057c38     EdgeList.obj
 0002:0000cc48       $unwind$??0MeshCleaner@physx@@QEAA@IPEBVPxVec3@1@IPEBIM@Z 0000000180057c48     MeshCleaner.obj
 0002:0000cc58       $chain$4$??0MeshCleaner@physx@@QEAA@IPEBVPxVec3@1@IPEBIM@Z 0000000180057c58     MeshCleaner.obj
 0002:0000cc7c       $chain$6$??0MeshCleaner@physx@@QEAA@IPEBVPxVec3@1@IPEBIM@Z 0000000180057c7c     MeshCleaner.obj
 0002:0000cc94       $chain$7$??0MeshCleaner@physx@@QEAA@IPEBVPxVec3@1@IPEBIM@Z 0000000180057c94     MeshCleaner.obj
 0002:0000cca8       $chain$8$??0MeshCleaner@physx@@QEAA@IPEBVPxVec3@1@IPEBIM@Z 0000000180057ca8     MeshCleaner.obj
 0002:0000ccb8       $chain$9$??0MeshCleaner@physx@@QEAA@IPEBVPxVec3@1@IPEBIM@Z 0000000180057cb8     MeshCleaner.obj
 0002:0000ccc8       $chain$10$??0MeshCleaner@physx@@QEAA@IPEBVPxVec3@1@IPEBIM@Z 0000000180057cc8     MeshCleaner.obj
 0002:0000ccd8       $unwind$?createQuantizer@physx@@YAPEAVQuantizer@1@XZ 0000000180057cd8     Quantizer.obj
 0002:0000ccd8       $unwind$?getNoexcept@UnDecorator@@AEAA?AVDName@@XZ 0000000180057cd8     libvcruntime:undname.obj
 0002:0000ccd8       $unwind$?getVCallThunkType@UnDecorator@@AEAA?AVDName@@XZ 0000000180057cd8     libvcruntime:undname.obj
 0002:0000cce0       $unwind$??$kmeans_cluster@VPxVec3@physx@@M@@YAIPEBVPxVec3@physx@@IIPEAV01@PEAIMM@Z 0000000180057ce0     Quantizer.obj
 0002:0000ccec       $chain$6$??$kmeans_cluster@VPxVec3@physx@@M@@YAIPEBVPxVec3@physx@@IIPEAV01@PEAIMM@Z 0000000180057cec     Quantizer.obj
 0002:0000cd18       $chain$12$??$kmeans_cluster@VPxVec3@physx@@M@@YAIPEBVPxVec3@physx@@IIPEAV01@PEAIMM@Z 0000000180057d18     Quantizer.obj
 0002:0000cd40       $chain$13$??$kmeans_cluster@VPxVec3@physx@@M@@YAIPEBVPxVec3@physx@@IIPEAV01@PEAIMM@Z 0000000180057d40     Quantizer.obj
 0002:0000cd50       $chain$14$??$kmeans_cluster@VPxVec3@physx@@M@@YAIPEBVPxVec3@physx@@IIPEAV01@PEAIMM@Z 0000000180057d50     Quantizer.obj
 0002:0000cd60       $unwind$?kmeansQuantize3D@QuantizerImpl@@UEAAPEBVPxVec3@physx@@IPEBV23@I_NIAEAI@Z 0000000180057d60     Quantizer.obj
 0002:0000cd70       $chain$0$?kmeansQuantize3D@QuantizerImpl@@UEAAPEBVPxVec3@physx@@IPEBV23@I_NIAEAI@Z 0000000180057d70     Quantizer.obj
 0002:0000cd84       $chain$2$?kmeansQuantize3D@QuantizerImpl@@UEAAPEBVPxVec3@physx@@IPEBV23@I_NIAEAI@Z 0000000180057d84     Quantizer.obj
 0002:0000cd9c       $chain$3$?kmeansQuantize3D@QuantizerImpl@@UEAAPEBVPxVec3@physx@@IPEBV23@I_NIAEAI@Z 0000000180057d9c     Quantizer.obj
 0002:0000cdb0       $chain$4$?kmeansQuantize3D@QuantizerImpl@@UEAAPEBVPxVec3@physx@@IPEBV23@I_NIAEAI@Z 0000000180057db0     Quantizer.obj
 0002:0000cdc0       $chain$5$?kmeansQuantize3D@QuantizerImpl@@UEAAPEBVPxVec3@physx@@IPEBV23@I_NIAEAI@Z 0000000180057dc0     Quantizer.obj
 0002:0000cdd0       $unwind$?normalizeInput@QuantizerImpl@@AEAAXIPEBVPxVec3@physx@@I@Z 0000000180057dd0     Quantizer.obj
 0002:0000cdf4       $chain$3$?normalizeInput@QuantizerImpl@@AEAAXIPEBVPxVec3@physx@@I@Z 0000000180057df4     Quantizer.obj
 0002:0000ce14       $chain$4$?normalizeInput@QuantizerImpl@@AEAAXIPEBVPxVec3@physx@@I@Z 0000000180057e14     Quantizer.obj
 0002:0000ce28       $chain$5$?normalizeInput@QuantizerImpl@@AEAAXIPEBVPxVec3@physx@@I@Z 0000000180057e28     Quantizer.obj
 0002:0000ce38       $chain$6$?normalizeInput@QuantizerImpl@@AEAAXIPEBVPxVec3@physx@@I@Z 0000000180057e38     Quantizer.obj
 0002:0000ce48       $chain$7$?normalizeInput@QuantizerImpl@@AEAAXIPEBVPxVec3@physx@@I@Z 0000000180057e48     Quantizer.obj
 0002:0000ce5c       $chain$8$?normalizeInput@QuantizerImpl@@AEAAXIPEBVPxVec3@physx@@I@Z 0000000180057e5c     Quantizer.obj
 0002:0000ce6c       $unwind$?growAndPushBack@?$Array@VPxVec3@physx@@V?$ReflectionAllocator@VPxVec3@physx@@@shdfnd@2@@shdfnd@physx@@IEAAAEAVPxVec3@3@AEBV43@@Z 0000000180057e6c     Quantizer.obj
 0002:0000ce6c       $unwind$?doAdjacentMerge@QuickHull@local@@IEAA_NAEAUQuickHullFace@2@_NAEA_N@Z 0000000180057e6c     QuickHullConvexHullLib.obj
 0002:0000ce6c       $unwind$?saveMidPhaseStructure@BV4TriangleMeshBuilder@physx@@UEBAXAEAVPxOutputStream@2@_N@Z 0000000180057e6c     TriangleMeshBuilder.obj
 0002:0000ce78       $chain$0$?growAndPushBack@?$Array@VPxVec3@physx@@V?$ReflectionAllocator@VPxVec3@physx@@@shdfnd@2@@shdfnd@physx@@IEAAAEAVPxVec3@3@AEBV43@@Z 0000000180057e78     Quantizer.obj
 0002:0000ce8c       $chain$1$?growAndPushBack@?$Array@VPxVec3@physx@@V?$ReflectionAllocator@VPxVec3@physx@@@shdfnd@2@@shdfnd@physx@@IEAAAEAVPxVec3@3@AEBV43@@Z 0000000180057e8c     Quantizer.obj
 0002:0000cea0       $chain$2$?growAndPushBack@?$Array@VPxVec3@physx@@V?$ReflectionAllocator@VPxVec3@physx@@@shdfnd@2@@shdfnd@physx@@IEAAAEAVPxVec3@3@AEBV43@@Z 0000000180057ea0     Quantizer.obj
 0002:0000ceb0       $chain$4$?growAndPushBack@?$Array@VPxVec3@physx@@V?$ReflectionAllocator@VPxVec3@physx@@@shdfnd@2@@shdfnd@physx@@IEAAAEAVPxVec3@3@AEBV43@@Z 0000000180057eb0     Quantizer.obj
 0002:0000cec4       $chain$3$?growAndPushBack@?$Array@VPxVec3@physx@@V?$ReflectionAllocator@VPxVec3@physx@@@shdfnd@2@@shdfnd@physx@@IEAAAEAVPxVec3@3@AEBV43@@Z 0000000180057ec4     Quantizer.obj
 0002:0000ced4       $unwind$??_GQuantizerImpl@@EEAAPEAXI@Z 0000000180057ed4     Quantizer.obj
 0002:0000ced4       $unwind$??_GConvexHull@physx@@QEAAPEAXI@Z 0000000180057ed4     QuickHullConvexHullLib.obj
 0002:0000cee0       $chain$0$??_GQuantizerImpl@@EEAAPEAXI@Z 0000000180057ee0     Quantizer.obj
 0002:0000cef4       $chain$1$??_GQuantizerImpl@@EEAAPEAXI@Z 0000000180057ef4     Quantizer.obj
 0002:0000cf04       $unwind$?loadFromDesc@BVHStructureBuilder@physx@@QEAA_NAEBVPxBVHStructureDesc@2@@Z 0000000180057f04     BVHStructureBuilder.obj
 0002:0000cf18       $unwind$?save@BVHStructureBuilder@physx@@QEBA_NAEAVPxOutputStream@2@_N@Z 0000000180057f18     BVHStructureBuilder.obj
 0002:0000cf28       $chain$2$?save@BVHStructureBuilder@physx@@QEBA_NAEAVPxOutputStream@2@_N@Z 0000000180057f28     BVHStructureBuilder.obj
 0002:0000cf40       $chain$3$?save@BVHStructureBuilder@physx@@QEBA_NAEAVPxOutputStream@2@_N@Z 0000000180057f40     BVHStructureBuilder.obj
 0002:0000cf54       $chain$1$?allocate@?$Array@USlab@NodeAllocator@Gu@physx@@V?$ReflectionAllocator@USlab@NodeAllocator@Gu@physx@@@shdfnd@4@@shdfnd@physx@@IEAAPEAUSlab@NodeAllocator@Gu@3@I@Z 0000000180057f54     BVHStructureBuilder.obj
 0002:0000cf6c       $chain$3$?allocate@?$Array@USlab@NodeAllocator@Gu@physx@@V?$ReflectionAllocator@USlab@NodeAllocator@Gu@physx@@@shdfnd@4@@shdfnd@physx@@IEAAPEAUSlab@NodeAllocator@Gu@3@I@Z 0000000180057f6c     BVHStructureBuilder.obj
 0002:0000cf80       $chain$4$?allocate@?$Array@USlab@NodeAllocator@Gu@physx@@V?$ReflectionAllocator@USlab@NodeAllocator@Gu@physx@@@shdfnd@4@@shdfnd@physx@@IEAAPEAUSlab@NodeAllocator@Gu@3@I@Z 0000000180057f80     BVHStructureBuilder.obj
 0002:0000cf90       $unwind$?recreate@?$Array@USlab@NodeAllocator@Gu@physx@@V?$ReflectionAllocator@USlab@NodeAllocator@Gu@physx@@@shdfnd@4@@shdfnd@physx@@IEAAXI@Z 0000000180057f90     BVHStructureBuilder.obj
 0002:0000cf90       $unwind$?recreate@?$Array@VHalfEdge@ConvexHull@physx@@V?$ReflectionAllocator@VHalfEdge@ConvexHull@physx@@@shdfnd@3@@shdfnd@physx@@IEAAXI@Z 0000000180057f90     ConvexHullUtils.obj
 0002:0000cf90       $unwind$?copy@ConvexMeshBuilder@physx@@QEAA_NAEAUConvexHullInitData@Gu@2@@Z 0000000180057f90     ConvexMeshBuilder.obj
 0002:0000cf90       $unwind$?recreate@?$Array@PEAUQuickHullFace@local@@V?$ReflectionAllocator@PEAUQuickHullFace@local@@@shdfnd@physx@@@shdfnd@physx@@IEAAXI@Z 0000000180057f90     QuickHullConvexHullLib.obj
 0002:0000cf90       $unwind$?recreate@?$Array@PEAUQuickHullHalfEdge@local@@V?$ReflectionAllocator@PEAUQuickHullHalfEdge@local@@@shdfnd@physx@@@shdfnd@physx@@IEAAXI@Z 0000000180057f90     QuickHullConvexHullLib.obj
 0002:0000cf90       $unwind$?recreate@?$Array@PEAUQuickHullVertex@local@@V?$ReflectionAllocator@PEAUQuickHullVertex@local@@@shdfnd@physx@@@shdfnd@physx@@IEAAXI@Z 0000000180057f90     QuickHullConvexHullLib.obj
 0002:0000cf90       $unwind$?recreate@?$Array@IV?$ReflectionAllocator@I@shdfnd@physx@@@shdfnd@physx@@IEAAXI@Z 0000000180057f90     RTreeCooking.obj
 0002:0000cf90       $unwind$?recreate@?$Array@UPxBounds3V@physx@@V?$ReflectionAllocator@UPxBounds3V@physx@@@shdfnd@2@@shdfnd@physx@@IEAAXI@Z 0000000180057f90     RTreeCooking.obj
 0002:0000cf90       $unwind$?recreate@?$Array@URTreeNodeQ@Gu@physx@@V?$ReflectionAllocator@URTreeNodeQ@Gu@physx@@@shdfnd@3@@shdfnd@physx@@IEAAXI@Z 0000000180057f90     RTreeCooking.obj
 0002:0000cf90       $unwind$?get_raw_ptd_noexit@__crt_cached_ptd_host@@QEAAPEAU__acrt_ptd@@XZ 0000000180057f90     libucrt:invalid_parameter.obj
 0002:0000cfa0       $chain$0$?recreate@?$Array@USlab@NodeAllocator@Gu@physx@@V?$ReflectionAllocator@USlab@NodeAllocator@Gu@physx@@@shdfnd@4@@shdfnd@physx@@IEAAXI@Z 0000000180057fa0     BVHStructureBuilder.obj
 0002:0000cfb4       $chain$1$?recreate@?$Array@USlab@NodeAllocator@Gu@physx@@V?$ReflectionAllocator@USlab@NodeAllocator@Gu@physx@@@shdfnd@4@@shdfnd@physx@@IEAAXI@Z 0000000180057fb4     BVHStructureBuilder.obj
 0002:0000cfc4       $unwind$??4NodeAllocator@Gu@physx@@QEAAAEAV012@AEBV012@@Z 0000000180057fc4     BVHStructureBuilder.obj
 0002:0000cfc4       $unwind$_free_osfhnd       0000000180057fc4     libucrt:osfinfo.obj
 0002:0000cfc4       $unwind$??$doPchar@$00@DName@@AEAAXPEBDH@Z 0000000180057fc4     libvcruntime:undname.obj
 0002:0000cfd8       $unwind$?flatten@@YAXAEBVNodeAllocator@Gu@physx@@PEAUBVHNode@23@@Z 0000000180057fd8     BVHStructureBuilder.obj
 0002:0000cfe4       $chain$5$?flatten@@YAXAEBVNodeAllocator@Gu@physx@@PEAUBVHNode@23@@Z 0000000180057fe4     BVHStructureBuilder.obj
 0002:0000d00c       $chain$6$?flatten@@YAXAEBVNodeAllocator@Gu@physx@@PEAUBVHNode@23@@Z 000000018005800c     BVHStructureBuilder.obj
 0002:0000d01c       $unwind$?saveHeightField@physx@@YA_NAEBVHeightField@Gu@1@AEAVPxOutputStream@1@_N@Z 000000018005801c     HeightFieldCooking.obj
 0002:0000d02c       $chain$2$?saveHeightField@physx@@YA_NAEBVHeightField@Gu@1@AEAVPxOutputStream@1@_N@Z 000000018005802c     HeightFieldCooking.obj
 0002:0000d044       $chain$3$?saveHeightField@physx@@YA_NAEBVHeightField@Gu@1@AEAVPxOutputStream@1@_N@Z 0000000180058044     HeightFieldCooking.obj
 0002:0000d054       $chain$0$?allocate@?$ReflectionAllocator@I@shdfnd@physx@@QEAAPEAX_KPEBDH@Z 0000000180058054     RTreeCooking.obj
 0002:0000d068       $chain$1$?allocate@?$ReflectionAllocator@I@shdfnd@physx@@QEAAPEAX_KPEBDH@Z 0000000180058068     RTreeCooking.obj
 0002:0000d078       $unwind$?buildFromTriangles@RTreeCooker@physx@@SAXAEAURTree@Gu@2@PEBVPxVec3@2@IPEBGPEBIIAEAV?$Array@IV?$ReflectionAllocator@I@shdfnd@physx@@@shdfnd@2@PEAURemapCallback@12@MW4Enum@PxMeshCookingHint@2@@Z 0000000180058078     RTreeCooking.obj
 0002:0000d084       $chain$8$?buildFromTriangles@RTreeCooker@physx@@SAXAEAURTree@Gu@2@PEBVPxVec3@2@IPEBGPEBIIAEAV?$Array@IV?$ReflectionAllocator@I@shdfnd@physx@@@shdfnd@2@PEAURemapCallback@12@MW4Enum@PxMeshCookingHint@2@@Z 0000000180058084     RTreeCooking.obj
 0002:0000d0b8       $chain$9$?buildFromTriangles@RTreeCooker@physx@@SAXAEAURTree@Gu@2@PEBVPxVec3@2@IPEBGPEBIIAEAV?$Array@IV?$ReflectionAllocator@I@shdfnd@physx@@@shdfnd@2@PEAURemapCallback@12@MW4Enum@PxMeshCookingHint@2@@Z 00000001800580b8     RTreeCooking.obj
 0002:0000d0cc       $chain$10$?buildFromTriangles@RTreeCooker@physx@@SAXAEAURTree@Gu@2@PEBVPxVec3@2@IPEBGPEBIIAEAV?$Array@IV?$ReflectionAllocator@I@shdfnd@physx@@@shdfnd@2@PEAURemapCallback@12@MW4Enum@PxMeshCookingHint@2@@Z 00000001800580cc     RTreeCooking.obj
 0002:0000d0dc       $chain$11$?buildFromTriangles@RTreeCooker@physx@@SAXAEAURTree@Gu@2@PEBVPxVec3@2@IPEBGPEBIIAEAV?$Array@IV?$ReflectionAllocator@I@shdfnd@physx@@@shdfnd@2@PEAURemapCallback@12@MW4Enum@PxMeshCookingHint@2@@Z 00000001800580dc     RTreeCooking.obj
 0002:0000d0ec       $unwind$?buildFromBounds@physx@@YAXAEAURTree@Gu@1@PEBUPxBounds3V@1@IAEAV?$Array@IV?$ReflectionAllocator@I@shdfnd@physx@@@shdfnd@1@PEAURemapCallback@RTreeCooker@1@AEAT__m128@@4MW4Enum@PxMeshCookingHint@1@@Z 00000001800580ec     RTreeCooking.obj
 0002:0000d110       $chain$1$?allocate@?$Array@UPxBounds3V@physx@@V?$ReflectionAllocator@UPxBounds3V@physx@@@shdfnd@2@@shdfnd@physx@@IEAAPEAUPxBounds3V@3@I@Z 0000000180058110     RTreeCooking.obj
 0002:0000d128       $chain$3$?allocate@?$Array@UPxBounds3V@physx@@V?$ReflectionAllocator@UPxBounds3V@physx@@@shdfnd@2@@shdfnd@physx@@IEAAPEAUPxBounds3V@3@I@Z 0000000180058128     RTreeCooking.obj
 0002:0000d13c       $chain$4$?allocate@?$Array@UPxBounds3V@physx@@V?$ReflectionAllocator@UPxBounds3V@physx@@@shdfnd@2@@shdfnd@physx@@IEAAPEAUPxBounds3V@3@I@Z 000000018005813c     RTreeCooking.obj
 0002:0000d14c       $chain$0$?recreate@?$Array@UPxBounds3V@physx@@V?$ReflectionAllocator@UPxBounds3V@physx@@@shdfnd@2@@shdfnd@physx@@IEAAXI@Z 000000018005814c     RTreeCooking.obj
 0002:0000d160       $chain$1$?recreate@?$Array@UPxBounds3V@physx@@V?$ReflectionAllocator@UPxBounds3V@physx@@@shdfnd@2@@shdfnd@physx@@IEAAXI@Z 0000000180058160     RTreeCooking.obj
 0002:0000d170       $unwind$?growAndPushBack@?$Array@VHalfEdge@ConvexHull@physx@@V?$ReflectionAllocator@VHalfEdge@ConvexHull@physx@@@shdfnd@3@@shdfnd@physx@@IEAAAEAVHalfEdge@ConvexHull@3@AEBV453@@Z 0000000180058170     ConvexHullUtils.obj
 0002:0000d170       $unwind$?growAndPushBack@?$Array@VPxPlane@physx@@V?$ReflectionAllocator@VPxPlane@physx@@@shdfnd@2@@shdfnd@physx@@IEAAAEAVPxPlane@3@AEBV43@@Z 0000000180058170     ConvexHullUtils.obj
 0002:0000d170       $unwind$?growAndPushBack@?$Array@VPair@@V?$ReflectionAllocator@VPair@@@shdfnd@physx@@@shdfnd@physx@@IEAAAEAVPair@@AEBV4@@Z 0000000180058170     ConvexPolygonsBuilder.obj
 0002:0000d170       $unwind$?growAndPushBack@?$Array@PEAUQuickHullFace@local@@V?$ReflectionAllocator@PEAUQuickHullFace@local@@@shdfnd@physx@@@shdfnd@physx@@IEAAAEAPEAUQuickHullFace@local@@AEBQEAU45@@Z 0000000180058170     QuickHullConvexHullLib.obj
 0002:0000d170       $unwind$?growAndPushBack@?$Array@PEAUQuickHullHalfEdge@local@@V?$ReflectionAllocator@PEAUQuickHullHalfEdge@local@@@shdfnd@physx@@@shdfnd@physx@@IEAAAEAPEAUQuickHullHalfEdge@local@@AEBQEAU45@@Z 0000000180058170     QuickHullConvexHullLib.obj
 0002:0000d170       $unwind$?growAndPushBack@?$Array@PEAUQuickHullVertex@local@@V?$ReflectionAllocator@PEAUQuickHullVertex@local@@@shdfnd@physx@@@shdfnd@physx@@IEAAAEAPEAUQuickHullVertex@local@@AEBQEAU45@@Z 0000000180058170     QuickHullConvexHullLib.obj
 0002:0000d170       $unwind$?growAndPushBack@?$Array@UExpandPoint@local@@V?$ReflectionAllocator@UExpandPoint@local@@@shdfnd@physx@@@shdfnd@physx@@IEAAAEAUExpandPoint@local@@AEBU45@@Z 0000000180058170     QuickHullConvexHullLib.obj
 0002:0000d170       $unwind$?growAndPushBack@?$Array@IV?$ReflectionAllocator@I@shdfnd@physx@@@shdfnd@physx@@IEAAAEAIAEBI@Z 0000000180058170     RTreeCooking.obj
 0002:0000d170       $unwind$?growAndPushBack@?$Array@URTreeNodeNQ@physx@@V?$ReflectionAllocator@URTreeNodeNQ@physx@@@shdfnd@2@@shdfnd@physx@@IEAAAEAURTreeNodeNQ@3@AEBU43@@Z 0000000180058170     RTreeCooking.obj
 0002:0000d180       $chain$0$?growAndPushBack@?$Array@IV?$ReflectionAllocator@I@shdfnd@physx@@@shdfnd@physx@@IEAAAEAIAEBI@Z 0000000180058180     RTreeCooking.obj
 0002:0000d194       $chain$2$?growAndPushBack@?$Array@IV?$ReflectionAllocator@I@shdfnd@physx@@@shdfnd@physx@@IEAAAEAIAEBI@Z 0000000180058194     RTreeCooking.obj
 0002:0000d1a8       $chain$1$?growAndPushBack@?$Array@IV?$ReflectionAllocator@I@shdfnd@physx@@@shdfnd@physx@@IEAAAEAIAEBI@Z 00000001800581a8     RTreeCooking.obj
 0002:0000d1b8       $chain$0$?recreate@?$Array@IV?$ReflectionAllocator@I@shdfnd@physx@@@shdfnd@physx@@IEAAXI@Z 00000001800581b8     RTreeCooking.obj
 0002:0000d1cc       $chain$1$?recreate@?$Array@IV?$ReflectionAllocator@I@shdfnd@physx@@@shdfnd@physx@@IEAAXI@Z 00000001800581cc     RTreeCooking.obj
 0002:0000d1dc       $chain$1$?allocate@?$Array@VPxVec3@physx@@V?$ReflectionAllocator@VPxVec3@physx@@@shdfnd@2@@shdfnd@physx@@IEAAPEAVPxVec3@3@I@Z 00000001800581dc     RTreeCooking.obj
 0002:0000d1f4       $chain$3$?allocate@?$Array@VPxVec3@physx@@V?$ReflectionAllocator@VPxVec3@physx@@@shdfnd@2@@shdfnd@physx@@IEAAPEAVPxVec3@3@I@Z 00000001800581f4     RTreeCooking.obj
 0002:0000d208       $chain$4$?allocate@?$Array@VPxVec3@physx@@V?$ReflectionAllocator@VPxVec3@physx@@@shdfnd@2@@shdfnd@physx@@IEAAPEAVPxVec3@3@I@Z 0000000180058208     RTreeCooking.obj
 0002:0000d218       $unwind$?sort4@SubSortQuick@physx@@QEAAXPEIAIIAEAV?$Array@URTreeNodeNQ@physx@@V?$ReflectionAllocator@URTreeNodeNQ@physx@@@shdfnd@2@@shdfnd@2@AEAIAEAUPxBounds3V@2@I@Z 0000000180058218     RTreeCooking.obj
 0002:0000d230       $chain$1$?allocate@?$Array@URTreeNodeNQ@physx@@V?$ReflectionAllocator@URTreeNodeNQ@physx@@@shdfnd@2@@shdfnd@physx@@IEAAPEAURTreeNodeNQ@3@I@Z 0000000180058230     RTreeCooking.obj
 0002:0000d248       $chain$3$?allocate@?$Array@URTreeNodeNQ@physx@@V?$ReflectionAllocator@URTreeNodeNQ@physx@@@shdfnd@2@@shdfnd@physx@@IEAAPEAURTreeNodeNQ@3@I@Z 0000000180058248     RTreeCooking.obj
 0002:0000d25c       $chain$4$?allocate@?$Array@URTreeNodeNQ@physx@@V?$ReflectionAllocator@URTreeNodeNQ@physx@@@shdfnd@2@@shdfnd@physx@@IEAAPEAURTreeNodeNQ@3@I@Z 000000018005825c     RTreeCooking.obj
 0002:0000d26c       $chain$0$?growAndPushBack@?$Array@URTreeNodeNQ@physx@@V?$ReflectionAllocator@URTreeNodeNQ@physx@@@shdfnd@2@@shdfnd@physx@@IEAAAEAURTreeNodeNQ@3@AEBU43@@Z 000000018005826c     RTreeCooking.obj
 0002:0000d280       $chain$2$?growAndPushBack@?$Array@URTreeNodeNQ@physx@@V?$ReflectionAllocator@URTreeNodeNQ@physx@@@shdfnd@2@@shdfnd@physx@@IEAAAEAURTreeNodeNQ@3@AEBU43@@Z 0000000180058280     RTreeCooking.obj
 0002:0000d294       $chain$1$?growAndPushBack@?$Array@URTreeNodeNQ@physx@@V?$ReflectionAllocator@URTreeNodeNQ@physx@@@shdfnd@2@@shdfnd@physx@@IEAAAEAURTreeNodeNQ@3@AEBU43@@Z 0000000180058294     RTreeCooking.obj
 0002:0000d2a4       $unwind$??$quickSelectFirstK@UBoundsLTE@physx@@@quickSelect@physx@@YAXPEIAIIIIAEBUBoundsLTE@1@@Z 00000001800582a4     RTreeCooking.obj
 0002:0000d2bc       $unwind$?split@SubSortSAH@physx@@QEAAIPEAII@Z 00000001800582bc     RTreeCooking.obj
 0002:0000d2dc       $chain$5$?split@SubSortSAH@physx@@QEAAIPEAII@Z 00000001800582dc     RTreeCooking.obj
 0002:0000d2f4       $chain$6$?split@SubSortSAH@physx@@QEAAIPEAII@Z 00000001800582f4     RTreeCooking.obj
 0002:0000d2f4       $chain$8$?split@SubSortSAH@physx@@QEAAIPEAII@Z 00000001800582f4     RTreeCooking.obj
 0002:0000d304       $chain$7$?split@SubSortSAH@physx@@QEAAIPEAII@Z 0000000180058304     RTreeCooking.obj
 0002:0000d31c       $unwind$?sort4@SubSortSAH@physx@@QEAAXPEAIIAEAV?$Array@URTreeNodeNQ@physx@@V?$ReflectionAllocator@URTreeNodeNQ@physx@@@shdfnd@2@@shdfnd@2@AEAIIPEAURTreeNodeNQ@2@@Z 000000018005831c     RTreeCooking.obj
 0002:0000d360       $chain$0$?allocate@?$Array@UInterval@physx@@V?$InlineAllocator@$0CAAA@V?$ReflectionAllocator@UInterval@physx@@@shdfnd@physx@@@shdfnd@2@@shdfnd@physx@@IEAAPEAUInterval@3@I@Z 0000000180058360     RTreeCooking.obj
 0002:0000d374       $chain$3$?allocate@?$Array@UInterval@physx@@V?$InlineAllocator@$0CAAA@V?$ReflectionAllocator@UInterval@physx@@@shdfnd@physx@@@shdfnd@2@@shdfnd@physx@@IEAAPEAUInterval@3@I@Z 0000000180058374     RTreeCooking.obj
 0002:0000d38c       $chain$5$?allocate@?$Array@UInterval@physx@@V?$InlineAllocator@$0CAAA@V?$ReflectionAllocator@UInterval@physx@@@shdfnd@physx@@@shdfnd@2@@shdfnd@physx@@IEAAPEAUInterval@3@I@Z 000000018005838c     RTreeCooking.obj
 0002:0000d3a0       $chain$6$?allocate@?$Array@UInterval@physx@@V?$InlineAllocator@$0CAAA@V?$ReflectionAllocator@UInterval@physx@@@shdfnd@physx@@@shdfnd@2@@shdfnd@physx@@IEAAPEAUInterval@3@I@Z 00000001800583a0     RTreeCooking.obj
 0002:0000d3b0       $chain$1$?allocate@?$Array@URTreeNodeQ@Gu@physx@@V?$ReflectionAllocator@URTreeNodeQ@Gu@physx@@@shdfnd@3@@shdfnd@physx@@IEAAPEAURTreeNodeQ@Gu@3@I@Z 00000001800583b0     RTreeCooking.obj
 0002:0000d3c8       $chain$3$?allocate@?$Array@URTreeNodeQ@Gu@physx@@V?$ReflectionAllocator@URTreeNodeQ@Gu@physx@@@shdfnd@3@@shdfnd@physx@@IEAAPEAURTreeNodeQ@Gu@3@I@Z 00000001800583c8     RTreeCooking.obj
 0002:0000d3dc       $chain$4$?allocate@?$Array@URTreeNodeQ@Gu@physx@@V?$ReflectionAllocator@URTreeNodeQ@Gu@physx@@@shdfnd@3@@shdfnd@physx@@IEAAPEAURTreeNodeQ@Gu@3@I@Z 00000001800583dc     RTreeCooking.obj
 0002:0000d3ec       $chain$0$?recreate@?$Array@URTreeNodeQ@Gu@physx@@V?$ReflectionAllocator@URTreeNodeQ@Gu@physx@@@shdfnd@3@@shdfnd@physx@@IEAAXI@Z 00000001800583ec     RTreeCooking.obj
 0002:0000d400       $chain$1$?recreate@?$Array@URTreeNodeQ@Gu@physx@@V?$ReflectionAllocator@URTreeNodeQ@Gu@physx@@@shdfnd@3@@shdfnd@physx@@IEAAXI@Z 0000000180058400     RTreeCooking.obj
 0002:0000d410       $unwind$??$sort@IU?$Less@I@shdfnd@physx@@V?$ReflectionAllocator@I@23@@shdfnd@physx@@YAXPEAIIAEBU?$Less@I@01@AEBV?$ReflectionAllocator@I@01@I@Z 0000000180058410     RTreeCooking.obj
 0002:0000d430       $unwind$??$sort@IUSortBoundsPredicate@physx@@V?$ReflectionAllocator@I@shdfnd@2@@shdfnd@physx@@YAXPEAIIAEBUSortBoundsPredicate@1@AEBV?$ReflectionAllocator@I@01@I@Z 0000000180058430     RTreeCooking.obj
 0002:0000d44c       $unwind$??$smallSort@I$$CBUSortBoundsPredicate@physx@@@internal@shdfnd@physx@@YAXPEAIHHAEBUSortBoundsPredicate@2@@Z 000000018005844c     RTreeCooking.obj
 0002:0000d458       $chain$6$??$smallSort@I$$CBUSortBoundsPredicate@physx@@@internal@shdfnd@physx@@YAXPEAIHHAEBUSortBoundsPredicate@2@@Z 0000000180058458     RTreeCooking.obj
 0002:0000d484       $chain$7$??$smallSort@I$$CBUSortBoundsPredicate@physx@@@internal@shdfnd@physx@@YAXPEAIHHAEBUSortBoundsPredicate@2@@Z 0000000180058484     RTreeCooking.obj
 0002:0000d494       $unwind$?preallocate@QuickHull@local@@QEAAXI@Z 0000000180058494     QuickHullConvexHullLib.obj
 0002:0000d494       $unwind$?allocateVertices@MeshDataBase@Gu@physx@@QEAAPEAVPxVec3@3@I@Z 0000000180058494     TriangleMeshBuilder.obj
 0002:0000d494       $unwind$?getStateFromIterators@UWMap4@FH4@@SAHAEBViterator@12@H0H0@Z 0000000180058494     libvcruntime:frame.obj
 0002:0000d494       $unwind$??$doPchar@$01@DName@@AEAAXPEBDH@Z 0000000180058494     libvcruntime:undname.obj
 0002:0000d494       $unwind$??$doPchar@$0A@@DName@@AEAAXPEBDH@Z 0000000180058494     libvcruntime:undname.obj
 0002:0000d4a4       $unwind$??0QuickHullConvexHullLib@physx@@QEAA@AEBVPxConvexMeshDesc@1@AEBUPxCookingParams@1@@Z 00000001800584a4     QuickHullConvexHullLib.obj
 0002:0000d4a4       $unwind$?allocateTriangles@TriangleMeshData@Gu@physx@@QEAAPEAXI_NI@Z 00000001800584a4     TriangleMeshBuilder.obj
 0002:0000d4bc       $chain$0$??$?_UG@@YAPEAX_KV?$ReflectionAllocator@G@shdfnd@physx@@PEBDH@Z 00000001800584bc     TriangleMeshBuilder.obj
 0002:0000d4d0       $chain$1$??$?_UG@@YAPEAX_KV?$ReflectionAllocator@G@shdfnd@physx@@PEBDH@Z 00000001800584d0     TriangleMeshBuilder.obj
 0002:0000d4e0       $chain$0$??1RTreeTriangleData@Gu@physx@@UEAA@XZ 00000001800584e0     TriangleMeshBuilder.obj
 0002:0000d4f4       $chain$1$??1RTreeTriangleData@Gu@physx@@UEAA@XZ 00000001800584f4     TriangleMeshBuilder.obj
 0002:0000d504       $unwind$?cleanMesh@TriangleMeshBuilder@physx@@QEAA_N_NPEAW4Enum@PxTriangleMeshCookingResult@2@@Z 0000000180058504     TriangleMeshBuilder.obj
 0002:0000d51c       $chain$0$?cleanMesh@TriangleMeshBuilder@physx@@QEAA_N_NPEAW4Enum@PxTriangleMeshCookingResult@2@@Z 000000018005851c     TriangleMeshBuilder.obj
 0002:0000d530       $chain$1$?cleanMesh@TriangleMeshBuilder@physx@@QEAA_N_NPEAW4Enum@PxTriangleMeshCookingResult@2@@Z 0000000180058530     TriangleMeshBuilder.obj
 0002:0000d544       $chain$2$?cleanMesh@TriangleMeshBuilder@physx@@QEAA_N_NPEAW4Enum@PxTriangleMeshCookingResult@2@@Z 0000000180058544     TriangleMeshBuilder.obj
 0002:0000d558       $chain$3$?cleanMesh@TriangleMeshBuilder@physx@@QEAA_N_NPEAW4Enum@PxTriangleMeshCookingResult@2@@Z 0000000180058558     TriangleMeshBuilder.obj
 0002:0000d568       $chain$7$?cleanMesh@TriangleMeshBuilder@physx@@QEAA_N_NPEAW4Enum@PxTriangleMeshCookingResult@2@@Z 0000000180058568     TriangleMeshBuilder.obj
 0002:0000d584       $chain$4$?cleanMesh@TriangleMeshBuilder@physx@@QEAA_N_NPEAW4Enum@PxTriangleMeshCookingResult@2@@Z 0000000180058584     TriangleMeshBuilder.obj
 0002:0000d594       $chain$8$?cleanMesh@TriangleMeshBuilder@physx@@QEAA_N_NPEAW4Enum@PxTriangleMeshCookingResult@2@@Z 0000000180058594     TriangleMeshBuilder.obj
 0002:0000d5a4       $unwind$?remapTopology@TriangleMeshBuilder@physx@@QEAAXPEBI@Z 00000001800585a4     TriangleMeshBuilder.obj
 0002:0000d5b0       $chain$2$?remapTopology@TriangleMeshBuilder@physx@@QEAAXPEBI@Z 00000001800585b0     TriangleMeshBuilder.obj
 0002:0000d5cc       $chain$3$?remapTopology@TriangleMeshBuilder@physx@@QEAAXPEBI@Z 00000001800585cc     TriangleMeshBuilder.obj
 0002:0000d5e4       $chain$4$?remapTopology@TriangleMeshBuilder@physx@@QEAAXPEBI@Z 00000001800585e4     TriangleMeshBuilder.obj
 0002:0000d5f4       $unwind$?createSharedEdgeData@TriangleMeshBuilder@physx@@QEAAX_N0@Z 00000001800585f4     TriangleMeshBuilder.obj
 0002:0000d600       $chain$2$?createSharedEdgeData@TriangleMeshBuilder@physx@@QEAAX_N0@Z 0000000180058600     TriangleMeshBuilder.obj
 0002:0000d61c       $chain$4$?createSharedEdgeData@TriangleMeshBuilder@physx@@QEAAX_N0@Z 000000018005861c     TriangleMeshBuilder.obj
 0002:0000d634       $chain$5$?createSharedEdgeData@TriangleMeshBuilder@physx@@QEAAX_N0@Z 0000000180058634     TriangleMeshBuilder.obj
 0002:0000d644       $chain$6$?createSharedEdgeData@TriangleMeshBuilder@physx@@QEAAX_N0@Z 0000000180058644     TriangleMeshBuilder.obj
 0002:0000d654       $unwind$?createGRBMidPhaseAndData@TriangleMeshBuilder@physx@@QEAAXI@Z 0000000180058654     TriangleMeshBuilder.obj
 0002:0000d660       $chain$0$?createGRBMidPhaseAndData@TriangleMeshBuilder@physx@@QEAAXI@Z 0000000180058660     TriangleMeshBuilder.obj
 0002:0000d674       $chain$2$?createGRBMidPhaseAndData@TriangleMeshBuilder@physx@@QEAAXI@Z 0000000180058674     TriangleMeshBuilder.obj
 0002:0000d68c       $chain$5$?createGRBMidPhaseAndData@TriangleMeshBuilder@physx@@QEAAXI@Z 000000018005868c     TriangleMeshBuilder.obj
 0002:0000d6a8       $chain$6$?createGRBMidPhaseAndData@TriangleMeshBuilder@physx@@QEAAXI@Z 00000001800586a8     TriangleMeshBuilder.obj
 0002:0000d6c0       $chain$7$?createGRBMidPhaseAndData@TriangleMeshBuilder@physx@@QEAAXI@Z 00000001800586c0     TriangleMeshBuilder.obj
 0002:0000d6d4       $chain$8$?createGRBMidPhaseAndData@TriangleMeshBuilder@physx@@QEAAXI@Z 00000001800586d4     TriangleMeshBuilder.obj
 0002:0000d6e8       $chain$9$?createGRBMidPhaseAndData@TriangleMeshBuilder@physx@@QEAAXI@Z 00000001800586e8     TriangleMeshBuilder.obj
 0002:0000d6fc       $chain$10$?createGRBMidPhaseAndData@TriangleMeshBuilder@physx@@QEAAXI@Z 00000001800586fc     TriangleMeshBuilder.obj
 0002:0000d70c       $unwind$?loadFromDesc@TriangleMeshBuilder@physx@@QEAA_NAEBVPxTriangleMeshDesc@2@PEAW4Enum@PxTriangleMeshCookingResult@2@_N@Z 000000018005870c     TriangleMeshBuilder.obj
 0002:0000d71c       $chain$1$?loadFromDesc@TriangleMeshBuilder@physx@@QEAA_NAEBVPxTriangleMeshDesc@2@PEAW4Enum@PxTriangleMeshCookingResult@2@_N@Z 000000018005871c     TriangleMeshBuilder.obj
 0002:0000d734       $chain$2$?loadFromDesc@TriangleMeshBuilder@physx@@QEAA_NAEBVPxTriangleMeshDesc@2@PEAW4Enum@PxTriangleMeshCookingResult@2@_N@Z 0000000180058734     TriangleMeshBuilder.obj
 0002:0000d748       $chain$3$?loadFromDesc@TriangleMeshBuilder@physx@@QEAA_NAEBVPxTriangleMeshDesc@2@PEAW4Enum@PxTriangleMeshCookingResult@2@_N@Z 0000000180058748     TriangleMeshBuilder.obj
 0002:0000d758       $chain$5$?loadFromDesc@TriangleMeshBuilder@physx@@QEAA_NAEBVPxTriangleMeshDesc@2@PEAW4Enum@PxTriangleMeshCookingResult@2@_N@Z 0000000180058758     TriangleMeshBuilder.obj
 0002:0000d770       $chain$6$?loadFromDesc@TriangleMeshBuilder@physx@@QEAA_NAEBVPxTriangleMeshDesc@2@PEAW4Enum@PxTriangleMeshCookingResult@2@_N@Z 0000000180058770     TriangleMeshBuilder.obj
 0002:0000d780       $unwind$?save@TriangleMeshBuilder@physx@@QEBA_NAEAVPxOutputStream@2@_NAEBUPxCookingParams@2@@Z 0000000180058780     TriangleMeshBuilder.obj
 0002:0000d79c       $chain$3$?save@TriangleMeshBuilder@physx@@QEBA_NAEAVPxOutputStream@2@_NAEBUPxCookingParams@2@@Z 000000018005879c     TriangleMeshBuilder.obj
 0002:0000d7b0       $unwind$?checkMeshIndicesSize@TriangleMeshBuilder@physx@@QEAAXXZ 00000001800587b0     TriangleMeshBuilder.obj
 0002:0000d7bc       $chain$2$?checkMeshIndicesSize@TriangleMeshBuilder@physx@@QEAAXXZ 00000001800587bc     TriangleMeshBuilder.obj
 0002:0000d7d8       $chain$4$?checkMeshIndicesSize@TriangleMeshBuilder@physx@@QEAAXXZ 00000001800587d8     TriangleMeshBuilder.obj
 0002:0000d7f0       $chain$5$?checkMeshIndicesSize@TriangleMeshBuilder@physx@@QEAAXXZ 00000001800587f0     TriangleMeshBuilder.obj
 0002:0000d804       $chain$6$?checkMeshIndicesSize@TriangleMeshBuilder@physx@@QEAAXXZ 0000000180058804     TriangleMeshBuilder.obj
 0002:0000d814       $unwind$?copy@ConvexHullBuilder@physx@@QEAA_NAEAUConvexHullData@Gu@2@AEAI@Z 0000000180058814     ConvexHullBuilder.obj
 0002:0000d814       $unwind$?importMesh@TriangleMeshBuilder@physx@@IEAA_NAEBVPxTriangleMeshDesc@2@AEBUPxCookingParams@2@PEAW4Enum@PxTriangleMeshCookingResult@2@_N@Z 0000000180058814     TriangleMeshBuilder.obj
 0002:0000d830       $unwind$?createMidPhaseStructure@RTreeTriangleMeshBuilder@physx@@UEAAXXZ 0000000180058830     TriangleMeshBuilder.obj
 0002:0000d838       $unwind$?saveMidPhaseStructure@RTreeTriangleMeshBuilder@physx@@UEBAXAEAVPxOutputStream@2@_N@Z 0000000180058838     TriangleMeshBuilder.obj
 0002:0000d848       $chain$0$?saveMidPhaseStructure@RTreeTriangleMeshBuilder@physx@@UEBAXAEAVPxOutputStream@2@_N@Z 0000000180058848     TriangleMeshBuilder.obj
 0002:0000d85c       $chain$1$?saveMidPhaseStructure@RTreeTriangleMeshBuilder@physx@@UEBAXAEAVPxOutputStream@2@_N@Z 000000018005885c     TriangleMeshBuilder.obj
 0002:0000d86c       $unwind$?createMidPhaseStructure@BV4TriangleMeshBuilder@physx@@UEAAXXZ 000000018005886c     TriangleMeshBuilder.obj
 0002:0000d878       $chain$2$?createMidPhaseStructure@BV4TriangleMeshBuilder@physx@@UEAAXXZ 0000000180058878     TriangleMeshBuilder.obj
 0002:0000d894       $chain$3$?createMidPhaseStructure@BV4TriangleMeshBuilder@physx@@UEAAXXZ 0000000180058894     TriangleMeshBuilder.obj
 0002:0000d8a8       $chain$4$?createMidPhaseStructure@BV4TriangleMeshBuilder@physx@@UEAAXXZ 00000001800588a8     TriangleMeshBuilder.obj
 0002:0000d8b8       $chain$5$?createMidPhaseStructure@BV4TriangleMeshBuilder@physx@@UEAAXXZ 00000001800588b8     TriangleMeshBuilder.obj
 0002:0000d8cc       $unwind$?findAdjacent@physx@@YAIPEBVPxVec3@1@0PEBUuint3@1@IIIAEBVPxPlane@1@PEAUEdgeTriLookup@1@I@Z 00000001800588cc     TriangleMeshBuilder.obj
 0002:0000d8f0       $unwind$?buildAdjacencies@physx@@YAXPEAUuint4@1@PEAVPxVec3@1@PEBV31@PEBUuint3@1@I@Z 00000001800588f0     TriangleMeshBuilder.obj
 0002:0000d8fc       $chain$3$?buildAdjacencies@physx@@YAXPEAUuint4@1@PEAVPxVec3@1@PEBV31@PEBUuint3@1@I@Z 00000001800588fc     TriangleMeshBuilder.obj
 0002:0000d91c       $chain$7$?buildAdjacencies@physx@@YAXPEAUuint4@1@PEAVPxVec3@1@PEBV31@PEBUuint3@1@I@Z 000000018005891c     TriangleMeshBuilder.obj
 0002:0000d93c       $chain$12$?buildAdjacencies@physx@@YAXPEAUuint4@1@PEAVPxVec3@1@PEBV31@PEBUuint3@1@I@Z 000000018005893c     TriangleMeshBuilder.obj
 0002:0000d960       $chain$13$?buildAdjacencies@physx@@YAXPEAUuint4@1@PEAVPxVec3@1@PEBV31@PEBUuint3@1@I@Z 0000000180058960     TriangleMeshBuilder.obj
 0002:0000d970       $chain$14$?buildAdjacencies@physx@@YAXPEAUuint4@1@PEAVPxVec3@1@PEBV31@PEBUuint3@1@I@Z 0000000180058970     TriangleMeshBuilder.obj
 0002:0000d980       $chain$15$?buildAdjacencies@physx@@YAXPEAUuint4@1@PEAVPxVec3@1@PEBV31@PEBUuint3@1@I@Z 0000000180058980     TriangleMeshBuilder.obj
 0002:0000d990       $unwind$??$sort@UEdgeTriLookup@physx@@U?$Less@UEdgeTriLookup@physx@@@shdfnd@2@V?$ReflectionAllocator@UEdgeTriLookup@physx@@@42@@shdfnd@physx@@YAXPEAUEdgeTriLookup@1@IAEBU?$Less@UEdgeTriLookup@physx@@@01@AEBV?$ReflectionAllocator@UEdgeTriLookup@physx@@@01@I@Z 0000000180058990     TriangleMeshBuilder.obj
 0002:0000d9ac       $unwind$?precompute@BigConvexDataBuilder@physx@@QEAA_NI@Z 00000001800589ac     BigConvexDataBuilder.obj
 0002:0000d9c4       $chain$10$?precompute@BigConvexDataBuilder@physx@@QEAA_NI@Z 00000001800589c4     BigConvexDataBuilder.obj
 0002:0000da00       $chain$11$?precompute@BigConvexDataBuilder@physx@@QEAA_NI@Z 0000000180058a00     BigConvexDataBuilder.obj
 0002:0000da10       $unwind$?save@BigConvexDataBuilder@physx@@QEBA_NAEAVPxOutputStream@2@_N@Z 0000000180058a10     BigConvexDataBuilder.obj
 0002:0000da10       $unwind$?x_ismbbtype_l@@YAHPEAU__crt_locale_pointers@@IHH@Z 0000000180058a10     libucrt:ismbbyte.obj
 0002:0000da20       $unwind$?computeValencies@BigConvexDataBuilder@physx@@QEAA_NAEBVConvexHullBuilder@2@@Z 0000000180058a20     BigConvexDataBuilder.obj
 0002:0000da38       $unwind$?saveValencies@BigConvexDataBuilder@physx@@QEBA_NAEAVPxOutputStream@2@_N@Z 0000000180058a38     BigConvexDataBuilder.obj
 0002:0000da44       $chain$1$?saveValencies@BigConvexDataBuilder@physx@@QEBA_NAEAVPxOutputStream@2@_N@Z 0000000180058a44     BigConvexDataBuilder.obj
 0002:0000da5c       $chain$2$?saveValencies@BigConvexDataBuilder@physx@@QEBA_NAEAVPxOutputStream@2@_N@Z 0000000180058a5c     BigConvexDataBuilder.obj
 0002:0000da70       $chain$3$?saveValencies@BigConvexDataBuilder@physx@@QEBA_NAEAVPxOutputStream@2@_N@Z 0000000180058a70     BigConvexDataBuilder.obj
 0002:0000da80       $chain$4$?saveValencies@BigConvexDataBuilder@physx@@QEBA_NAEAVPxOutputStream@2@_N@Z 0000000180058a80     BigConvexDataBuilder.obj
 0002:0000da94       $unwind$?init@ConvexHullBuilder@physx@@QEAA_NIPEBVPxVec3@2@PEBIIIPEBUPxHullPolygon@2@_NPEAVConvexHullLib@2@@Z 0000000180058a94     ConvexHullBuilder.obj
 0002:0000daac       $chain$0$?init@ConvexHullBuilder@physx@@QEAA_NIPEBVPxVec3@2@PEBIIIPEBUPxHullPolygon@2@_NPEAVConvexHullLib@2@@Z 0000000180058aac     ConvexHullBuilder.obj
 0002:0000dac0       $chain$3$?init@ConvexHullBuilder@physx@@QEAA_NIPEBVPxVec3@2@PEBIIIPEBUPxHullPolygon@2@_NPEAVConvexHullLib@2@@Z 0000000180058ac0     ConvexHullBuilder.obj
 0002:0000dadc       $chain$4$?init@ConvexHullBuilder@physx@@QEAA_NIPEBVPxVec3@2@PEBIIIPEBUPxHullPolygon@2@_NPEAVConvexHullLib@2@@Z 0000000180058adc     ConvexHullBuilder.obj
 0002:0000daec       $chain$5$?init@ConvexHullBuilder@physx@@QEAA_NIPEBVPxVec3@2@PEBIIIPEBUPxHullPolygon@2@_NPEAVConvexHullLib@2@@Z 0000000180058aec     ConvexHullBuilder.obj
 0002:0000dafc       $unwind$?save@ConvexHullBuilder@physx@@QEBA_NAEAVPxOutputStream@2@_N@Z 0000000180058afc     ConvexHullBuilder.obj
 0002:0000db10       $chain$3$?save@ConvexHullBuilder@physx@@QEBA_NAEAVPxOutputStream@2@_N@Z 0000000180058b10     ConvexHullBuilder.obj
 0002:0000db2c       $chain$4$?save@ConvexHullBuilder@physx@@QEBA_NAEAVPxOutputStream@2@_N@Z 0000000180058b2c     ConvexHullBuilder.obj
 0002:0000db44       $chain$5$?save@ConvexHullBuilder@physx@@QEBA_NAEAVPxOutputStream@2@_N@Z 0000000180058b44     ConvexHullBuilder.obj
 0002:0000db58       $chain$6$?save@ConvexHullBuilder@physx@@QEBA_NAEAVPxOutputStream@2@_N@Z 0000000180058b58     ConvexHullBuilder.obj
 0002:0000db68       $unwind$?createEdgeList@ConvexHullBuilder@physx@@QEAA_N_NI@Z 0000000180058b68     ConvexHullBuilder.obj
 0002:0000db78       $chain$4$?createEdgeList@ConvexHullBuilder@physx@@QEAA_N_NI@Z 0000000180058b78     ConvexHullBuilder.obj
 0002:0000db9c       $chain$6$?createEdgeList@ConvexHullBuilder@physx@@QEAA_N_NI@Z 0000000180058b9c     ConvexHullBuilder.obj
 0002:0000dbc0       $unwind$?checkHullPolygons@ConvexHullBuilder@physx@@QEBA_NXZ 0000000180058bc0     ConvexHullBuilder.obj
 0002:0000dbcc       $chain$5$?checkHullPolygons@ConvexHullBuilder@physx@@QEBA_NXZ 0000000180058bcc     ConvexHullBuilder.obj
 0002:0000dbf4       $chain$14$?checkHullPolygons@ConvexHullBuilder@physx@@QEBA_NXZ 0000000180058bf4     ConvexHullBuilder.obj
 0002:0000dc28       $chain$15$?checkHullPolygons@ConvexHullBuilder@physx@@QEBA_NXZ 0000000180058c28     ConvexHullBuilder.obj
 0002:0000dc50       $chain$17$?checkHullPolygons@ConvexHullBuilder@physx@@QEBA_NXZ 0000000180058c50     ConvexHullBuilder.obj
 0002:0000dc90       $chain$18$?checkHullPolygons@ConvexHullBuilder@physx@@QEBA_NXZ 0000000180058c90     ConvexHullBuilder.obj
 0002:0000dca0       $unwind$?calculateVertexMapTable@ConvexHullBuilder@physx@@QEAA_NI_N@Z 0000000180058ca0     ConvexHullBuilder.obj
 0002:0000dcb8       $unwind$?computeGeomCenter@ConvexHullBuilder@physx@@IEBA_NAEAVPxVec3@2@IPEAUHullTriangleData@2@@Z 0000000180058cb8     ConvexHullBuilder.obj
 0002:0000dcc0       $chain$1$?computeGeomCenter@ConvexHullBuilder@physx@@IEBA_NAEAVPxVec3@2@IPEAUHullTriangleData@2@@Z 0000000180058cc0     ConvexHullBuilder.obj
 0002:0000dcd8       $chain$9$?computeGeomCenter@ConvexHullBuilder@physx@@IEBA_NAEAVPxVec3@2@IPEAUHullTriangleData@2@@Z 0000000180058cd8     ConvexHullBuilder.obj
 0002:0000dd08       $chain$10$?computeGeomCenter@ConvexHullBuilder@physx@@IEBA_NAEAVPxVec3@2@IPEAUHullTriangleData@2@@Z 0000000180058d08     ConvexHullBuilder.obj
 0002:0000dd18       $chain$11$?computeGeomCenter@ConvexHullBuilder@physx@@IEBA_NAEAVPxVec3@2@IPEAUHullTriangleData@2@@Z 0000000180058d18     ConvexHullBuilder.obj
 0002:0000dd28       $chain$0$??$?_UE@@YAPEAX_KV?$ReflectionAllocator@E@shdfnd@physx@@PEBDH@Z 0000000180058d28     ConvexHullBuilder.obj
 0002:0000dd3c       $chain$1$??$?_UE@@YAPEAX_KV?$ReflectionAllocator@E@shdfnd@physx@@PEBDH@Z 0000000180058d3c     ConvexHullBuilder.obj
 0002:0000dd4c       $unwind$?cleanupVertices@ConvexHullLib@physx@@IEAA_NIPEBVPxVec3@2@IAEAIPEAV32@AEAV32@3@Z 0000000180058d4c     ConvexHullLib.obj
 0002:0000dd64       $chain$3$?cleanupVertices@ConvexHullLib@physx@@IEAA_NIPEBVPxVec3@2@IAEAIPEAV32@AEAV32@3@Z 0000000180058d64     ConvexHullLib.obj
 0002:0000dd84       $chain$5$?cleanupVertices@ConvexHullLib@physx@@IEAA_NIPEBVPxVec3@2@IAEAIPEAV32@AEAV32@3@Z 0000000180058d84     ConvexHullLib.obj
 0002:0000dd9c       $chain$11$?cleanupVertices@ConvexHullLib@physx@@IEAA_NIPEBVPxVec3@2@IAEAIPEAV32@AEAV32@3@Z 0000000180058d9c     ConvexHullLib.obj
 0002:0000ddc4       $chain$12$?cleanupVertices@ConvexHullLib@physx@@IEAA_NIPEBVPxVec3@2@IAEAIPEAV32@AEAV32@3@Z 0000000180058dc4     ConvexHullLib.obj
 0002:0000ddd4       $chain$13$?cleanupVertices@ConvexHullLib@physx@@IEAA_NIPEBVPxVec3@2@IAEAIPEAV32@AEAV32@3@Z 0000000180058dd4     ConvexHullLib.obj
 0002:0000dde4       $chain$14$?cleanupVertices@ConvexHullLib@physx@@IEAA_NIPEBVPxVec3@2@IAEAIPEAV32@AEAV32@3@Z 0000000180058de4     ConvexHullLib.obj
 0002:0000ddf4       $unwind$?shiftAndcleanupVertices@ConvexHullLib@physx@@IEAA_NIPEBVPxVec3@2@IAEAIPEAV32@AEAV32@3@Z 0000000180058df4     ConvexHullLib.obj
 0002:0000de10       $chain$5$?shiftAndcleanupVertices@ConvexHullLib@physx@@IEAA_NIPEBVPxVec3@2@IAEAIPEAV32@AEAV32@3@Z 0000000180058e10     ConvexHullLib.obj
 0002:0000de38       $chain$7$?shiftAndcleanupVertices@ConvexHullLib@physx@@IEAA_NIPEBVPxVec3@2@IAEAIPEAV32@AEAV32@3@Z 0000000180058e38     ConvexHullLib.obj
 0002:0000de50       $chain$8$?shiftAndcleanupVertices@ConvexHullLib@physx@@IEAA_NIPEBVPxVec3@2@IAEAIPEAV32@AEAV32@3@Z 0000000180058e50     ConvexHullLib.obj
 0002:0000de60       $chain$9$?shiftAndcleanupVertices@ConvexHullLib@physx@@IEAA_NIPEBVPxVec3@2@IAEAIPEAV32@AEAV32@3@Z 0000000180058e60     ConvexHullLib.obj
 0002:0000de70       $unwind$?swapLargestFace@ConvexHullLib@physx@@IEAAXAEAVPxConvexMeshDesc@2@@Z 0000000180058e70     ConvexHullLib.obj
 0002:0000de80       $chain$1$?swapLargestFace@ConvexHullLib@physx@@IEAAXAEAVPxConvexMeshDesc@2@@Z 0000000180058e80     ConvexHullLib.obj
 0002:0000de98       $chain$2$?swapLargestFace@ConvexHullLib@physx@@IEAAXAEAVPxConvexMeshDesc@2@@Z 0000000180058e98     ConvexHullLib.obj
 0002:0000deac       $chain$3$?swapLargestFace@ConvexHullLib@physx@@IEAAXAEAVPxConvexMeshDesc@2@@Z 0000000180058eac     ConvexHullLib.obj
 0002:0000debc       $chain$4$?swapLargestFace@ConvexHullLib@physx@@IEAAXAEAVPxConvexMeshDesc@2@@Z 0000000180058ebc     ConvexHullLib.obj
 0002:0000decc       $unwind$?shiftConvexMeshDesc@ConvexHullLib@physx@@IEAAXAEAVPxConvexMeshDesc@2@@Z 0000000180058ecc     ConvexHullLib.obj
 0002:0000decc       $unwind$??$type_case_integer_parse_into_buffer@I$09@?$output_processor@DV?$string_output_adapter@D@__crt_stdio_output@@V?$format_validation_base@DV?$string_output_adapter@D@__crt_stdio_output@@@2@@__crt_stdio_output@@AEAAXI_N@Z 0000000180058ecc     libucrt:output.obj
 0002:0000decc       $unwind$??$type_case_integer_parse_into_buffer@I$09@?$output_processor@DV?$string_output_adapter@D@__crt_stdio_output@@V?$standard_base@DV?$string_output_adapter@D@__crt_stdio_output@@@2@@__crt_stdio_output@@AEAAXI_N@Z 0000000180058ecc     libucrt:output.obj
 0002:0000decc       $unwind$??$type_case_integer_parse_into_buffer@_K$09@?$output_processor@DV?$string_output_adapter@D@__crt_stdio_output@@V?$format_validation_base@DV?$string_output_adapter@D@__crt_stdio_output@@@2@@__crt_stdio_output@@AEAAX_K_N@Z 0000000180058ecc     libucrt:output.obj
 0002:0000decc       $unwind$??$type_case_integer_parse_into_buffer@_K$09@?$output_processor@DV?$string_output_adapter@D@__crt_stdio_output@@V?$standard_base@DV?$string_output_adapter@D@__crt_stdio_output@@@2@@__crt_stdio_output@@AEAAX_K_N@Z 0000000180058ecc     libucrt:output.obj
 0002:0000ded4       $unwind$?checkPointsAABBValidity@local@@YA_NIPEBVPxVec3@physx@@IMMAEAV23@1AEAIPEAV23@_N@Z 0000000180058ed4     ConvexHullLib.obj
 0002:0000def4       $unwind$??0PxQuat@physx@@QEAA@AEBVPxMat33@1@@Z 0000000180058ef4     ConvexHullUtils.obj
 0002:0000defc       $chain$1$??0PxQuat@physx@@QEAA@AEBVPxMat33@1@@Z 0000000180058efc     ConvexHullUtils.obj
 0002:0000df14       $chain$2$??0PxQuat@physx@@QEAA@AEBVPxMat33@1@@Z 0000000180058f14     ConvexHullUtils.obj
 0002:0000df24       $unwind$?getInverse@PxMat33@physx@@QEBA?BV12@XZ 0000000180058f24     ConvexHullUtils.obj
 0002:0000df48       $chain$2$?getInverse@PxMat33@physx@@QEBA?BV12@XZ 0000000180058f48     ConvexHullUtils.obj
 0002:0000df64       $chain$3$?getInverse@PxMat33@physx@@QEBA?BV12@XZ 0000000180058f64     ConvexHullUtils.obj
 0002:0000df74       $unwind$??0ConvexHull@physx@@QEAA@AEBVPxVec3@1@AEBVPxTransform@1@AEBV?$Array@VPxPlane@physx@@V?$ReflectionAllocator@VPxPlane@physx@@@shdfnd@2@@shdfnd@1@@Z 0000000180058f74     ConvexHullUtils.obj
 0002:0000dfb0       $unwind$?findCandidatePlane@ConvexHull@physx@@QEBAHMM@Z 0000000180058fb0     ConvexHullUtils.obj
 0002:0000dfc8       $chain$12$?findCandidatePlane@ConvexHull@physx@@QEBAHMM@Z 0000000180058fc8     ConvexHullUtils.obj
 0002:0000e00c       $chain$13$?findCandidatePlane@ConvexHull@physx@@QEBAHMM@Z 000000018005900c     ConvexHullUtils.obj
 0002:0000e01c       $unwind$?assertIntact@ConvexHull@physx@@QEBA_NM@Z 000000018005901c     ConvexHullUtils.obj
 0002:0000e054       $unwind$?maxNumVertsPerFace@ConvexHull@physx@@QEBAIXZ 0000000180059054     ConvexHullUtils.obj
 0002:0000e05c       $chain$3$?maxNumVertsPerFace@ConvexHull@physx@@QEBAIXZ 000000018005905c     ConvexHullUtils.obj
 0002:0000e07c       $chain$4$?maxNumVertsPerFace@ConvexHull@physx@@QEBAIXZ 000000018005907c     ConvexHullUtils.obj
 0002:0000e08c       $chain$1$?allocate@?$Array@VHalfEdge@ConvexHull@physx@@V?$ReflectionAllocator@VHalfEdge@ConvexHull@physx@@@shdfnd@3@@shdfnd@physx@@IEAAPEAVHalfEdge@ConvexHull@3@I@Z 000000018005908c     ConvexHullUtils.obj
 0002:0000e0a4       $chain$3$?allocate@?$Array@VHalfEdge@ConvexHull@physx@@V?$ReflectionAllocator@VHalfEdge@ConvexHull@physx@@@shdfnd@3@@shdfnd@physx@@IEAAPEAVHalfEdge@ConvexHull@3@I@Z 00000001800590a4     ConvexHullUtils.obj
 0002:0000e0b8       $chain$4$?allocate@?$Array@VHalfEdge@ConvexHull@physx@@V?$ReflectionAllocator@VHalfEdge@ConvexHull@physx@@@shdfnd@3@@shdfnd@physx@@IEAAPEAVHalfEdge@ConvexHull@3@I@Z 00000001800590b8     ConvexHullUtils.obj
 0002:0000e0c8       $chain$0$?growAndPushBack@?$Array@VHalfEdge@ConvexHull@physx@@V?$ReflectionAllocator@VHalfEdge@ConvexHull@physx@@@shdfnd@3@@shdfnd@physx@@IEAAAEAVHalfEdge@ConvexHull@3@AEBV453@@Z 00000001800590c8     ConvexHullUtils.obj
 0002:0000e0dc       $chain$2$?growAndPushBack@?$Array@VHalfEdge@ConvexHull@physx@@V?$ReflectionAllocator@VHalfEdge@ConvexHull@physx@@@shdfnd@3@@shdfnd@physx@@IEAAAEAVHalfEdge@ConvexHull@3@AEBV453@@Z 00000001800590dc     ConvexHullUtils.obj
 0002:0000e0f0       $chain$1$?growAndPushBack@?$Array@VHalfEdge@ConvexHull@physx@@V?$ReflectionAllocator@VHalfEdge@ConvexHull@physx@@@shdfnd@3@@shdfnd@physx@@IEAAAEAVHalfEdge@ConvexHull@3@AEBV453@@Z 00000001800590f0     ConvexHullUtils.obj
 0002:0000e100       $chain$0$?recreate@?$Array@VHalfEdge@ConvexHull@physx@@V?$ReflectionAllocator@VHalfEdge@ConvexHull@physx@@@shdfnd@3@@shdfnd@physx@@IEAAXI@Z 0000000180059100     ConvexHullUtils.obj
 0002:0000e114       $chain$1$?recreate@?$Array@VHalfEdge@ConvexHull@physx@@V?$ReflectionAllocator@VHalfEdge@ConvexHull@physx@@@shdfnd@3@@shdfnd@physx@@IEAAXI@Z 0000000180059114     ConvexHullUtils.obj
 0002:0000e124       $chain$1$?allocate@?$Array@VPxPlane@physx@@V?$ReflectionAllocator@VPxPlane@physx@@@shdfnd@2@@shdfnd@physx@@IEAAPEAVPxPlane@3@I@Z 0000000180059124     ConvexHullUtils.obj
 0002:0000e13c       $chain$3$?allocate@?$Array@VPxPlane@physx@@V?$ReflectionAllocator@VPxPlane@physx@@@shdfnd@2@@shdfnd@physx@@IEAAPEAVPxPlane@3@I@Z 000000018005913c     ConvexHullUtils.obj
 0002:0000e150       $chain$4$?allocate@?$Array@VPxPlane@physx@@V?$ReflectionAllocator@VPxPlane@physx@@@shdfnd@2@@shdfnd@physx@@IEAAPEAVPxPlane@3@I@Z 0000000180059150     ConvexHullUtils.obj
 0002:0000e160       $chain$0$?growAndPushBack@?$Array@VPxPlane@physx@@V?$ReflectionAllocator@VPxPlane@physx@@@shdfnd@2@@shdfnd@physx@@IEAAAEAVPxPlane@3@AEBV43@@Z 0000000180059160     ConvexHullUtils.obj
 0002:0000e174       $chain$2$?growAndPushBack@?$Array@VPxPlane@physx@@V?$ReflectionAllocator@VPxPlane@physx@@@shdfnd@2@@shdfnd@physx@@IEAAAEAVPxPlane@3@AEBV43@@Z 0000000180059174     ConvexHullUtils.obj
 0002:0000e188       $chain$1$?growAndPushBack@?$Array@VPxPlane@physx@@V?$ReflectionAllocator@VPxPlane@physx@@@shdfnd@2@@shdfnd@physx@@IEAAAEAVPxPlane@3@AEBV43@@Z 0000000180059188     ConvexHullUtils.obj
 0002:0000e198       $unwind$?convexHullCrop@physx@@YAPEAVConvexHull@1@AEBV21@AEBVPxPlane@1@M@Z 0000000180059198     ConvexHullUtils.obj
 0002:0000e1a8       $chain$6$?convexHullCrop@physx@@YAPEAVConvexHull@1@AEBV21@AEBVPxPlane@1@M@Z 00000001800591a8     ConvexHullUtils.obj
 0002:0000e1d4       $chain$7$?convexHullCrop@physx@@YAPEAVConvexHull@1@AEBV21@AEBVPxPlane@1@M@Z 00000001800591d4     ConvexHullUtils.obj
 0002:0000e1e8       $chain$10$?convexHullCrop@physx@@YAPEAVConvexHull@1@AEBV21@AEBVPxPlane@1@M@Z 00000001800591e8     ConvexHullUtils.obj
 0002:0000e1e8       $chain$8$?convexHullCrop@physx@@YAPEAVConvexHull@1@AEBV21@AEBVPxPlane@1@M@Z 00000001800591e8     ConvexHullUtils.obj
 0002:0000e1f8       $chain$9$?convexHullCrop@physx@@YAPEAVConvexHull@1@AEBV21@AEBVPxPlane@1@M@Z 00000001800591f8     ConvexHullUtils.obj
 0002:0000e20c       $chain$11$?convexHullCrop@physx@@YAPEAVConvexHull@1@AEBV21@AEBVPxPlane@1@M@Z 000000018005920c     ConvexHullUtils.obj
 0002:0000e21c       $unwind$?computeOBBFromConvex@physx@@YA_NAEBVPxConvexMeshDesc@1@AEAVPxVec3@1@AEAVPxTransform@1@@Z 000000018005921c     ConvexHullUtils.obj
 0002:0000e23c       $chain$5$?computeOBBFromConvex@physx@@YA_NAEBVPxConvexMeshDesc@1@AEAVPxVec3@1@AEAVPxTransform@1@@Z 000000018005923c     ConvexHullUtils.obj
 0002:0000e264       $chain$6$?computeOBBFromConvex@physx@@YA_NAEBVPxConvexMeshDesc@1@AEAVPxVec3@1@AEAVPxTransform@1@@Z 0000000180059264     ConvexHullUtils.obj
 0002:0000e274       $unwind$?rotate@Box@Gu@physx@@QEBA?AVPxVec3@3@AEBV43@@Z 0000000180059274     ConvexHullUtils.obj
 0002:0000e280       $unwind$?rotateInv@Box@Gu@physx@@QEBA?AVPxVec3@3@AEBV43@@Z 0000000180059280     ConvexHullUtils.obj
 0002:0000e28c       $unwind$?transform@Box@Gu@physx@@QEBA?AVPxVec3@3@AEBV43@@Z 000000018005928c     ConvexHullUtils.obj
 0002:0000e298       $unwind$?computeAABBExtent@Box@Gu@physx@@QEBA?AVPxVec3@3@XZ 0000000180059298     ConvexHullUtils.obj
 0002:0000e2a4       $unwind$?computeOBBSIMD@local@@YAXIPEBT__m128@@AEAT2@AEBT2@1@Z 00000001800592a4     ConvexHullUtils.obj
 0002:0000e2c8       $chain$1$?computeOBBSIMD@local@@YAXIPEBT__m128@@AEAT2@AEBT2@1@Z 00000001800592c8     ConvexHullUtils.obj
 0002:0000e2e0       $chain$2$?computeOBBSIMD@local@@YAXIPEBT__m128@@AEAT2@AEBT2@1@Z 00000001800592e0     ConvexHullUtils.obj
 0002:0000e2f0       $unwind$?build@ConvexMeshBuilder@physx@@QEAA_NAEBVPxConvexMeshDesc@2@I_NPEAVConvexHullLib@2@@Z 00000001800592f0     ConvexMeshBuilder.obj
 0002:0000e300       $chain$0$?build@ConvexMeshBuilder@physx@@QEAA_NAEBVPxConvexMeshDesc@2@I_NPEAVConvexHullLib@2@@Z 0000000180059300     ConvexMeshBuilder.obj
 0002:0000e314       $chain$2$?build@ConvexMeshBuilder@physx@@QEAA_NAEBVPxConvexMeshDesc@2@I_NPEAVConvexHullLib@2@@Z 0000000180059314     ConvexMeshBuilder.obj
 0002:0000e32c       $chain$3$?build@ConvexMeshBuilder@physx@@QEAA_NAEBVPxConvexMeshDesc@2@I_NPEAVConvexHullLib@2@@Z 000000018005932c     ConvexMeshBuilder.obj
 0002:0000e33c       $chain$4$?build@ConvexMeshBuilder@physx@@QEAA_NAEBVPxConvexMeshDesc@2@I_NPEAVConvexHullLib@2@@Z 000000018005933c     ConvexMeshBuilder.obj
 0002:0000e34c       $unwind$?save@ConvexMeshBuilder@physx@@QEBA_NAEAVPxOutputStream@2@_N@Z 000000018005934c     ConvexMeshBuilder.obj
 0002:0000e35c       $chain$0$?save@ConvexMeshBuilder@physx@@QEBA_NAEAVPxOutputStream@2@_N@Z 000000018005935c     ConvexMeshBuilder.obj
 0002:0000e370       $chain$1$?save@ConvexMeshBuilder@physx@@QEBA_NAEAVPxOutputStream@2@_N@Z 0000000180059370     ConvexMeshBuilder.obj
 0002:0000e380       $unwind$?loadConvexHull@ConvexMeshBuilder@physx@@QEAA_NAEBVPxConvexMeshDesc@2@PEAVConvexHullLib@2@@Z 0000000180059380     ConvexMeshBuilder.obj
 0002:0000e3a0       $unwind$?computeHullPolygons@ConvexMeshBuilder@physx@@QEAA_NAEBIPEBVPxVec3@2@0PEBIAEAVPxAllocatorCallback@2@AEAIAEAPEAV32@4AEAPEAI4AEAPEAUPxHullPolygon@2@@Z 00000001800593a0     ConvexMeshBuilder.obj
 0002:0000e3ac       $chain$4$?computeHullPolygons@ConvexMeshBuilder@physx@@QEAA_NAEBIPEBVPxVec3@2@0PEBIAEAVPxAllocatorCallback@2@AEAIAEAPEAV32@4AEAPEAI4AEAPEAUPxHullPolygon@2@@Z 00000001800593ac     ConvexMeshBuilder.obj
 0002:0000e3cc       $chain$5$?computeHullPolygons@ConvexMeshBuilder@physx@@QEAA_NAEBIPEBVPxVec3@2@0PEBIAEAVPxAllocatorCallback@2@AEAIAEAPEAV32@4AEAPEAI4AEAPEAUPxHullPolygon@2@@Z 00000001800593cc     ConvexMeshBuilder.obj
 0002:0000e3e4       $unwind$?computeMassInfo@ConvexMeshBuilder@physx@@QEAAX_N@Z 00000001800593e4     ConvexMeshBuilder.obj
 0002:0000e3f4       $chain$1$?computeMassInfo@ConvexMeshBuilder@physx@@QEAAX_N@Z 00000001800593f4     ConvexMeshBuilder.obj
 0002:0000e40c       $chain$2$?computeMassInfo@ConvexMeshBuilder@physx@@QEAAX_N@Z 000000018005940c     ConvexMeshBuilder.obj
 0002:0000e420       $chain$6$?computeMassInfo@ConvexMeshBuilder@physx@@QEAAX_N@Z 0000000180059420     ConvexMeshBuilder.obj
 0002:0000e440       $chain$7$?computeMassInfo@ConvexMeshBuilder@physx@@QEAAX_N@Z 0000000180059440     ConvexMeshBuilder.obj
 0002:0000e450       $chain$8$?computeMassInfo@ConvexMeshBuilder@physx@@QEAAX_N@Z 0000000180059450     ConvexMeshBuilder.obj
 0002:0000e460       $chain$9$?computeMassInfo@ConvexMeshBuilder@physx@@QEAAX_N@Z 0000000180059460     ConvexMeshBuilder.obj
 0002:0000e470       $unwind$?ComputeInternalExtent@@YAXAEAUConvexHullData@Gu@physx@@PEBUHullPolygonData@23@@Z 0000000180059470     ConvexMeshBuilder.obj
 0002:0000e484       $chain$4$?ComputeInternalExtent@@YAXAEAUConvexHullData@Gu@physx@@PEBUHullPolygonData@23@@Z 0000000180059484     ConvexMeshBuilder.obj
 0002:0000e4a8       $chain$5$?ComputeInternalExtent@@YAXAEAUConvexHullData@Gu@physx@@PEBUHullPolygonData@23@@Z 00000001800594a8     ConvexMeshBuilder.obj
 0002:0000e4bc       $chain$7$?ComputeInternalExtent@@YAXAEAUConvexHullData@Gu@physx@@PEBUHullPolygonData@23@@Z 00000001800594bc     ConvexMeshBuilder.obj
 0002:0000e4d0       $chain$6$?ComputeInternalExtent@@YAXAEAUConvexHullData@Gu@physx@@PEBUHullPolygonData@23@@Z 00000001800594d0     ConvexMeshBuilder.obj
 0002:0000e4e0       $chain$8$?ComputeInternalExtent@@YAXAEAUConvexHullData@Gu@physx@@PEBUHullPolygonData@23@@Z 00000001800594e0     ConvexMeshBuilder.obj
 0002:0000e4f0       $unwind$?computeHullPolygons@ConvexPolygonsBuilder@physx@@QEAA_NAEBIPEBVPxVec3@2@0PEBI@Z 00000001800594f0     ConvexPolygonsBuilder.obj
 0002:0000e514       $chain$0$?computeHullPolygons@ConvexPolygonsBuilder@physx@@QEAA_NAEBIPEBVPxVec3@2@0PEBI@Z 0000000180059514     ConvexPolygonsBuilder.obj
 0002:0000e528       $chain$8$?computeHullPolygons@ConvexPolygonsBuilder@physx@@QEAA_NAEBIPEBVPxVec3@2@0PEBI@Z 0000000180059528     ConvexPolygonsBuilder.obj
 0002:0000e558       $chain$9$?computeHullPolygons@ConvexPolygonsBuilder@physx@@QEAA_NAEBIPEBVPxVec3@2@0PEBI@Z 0000000180059558     ConvexPolygonsBuilder.obj
 0002:0000e588       $unwind$?createPolygonData@ConvexPolygonsBuilder@physx@@AEAA_NXZ 0000000180059588     ConvexPolygonsBuilder.obj
 0002:0000e598       $chain$7$?createPolygonData@ConvexPolygonsBuilder@physx@@AEAA_NXZ 0000000180059598     ConvexPolygonsBuilder.obj
 0002:0000e5c8       $chain$8$?createPolygonData@ConvexPolygonsBuilder@physx@@AEAA_NXZ 00000001800595c8     ConvexPolygonsBuilder.obj
 0002:0000e5dc       $chain$9$?createPolygonData@ConvexPolygonsBuilder@physx@@AEAA_NXZ 00000001800595dc     ConvexPolygonsBuilder.obj
 0002:0000e5ec       $chain$10$?createPolygonData@ConvexPolygonsBuilder@physx@@AEAA_NXZ 00000001800595ec     ConvexPolygonsBuilder.obj
 0002:0000e61c       $chain$14$?createPolygonData@ConvexPolygonsBuilder@physx@@AEAA_NXZ 000000018005961c     ConvexPolygonsBuilder.obj
 0002:0000e63c       $chain$15$?createPolygonData@ConvexPolygonsBuilder@physx@@AEAA_NXZ 000000018005963c     ConvexPolygonsBuilder.obj
 0002:0000e64c       $unwind$?createTrianglesFromPolygons@ConvexPolygonsBuilder@physx@@AEAA_NXZ 000000018005964c     ConvexPolygonsBuilder.obj
 0002:0000e674       $chain$3$?createTrianglesFromPolygons@ConvexPolygonsBuilder@physx@@AEAA_NXZ 0000000180059674     ConvexPolygonsBuilder.obj
 0002:0000e694       $chain$4$?createTrianglesFromPolygons@ConvexPolygonsBuilder@physx@@AEAA_NXZ 0000000180059694     ConvexPolygonsBuilder.obj
 0002:0000e6a4       $unwind$?findLineStrip@@YA_NAEAV?$Array@IV?$ReflectionAllocator@I@shdfnd@physx@@@shdfnd@physx@@AEBV?$Array@VPair@@V?$ReflectionAllocator@VPair@@@shdfnd@physx@@@23@@Z 00000001800596a4     ConvexPolygonsBuilder.obj
 0002:0000e6b0       $chain$3$?findLineStrip@@YA_NAEAV?$Array@IV?$ReflectionAllocator@I@shdfnd@physx@@@shdfnd@physx@@AEBV?$Array@VPair@@V?$ReflectionAllocator@VPair@@@shdfnd@physx@@@23@@Z 00000001800596b0     ConvexPolygonsBuilder.obj
 0002:0000e6d0       $chain$5$?findLineStrip@@YA_NAEAV?$Array@IV?$ReflectionAllocator@I@shdfnd@physx@@@shdfnd@physx@@AEBV?$Array@VPair@@V?$ReflectionAllocator@VPair@@@shdfnd@physx@@@23@@Z 00000001800596d0     ConvexPolygonsBuilder.obj
 0002:0000e6e8       $chain$6$?findLineStrip@@YA_NAEAV?$Array@IV?$ReflectionAllocator@I@shdfnd@physx@@@shdfnd@physx@@AEBV?$Array@VPair@@V?$ReflectionAllocator@VPair@@@shdfnd@physx@@@23@@Z 00000001800596e8     ConvexPolygonsBuilder.obj
 0002:0000e6f8       $chain$7$?findLineStrip@@YA_NAEAV?$Array@IV?$ReflectionAllocator@I@shdfnd@physx@@@shdfnd@physx@@AEBV?$Array@VPair@@V?$ReflectionAllocator@VPair@@@shdfnd@physx@@@23@@Z 00000001800596f8     ConvexPolygonsBuilder.obj
 0002:0000e720       $chain$1$?allocate@?$Array@VPair@@V?$ReflectionAllocator@VPair@@@shdfnd@physx@@@shdfnd@physx@@IEAAPEAVPair@@I@Z 0000000180059720     ConvexPolygonsBuilder.obj
 0002:0000e738       $chain$3$?allocate@?$Array@VPair@@V?$ReflectionAllocator@VPair@@@shdfnd@physx@@@shdfnd@physx@@IEAAPEAVPair@@I@Z 0000000180059738     ConvexPolygonsBuilder.obj
 0002:0000e74c       $chain$4$?allocate@?$Array@VPair@@V?$ReflectionAllocator@VPair@@@shdfnd@physx@@@shdfnd@physx@@IEAAPEAVPair@@I@Z 000000018005974c     ConvexPolygonsBuilder.obj
 0002:0000e75c       $chain$0$?growAndPushBack@?$Array@VPair@@V?$ReflectionAllocator@VPair@@@shdfnd@physx@@@shdfnd@physx@@IEAAAEAVPair@@AEBV4@@Z 000000018005975c     ConvexPolygonsBuilder.obj
 0002:0000e770       $chain$2$?growAndPushBack@?$Array@VPair@@V?$ReflectionAllocator@VPair@@@shdfnd@physx@@@shdfnd@physx@@IEAAAEAVPair@@AEBV4@@Z 0000000180059770     ConvexPolygonsBuilder.obj
 0002:0000e784       $chain$1$?growAndPushBack@?$Array@VPair@@V?$ReflectionAllocator@VPair@@@shdfnd@physx@@@shdfnd@physx@@IEAAAEAVPair@@AEBV4@@Z 0000000180059784     ConvexPolygonsBuilder.obj
 0002:0000e794       $unwind$?TestDuplicateTriangles@@YA_NAEAIPEAU?$TriangleT@I@Gu@physx@@_N@Z 0000000180059794     ConvexPolygonsBuilder.obj
 0002:0000e7b0       $unwind$?computeNewellPlane@@YA_NAEAVPxPlane@physx@@IPEBEPEBVPxVec3@2@@Z 00000001800597b0     ConvexPolygonsBuilder.obj
 0002:0000e7c0       $chain$9$?computeNewellPlane@@YA_NAEAVPxPlane@physx@@IPEBEPEBVPxVec3@2@@Z 00000001800597c0     ConvexPolygonsBuilder.obj
 0002:0000e7f8       $chain$14$?computeNewellPlane@@YA_NAEAVPxPlane@physx@@IPEBEPEBVPxVec3@2@@Z 00000001800597f8     ConvexPolygonsBuilder.obj
 0002:0000e81c       $chain$15$?computeNewellPlane@@YA_NAEAVPxPlane@physx@@IPEBEPEBVPxVec3@2@@Z 000000018005981c     ConvexPolygonsBuilder.obj
 0002:0000e82c       $chain$16$?computeNewellPlane@@YA_NAEAVPxPlane@physx@@IPEBEPEBVPxVec3@2@@Z 000000018005982c     ConvexPolygonsBuilder.obj
 0002:0000e854       $chain$17$?computeNewellPlane@@YA_NAEAVPxPlane@physx@@IPEBEPEBVPxVec3@2@@Z 0000000180059854     ConvexPolygonsBuilder.obj
 0002:0000e864       $unwind$?checkRedundantVertices@@YAXAEAIAEAV?$Array@IV?$ReflectionAllocator@I@shdfnd@physx@@@shdfnd@physx@@AEBVConvexPolygonsBuilder@3@11@Z 0000000180059864     ConvexPolygonsBuilder.obj
 0002:0000e880       $unwind$?extractHullPolygons@@YA_NAEAIAEAV?$Array@IV?$ReflectionAllocator@I@shdfnd@physx@@@shdfnd@physx@@AEBVConvexPolygonsBuilder@3@PEAV123@1@Z 0000000180059880     ConvexPolygonsBuilder.obj
 0002:0000e89c       $unwind$?FloodFill@Local@?7??extractHullPolygons@@YA_NAEAIAEAV?$Array@IV?$ReflectionAllocator@I@shdfnd@physx@@@shdfnd@physx@@AEBVConvexPolygonsBuilder@5@PEAV345@1@Z@SAX1PEBVAdjTriangle@5@IPEA_N@Z 000000018005989c     ConvexPolygonsBuilder.obj
 0002:0000e8ac       $chain$0$?FloodFill@Local@?7??extractHullPolygons@@YA_NAEAIAEAV?$Array@IV?$ReflectionAllocator@I@shdfnd@physx@@@shdfnd@physx@@AEBVConvexPolygonsBuilder@5@PEAV345@1@Z@SAX1PEBVAdjTriangle@5@IPEA_N@Z 00000001800598ac     ConvexPolygonsBuilder.obj
 0002:0000e8c0       $chain$1$?FloodFill@Local@?7??extractHullPolygons@@YA_NAEAIAEAV?$Array@IV?$ReflectionAllocator@I@shdfnd@physx@@@shdfnd@physx@@AEBVConvexPolygonsBuilder@5@PEAV345@1@Z@SAX1PEBVAdjTriangle@5@IPEA_N@Z 00000001800598c0     ConvexPolygonsBuilder.obj
 0002:0000e8d0       $unwind$?CheckFloodFillFace@Local@?7??extractHullPolygons@@YA_NAEAIAEAV?$Array@IV?$ReflectionAllocator@I@shdfnd@physx@@@shdfnd@physx@@AEBVConvexPolygonsBuilder@5@PEAV345@1@Z@SA_NIPEBVAdjTriangle@5@PEBI@Z 00000001800598d0     ConvexPolygonsBuilder.obj
 0002:0000e8e8       $chain$0$??$?_UUHullTriangleData@physx@@@@YAPEAX_KV?$ReflectionAllocator@UHullTriangleData@physx@@@shdfnd@physx@@PEBDH@Z 00000001800598e8     ConvexPolygonsBuilder.obj
 0002:0000e8fc       $chain$1$??$?_UUHullTriangleData@physx@@@@YAPEAX_KV?$ReflectionAllocator@UHullTriangleData@physx@@@shdfnd@physx@@PEBDH@Z 00000001800598fc     ConvexPolygonsBuilder.obj
 0002:0000e90c       $unwind$?createConvexHull@QuickHullConvexHullLib@physx@@UEAA?AW4Enum@PxConvexMeshCookingResult@2@XZ 000000018005990c     QuickHullConvexHullLib.obj
 0002:0000e924       $unwind$?createEdgeList@QuickHullConvexHullLib@physx@@UEAA_NIPEBEPEAPEAEPEAPEAG2@Z 0000000180059924     QuickHullConvexHullLib.obj
 0002:0000e944       $unwind$?expandHullOBB@QuickHullConvexHullLib@physx@@IEAA?AW4Enum@PxConvexMeshCookingResult@2@XZ 0000000180059944     QuickHullConvexHullLib.obj
 0002:0000e950       $chain$4$?expandHullOBB@QuickHullConvexHullLib@physx@@IEAA?AW4Enum@PxConvexMeshCookingResult@2@XZ 0000000180059950     QuickHullConvexHullLib.obj
 0002:0000e974       $chain$6$?expandHullOBB@QuickHullConvexHullLib@physx@@IEAA?AW4Enum@PxConvexMeshCookingResult@2@XZ 0000000180059974     QuickHullConvexHullLib.obj
 0002:0000e98c       $chain$7$?expandHullOBB@QuickHullConvexHullLib@physx@@IEAA?AW4Enum@PxConvexMeshCookingResult@2@XZ 000000018005998c     QuickHullConvexHullLib.obj
 0002:0000e99c       $chain$8$?expandHullOBB@QuickHullConvexHullLib@physx@@IEAA?AW4Enum@PxConvexMeshCookingResult@2@XZ 000000018005999c     QuickHullConvexHullLib.obj
 0002:0000e9ac       $unwind$?expandHull@QuickHullConvexHullLib@physx@@IEAA?AW4Enum@PxConvexMeshCookingResult@2@XZ 00000001800599ac     QuickHullConvexHullLib.obj
 0002:0000e9d0       $unwind$?cleanupForSimplex@QuickHullConvexHullLib@physx@@IEAA_NPEAVPxVec3@2@IPEAUQuickHullVertex@local@@1AEAM2@Z 00000001800599d0     QuickHullConvexHullLib.obj
 0002:0000ea14       $unwind$?fillConvexMeshDescFromQuickHull@QuickHullConvexHullLib@physx@@IEAAXAEAVPxConvexMeshDesc@2@@Z 0000000180059a14     QuickHullConvexHullLib.obj
 0002:0000ea2c       $unwind$?fillConvexMeshDescFromCroppedHull@QuickHullConvexHullLib@physx@@IEAAXAEAVPxConvexMeshDesc@2@@Z 0000000180059a2c     QuickHullConvexHullLib.obj
 0002:0000ea44       $chain$0$??_GConvexHull@physx@@QEAAPEAXI@Z 0000000180059a44     QuickHullConvexHullLib.obj
 0002:0000ea58       $chain$1$??_GConvexHull@physx@@QEAAPEAXI@Z 0000000180059a58     QuickHullConvexHullLib.obj
 0002:0000ea68       $unwind$?mergeAdjacentFace@QuickHullFace@local@@QEAA_NPEAUQuickHullHalfEdge@2@AEAV?$Array@PEAUQuickHullFace@local@@V?$ReflectionAllocator@PEAUQuickHullFace@local@@@shdfnd@physx@@@shdfnd@physx@@@Z 0000000180059a68     QuickHullConvexHullLib.obj
 0002:0000ea80       $chain$4$?mergeAdjacentFace@QuickHullFace@local@@QEAA_NPEAUQuickHullHalfEdge@2@AEAV?$Array@PEAUQuickHullFace@local@@V?$ReflectionAllocator@PEAUQuickHullFace@local@@@shdfnd@physx@@@shdfnd@physx@@@Z 0000000180059a80     QuickHullConvexHullLib.obj
 0002:0000eaa4       $chain$5$?mergeAdjacentFace@QuickHullFace@local@@QEAA_NPEAUQuickHullHalfEdge@2@AEAV?$Array@PEAUQuickHullFace@local@@V?$ReflectionAllocator@PEAUQuickHullFace@local@@@shdfnd@physx@@@shdfnd@physx@@@Z 0000000180059aa4     QuickHullConvexHullLib.obj
 0002:0000eaa4       $chain$7$?mergeAdjacentFace@QuickHullFace@local@@QEAA_NPEAUQuickHullHalfEdge@2@AEAV?$Array@PEAUQuickHullFace@local@@V?$ReflectionAllocator@PEAUQuickHullFace@local@@@shdfnd@physx@@@shdfnd@physx@@@Z 0000000180059aa4     QuickHullConvexHullLib.obj
 0002:0000eab4       $chain$6$?mergeAdjacentFace@QuickHullFace@local@@QEAA_NPEAUQuickHullHalfEdge@2@AEAV?$Array@PEAUQuickHullFace@local@@V?$ReflectionAllocator@PEAUQuickHullFace@local@@@shdfnd@physx@@@shdfnd@physx@@@Z 0000000180059ab4     QuickHullConvexHullLib.obj
 0002:0000ead8       $unwind$?connectHalfEdges@QuickHullFace@local@@AEAAPEAU12@PEAUQuickHullHalfEdge@2@0@Z 0000000180059ad8     QuickHullConvexHullLib.obj
 0002:0000eae0       $chain$5$?connectHalfEdges@QuickHullFace@local@@AEAAPEAU12@PEAUQuickHullHalfEdge@2@0@Z 0000000180059ae0     QuickHullConvexHullLib.obj
 0002:0000eb08       $chain$6$?connectHalfEdges@QuickHullFace@local@@AEAAPEAU12@PEAUQuickHullHalfEdge@2@0@Z 0000000180059b08     QuickHullConvexHullLib.obj
 0002:0000eb2c       $chain$7$?connectHalfEdges@QuickHullFace@local@@AEAAPEAU12@PEAUQuickHullHalfEdge@2@0@Z 0000000180059b2c     QuickHullConvexHullLib.obj
 0002:0000eb3c       $unwind$?parseInputVertices@QuickHull@local@@QEAAXPEBVPxVec3@physx@@I@Z 0000000180059b3c     QuickHullConvexHullLib.obj
 0002:0000eb48       $chain$1$?parseInputVertices@QuickHull@local@@QEAAXPEBVPxVec3@physx@@I@Z 0000000180059b48     QuickHullConvexHullLib.obj
 0002:0000eb60       $chain$2$?parseInputVertices@QuickHull@local@@QEAAXPEBVPxVec3@physx@@I@Z 0000000180059b60     QuickHullConvexHullLib.obj
 0002:0000eb70       $unwind$?buildHull@QuickHull@local@@QEAA?AW4Enum@QuickHullResult@2@XZ 0000000180059b70     QuickHullConvexHullLib.obj
 0002:0000eb84       $unwind$?computeMinMaxVerts@QuickHull@local@@IEAAXXZ 0000000180059b84     QuickHullConvexHullLib.obj
 0002:0000eb90       $unwind$?findSimplex@QuickHull@local@@IEAA_NXZ 0000000180059b90     QuickHullConvexHullLib.obj
 0002:0000eba4       $chain$0$?findSimplex@QuickHull@local@@IEAA_NXZ 0000000180059ba4     QuickHullConvexHullLib.obj
 0002:0000ebb8       $chain$9$?findSimplex@QuickHull@local@@IEAA_NXZ 0000000180059bb8     QuickHullConvexHullLib.obj
 0002:0000ebec       $chain$12$?findSimplex@QuickHull@local@@IEAA_NXZ 0000000180059bec     QuickHullConvexHullLib.obj
 0002:0000ec08       $chain$13$?findSimplex@QuickHull@local@@IEAA_NXZ 0000000180059c08     QuickHullConvexHullLib.obj
 0002:0000ec08       $chain$15$?findSimplex@QuickHull@local@@IEAA_NXZ 0000000180059c08     QuickHullConvexHullLib.obj
 0002:0000ec38       $chain$14$?findSimplex@QuickHull@local@@IEAA_NXZ 0000000180059c38     QuickHullConvexHullLib.obj
 0002:0000ec78       $chain$16$?findSimplex@QuickHull@local@@IEAA_NXZ 0000000180059c78     QuickHullConvexHullLib.obj
 0002:0000ec88       $unwind$?addSimplex@QuickHull@local@@IEAAXPEAUQuickHullVertex@2@_N@Z 0000000180059c88     QuickHullConvexHullLib.obj
 0002:0000eca0       $chain$0$?addSimplex@QuickHull@local@@IEAAXPEAUQuickHullVertex@2@_N@Z 0000000180059ca0     QuickHullConvexHullLib.obj
 0002:0000ecb4       $chain$2$?addSimplex@QuickHull@local@@IEAAXPEAUQuickHullVertex@2@_N@Z 0000000180059cb4     QuickHullConvexHullLib.obj
 0002:0000ecc8       $chain$1$?addSimplex@QuickHull@local@@IEAAXPEAUQuickHullVertex@2@_N@Z 0000000180059cc8     QuickHullConvexHullLib.obj
 0002:0000ecd8       $unwind$?nextPointToAdd@QuickHull@local@@IEAAPEAUQuickHullVertex@2@AEAPEAUQuickHullFace@2@@Z 0000000180059cd8     QuickHullConvexHullLib.obj
 0002:0000ecec       $unwind$?addPointToHull@QuickHull@local@@IEAA_NPEBUQuickHullVertex@2@AEAUQuickHullFace@2@AEA_N@Z 0000000180059cec     QuickHullConvexHullLib.obj
 0002:0000ed00       $chain$1$?addPointToHull@QuickHull@local@@IEAA_NPEBUQuickHullVertex@2@AEAUQuickHullFace@2@AEA_N@Z 0000000180059d00     QuickHullConvexHullLib.obj
 0002:0000ed18       $chain$2$?addPointToHull@QuickHull@local@@IEAA_NPEBUQuickHullVertex@2@AEAUQuickHullFace@2@AEA_N@Z 0000000180059d18     QuickHullConvexHullLib.obj
 0002:0000ed2c       $unwind$?createTriangle@QuickHull@local@@IEAAPEAUQuickHullFace@2@AEBUQuickHullVertex@2@00@Z 0000000180059d2c     QuickHullConvexHullLib.obj
 0002:0000ed58       $unwind$?calculateHorizon@QuickHull@local@@IEAAXAEBVPxVec3@physx@@PEAUQuickHullHalfEdge@2@AEAUQuickHullFace@2@AEAV?$Array@PEAUQuickHullHalfEdge@local@@V?$ReflectionAllocator@PEAUQuickHullHalfEdge@local@@@shdfnd@physx@@@shdfnd@4@AEAV?$Array@PEAUQuickHullFace@local@@V?$ReflectionAllocator@PEAUQuickHullFace@local@@@shdfnd@physx@@@84@@Z 0000000180059d58     QuickHullConvexHullLib.obj
 0002:0000ed70       $chain$1$?doAdjacentMerge@QuickHull@local@@IEAA_NAEAUQuickHullFace@2@_NAEA_N@Z 0000000180059d70     QuickHullConvexHullLib.obj
 0002:0000ed88       $chain$2$?doAdjacentMerge@QuickHull@local@@IEAA_NAEAUQuickHullFace@2@_NAEA_N@Z 0000000180059d88     QuickHullConvexHullLib.obj
 0002:0000ed9c       $chain$3$?doAdjacentMerge@QuickHull@local@@IEAA_NAEAUQuickHullFace@2@_NAEA_N@Z 0000000180059d9c     QuickHullConvexHullLib.obj
 0002:0000edb0       $chain$4$?doAdjacentMerge@QuickHull@local@@IEAA_NAEAUQuickHullFace@2@_NAEA_N@Z 0000000180059db0     QuickHullConvexHullLib.obj
 0002:0000edc0       $chain$5$?doAdjacentMerge@QuickHull@local@@IEAA_NAEAUQuickHullFace@2@_NAEA_N@Z 0000000180059dc0     QuickHullConvexHullLib.obj
 0002:0000edd0       $unwind$?resolveUnclaimedPoints@QuickHull@local@@IEAAXAEBV?$Array@PEAUQuickHullFace@local@@V?$ReflectionAllocator@PEAUQuickHullFace@local@@@shdfnd@physx@@@shdfnd@physx@@@Z 0000000180059dd0     QuickHullConvexHullLib.obj
 0002:0000ede0       $chain$1$?resolveUnclaimedPoints@QuickHull@local@@IEAAXAEBV?$Array@PEAUQuickHullFace@local@@V?$ReflectionAllocator@PEAUQuickHullFace@local@@@shdfnd@physx@@@shdfnd@physx@@@Z 0000000180059de0     QuickHullConvexHullLib.obj
 0002:0000edf8       $chain$2$?resolveUnclaimedPoints@QuickHull@local@@IEAAXAEBV?$Array@PEAUQuickHullFace@local@@V?$ReflectionAllocator@PEAUQuickHullFace@local@@@shdfnd@physx@@@shdfnd@physx@@@Z 0000000180059df8     QuickHullConvexHullLib.obj
 0002:0000ee08       $unwind$?postMergeHull@QuickHull@local@@IEAAXXZ 0000000180059e08     QuickHullConvexHullLib.obj
 0002:0000ee14       $chain$5$?postMergeHull@QuickHull@local@@IEAAXXZ 0000000180059e14     QuickHullConvexHullLib.obj
 0002:0000ee3c       $chain$6$?postMergeHull@QuickHull@local@@IEAAXXZ 0000000180059e3c     QuickHullConvexHullLib.obj
 0002:0000ee4c       $chain$7$?postMergeHull@QuickHull@local@@IEAAXXZ 0000000180059e4c     QuickHullConvexHullLib.obj
 0002:0000ee74       $unwind$?canMergeFaces@QuickHull@local@@IEAA_NAEBUQuickHullHalfEdge@2@@Z 0000000180059e74     QuickHullConvexHullLib.obj
 0002:0000eeb8       $unwind$?init@?$MemBlock@UQuickHullHalfEdge@local@@$0A@@local@@QEAAXI@Z 0000000180059eb8     QuickHullConvexHullLib.obj
 0002:0000eec4       $unwind$??1?$MemBlock@UQuickHullFace@local@@$00@local@@QEAA@XZ 0000000180059ec4     QuickHullConvexHullLib.obj
 0002:0000eec4       $unwind$??1?$MemBlock@UQuickHullHalfEdge@local@@$0A@@local@@QEAA@XZ 0000000180059ec4     QuickHullConvexHullLib.obj
 0002:0000eed0       $chain$0$??1?$MemBlock@UQuickHullFace@local@@$00@local@@QEAA@XZ 0000000180059ed0     QuickHullConvexHullLib.obj
 0002:0000eed0       $chain$0$??1?$MemBlock@UQuickHullHalfEdge@local@@$0A@@local@@QEAA@XZ 0000000180059ed0     QuickHullConvexHullLib.obj
 0002:0000eee4       $chain$1$??1?$MemBlock@UQuickHullFace@local@@$00@local@@QEAA@XZ 0000000180059ee4     QuickHullConvexHullLib.obj
 0002:0000eee4       $chain$1$??1?$MemBlock@UQuickHullHalfEdge@local@@$0A@@local@@QEAA@XZ 0000000180059ee4     QuickHullConvexHullLib.obj
 0002:0000eef8       $chain$2$??1?$MemBlock@UQuickHullFace@local@@$00@local@@QEAA@XZ 0000000180059ef8     QuickHullConvexHullLib.obj
 0002:0000eef8       $chain$2$??1?$MemBlock@UQuickHullHalfEdge@local@@$0A@@local@@QEAA@XZ 0000000180059ef8     QuickHullConvexHullLib.obj
 0002:0000ef08       $chain$3$??1?$MemBlock@UQuickHullFace@local@@$00@local@@QEAA@XZ 0000000180059f08     QuickHullConvexHullLib.obj
 0002:0000ef08       $chain$3$??1?$MemBlock@UQuickHullHalfEdge@local@@$0A@@local@@QEAA@XZ 0000000180059f08     QuickHullConvexHullLib.obj
 0002:0000ef18       $unwind$?getFreeItem@?$MemBlock@UQuickHullHalfEdge@local@@$0A@@local@@QEAAPEAUQuickHullHalfEdge@2@XZ 0000000180059f18     QuickHullConvexHullLib.obj
 0002:0000ef24       $chain$1$?allocate@?$Array@PEAUQuickHullHalfEdge@local@@V?$ReflectionAllocator@PEAUQuickHullHalfEdge@local@@@shdfnd@physx@@@shdfnd@physx@@IEAAPEAPEAUQuickHullHalfEdge@local@@I@Z 0000000180059f24     QuickHullConvexHullLib.obj
 0002:0000ef3c       $chain$3$?allocate@?$Array@PEAUQuickHullHalfEdge@local@@V?$ReflectionAllocator@PEAUQuickHullHalfEdge@local@@@shdfnd@physx@@@shdfnd@physx@@IEAAPEAPEAUQuickHullHalfEdge@local@@I@Z 0000000180059f3c     QuickHullConvexHullLib.obj
 0002:0000ef50       $chain$4$?allocate@?$Array@PEAUQuickHullHalfEdge@local@@V?$ReflectionAllocator@PEAUQuickHullHalfEdge@local@@@shdfnd@physx@@@shdfnd@physx@@IEAAPEAPEAUQuickHullHalfEdge@local@@I@Z 0000000180059f50     QuickHullConvexHullLib.obj
 0002:0000ef60       $chain$0$?growAndPushBack@?$Array@PEAUQuickHullHalfEdge@local@@V?$ReflectionAllocator@PEAUQuickHullHalfEdge@local@@@shdfnd@physx@@@shdfnd@physx@@IEAAAEAPEAUQuickHullHalfEdge@local@@AEBQEAU45@@Z 0000000180059f60     QuickHullConvexHullLib.obj
 0002:0000ef74       $chain$2$?growAndPushBack@?$Array@PEAUQuickHullHalfEdge@local@@V?$ReflectionAllocator@PEAUQuickHullHalfEdge@local@@@shdfnd@physx@@@shdfnd@physx@@IEAAAEAPEAUQuickHullHalfEdge@local@@AEBQEAU45@@Z 0000000180059f74     QuickHullConvexHullLib.obj
 0002:0000ef88       $chain$1$?growAndPushBack@?$Array@PEAUQuickHullHalfEdge@local@@V?$ReflectionAllocator@PEAUQuickHullHalfEdge@local@@@shdfnd@physx@@@shdfnd@physx@@IEAAAEAPEAUQuickHullHalfEdge@local@@AEBQEAU45@@Z 0000000180059f88     QuickHullConvexHullLib.obj
 0002:0000ef98       $chain$0$?recreate@?$Array@PEAUQuickHullHalfEdge@local@@V?$ReflectionAllocator@PEAUQuickHullHalfEdge@local@@@shdfnd@physx@@@shdfnd@physx@@IEAAXI@Z 0000000180059f98     QuickHullConvexHullLib.obj
 0002:0000efac       $chain$1$?recreate@?$Array@PEAUQuickHullHalfEdge@local@@V?$ReflectionAllocator@PEAUQuickHullHalfEdge@local@@@shdfnd@physx@@@shdfnd@physx@@IEAAXI@Z 0000000180059fac     QuickHullConvexHullLib.obj
 0002:0000efbc       $unwind$?init@?$MemBlock@UQuickHullFace@local@@$00@local@@QEAAXI@Z 0000000180059fbc     QuickHullConvexHullLib.obj
 0002:0000efcc       $unwind$?getFreeItem@?$MemBlock@UQuickHullFace@local@@$00@local@@QEAAPEAUQuickHullFace@2@XZ 0000000180059fcc     QuickHullConvexHullLib.obj
 0002:0000efdc       $chain$1$?allocate@?$Array@PEAUQuickHullFace@local@@V?$ReflectionAllocator@PEAUQuickHullFace@local@@@shdfnd@physx@@@shdfnd@physx@@IEAAPEAPEAUQuickHullFace@local@@I@Z 0000000180059fdc     QuickHullConvexHullLib.obj
 0002:0000eff4       $chain$3$?allocate@?$Array@PEAUQuickHullFace@local@@V?$ReflectionAllocator@PEAUQuickHullFace@local@@@shdfnd@physx@@@shdfnd@physx@@IEAAPEAPEAUQuickHullFace@local@@I@Z 0000000180059ff4     QuickHullConvexHullLib.obj
 0002:0000f008       $chain$4$?allocate@?$Array@PEAUQuickHullFace@local@@V?$ReflectionAllocator@PEAUQuickHullFace@local@@@shdfnd@physx@@@shdfnd@physx@@IEAAPEAPEAUQuickHullFace@local@@I@Z 000000018005a008     QuickHullConvexHullLib.obj
 0002:0000f018       $chain$0$?growAndPushBack@?$Array@PEAUQuickHullFace@local@@V?$ReflectionAllocator@PEAUQuickHullFace@local@@@shdfnd@physx@@@shdfnd@physx@@IEAAAEAPEAUQuickHullFace@local@@AEBQEAU45@@Z 000000018005a018     QuickHullConvexHullLib.obj
 0002:0000f02c       $chain$2$?growAndPushBack@?$Array@PEAUQuickHullFace@local@@V?$ReflectionAllocator@PEAUQuickHullFace@local@@@shdfnd@physx@@@shdfnd@physx@@IEAAAEAPEAUQuickHullFace@local@@AEBQEAU45@@Z 000000018005a02c     QuickHullConvexHullLib.obj
 0002:0000f040       $chain$1$?growAndPushBack@?$Array@PEAUQuickHullFace@local@@V?$ReflectionAllocator@PEAUQuickHullFace@local@@@shdfnd@physx@@@shdfnd@physx@@IEAAAEAPEAUQuickHullFace@local@@AEBQEAU45@@Z 000000018005a040     QuickHullConvexHullLib.obj
 0002:0000f050       $chain$0$?recreate@?$Array@PEAUQuickHullFace@local@@V?$ReflectionAllocator@PEAUQuickHullFace@local@@@shdfnd@physx@@@shdfnd@physx@@IEAAXI@Z 000000018005a050     QuickHullConvexHullLib.obj
 0002:0000f064       $chain$1$?recreate@?$Array@PEAUQuickHullFace@local@@V?$ReflectionAllocator@PEAUQuickHullFace@local@@@shdfnd@physx@@@shdfnd@physx@@IEAAXI@Z 000000018005a064     QuickHullConvexHullLib.obj
 0002:0000f074       $chain$1$?allocate@?$Array@PEAUQuickHullVertex@local@@V?$ReflectionAllocator@PEAUQuickHullVertex@local@@@shdfnd@physx@@@shdfnd@physx@@IEAAPEAPEAUQuickHullVertex@local@@I@Z 000000018005a074     QuickHullConvexHullLib.obj
 0002:0000f08c       $chain$3$?allocate@?$Array@PEAUQuickHullVertex@local@@V?$ReflectionAllocator@PEAUQuickHullVertex@local@@@shdfnd@physx@@@shdfnd@physx@@IEAAPEAPEAUQuickHullVertex@local@@I@Z 000000018005a08c     QuickHullConvexHullLib.obj
 0002:0000f0a0       $chain$4$?allocate@?$Array@PEAUQuickHullVertex@local@@V?$ReflectionAllocator@PEAUQuickHullVertex@local@@@shdfnd@physx@@@shdfnd@physx@@IEAAPEAPEAUQuickHullVertex@local@@I@Z 000000018005a0a0     QuickHullConvexHullLib.obj
 0002:0000f0b0       $chain$0$?growAndPushBack@?$Array@PEAUQuickHullVertex@local@@V?$ReflectionAllocator@PEAUQuickHullVertex@local@@@shdfnd@physx@@@shdfnd@physx@@IEAAAEAPEAUQuickHullVertex@local@@AEBQEAU45@@Z 000000018005a0b0     QuickHullConvexHullLib.obj
 0002:0000f0c4       $chain$2$?growAndPushBack@?$Array@PEAUQuickHullVertex@local@@V?$ReflectionAllocator@PEAUQuickHullVertex@local@@@shdfnd@physx@@@shdfnd@physx@@IEAAAEAPEAUQuickHullVertex@local@@AEBQEAU45@@Z 000000018005a0c4     QuickHullConvexHullLib.obj
 0002:0000f0d8       $chain$1$?growAndPushBack@?$Array@PEAUQuickHullVertex@local@@V?$ReflectionAllocator@PEAUQuickHullVertex@local@@@shdfnd@physx@@@shdfnd@physx@@IEAAAEAPEAUQuickHullVertex@local@@AEBQEAU45@@Z 000000018005a0d8     QuickHullConvexHullLib.obj
 0002:0000f0e8       $chain$0$?recreate@?$Array@PEAUQuickHullVertex@local@@V?$ReflectionAllocator@PEAUQuickHullVertex@local@@@shdfnd@physx@@@shdfnd@physx@@IEAAXI@Z 000000018005a0e8     QuickHullConvexHullLib.obj
 0002:0000f0fc       $chain$1$?recreate@?$Array@PEAUQuickHullVertex@local@@V?$ReflectionAllocator@PEAUQuickHullVertex@local@@@shdfnd@physx@@@shdfnd@physx@@IEAAXI@Z 000000018005a0fc     QuickHullConvexHullLib.obj
 0002:0000f10c       $chain$1$?allocate@?$Array@UExpandPoint@local@@V?$ReflectionAllocator@UExpandPoint@local@@@shdfnd@physx@@@shdfnd@physx@@IEAAPEAUExpandPoint@local@@I@Z 000000018005a10c     QuickHullConvexHullLib.obj
 0002:0000f124       $chain$3$?allocate@?$Array@UExpandPoint@local@@V?$ReflectionAllocator@UExpandPoint@local@@@shdfnd@physx@@@shdfnd@physx@@IEAAPEAUExpandPoint@local@@I@Z 000000018005a124     QuickHullConvexHullLib.obj
 0002:0000f138       $chain$4$?allocate@?$Array@UExpandPoint@local@@V?$ReflectionAllocator@UExpandPoint@local@@@shdfnd@physx@@@shdfnd@physx@@IEAAPEAUExpandPoint@local@@I@Z 000000018005a138     QuickHullConvexHullLib.obj
 0002:0000f148       $chain$0$?growAndPushBack@?$Array@UExpandPoint@local@@V?$ReflectionAllocator@UExpandPoint@local@@@shdfnd@physx@@@shdfnd@physx@@IEAAAEAUExpandPoint@local@@AEBU45@@Z 000000018005a148     QuickHullConvexHullLib.obj
 0002:0000f15c       $chain$2$?growAndPushBack@?$Array@UExpandPoint@local@@V?$ReflectionAllocator@UExpandPoint@local@@@shdfnd@physx@@@shdfnd@physx@@IEAAAEAUExpandPoint@local@@AEBU45@@Z 000000018005a15c     QuickHullConvexHullLib.obj
 0002:0000f170       $chain$1$?growAndPushBack@?$Array@UExpandPoint@local@@V?$ReflectionAllocator@UExpandPoint@local@@@shdfnd@physx@@@shdfnd@physx@@IEAAAEAUExpandPoint@local@@AEBU45@@Z 000000018005a170     QuickHullConvexHullLib.obj
 0002:0000f180       $unwind$?computeVolumeIntegralsEberly@physx@@YA_NAEBVPxConvexMeshDesc@1@MAEAUPxIntegrals@1@AEBVPxVec3@1@@Z 000000018005a180     VolumeIntegration.obj
 0002:0000f180       $unwind$?computeVolumeIntegralsEberlySIMD@physx@@YA_NAEBVPxConvexMeshDesc@1@MAEAUPxIntegrals@1@AEBVPxVec3@1@@Z 000000018005a180     VolumeIntegration.obj
 0002:0000f180       $unwind$_raise_exc         000000018005a180     libucrt:fpexcept.obj
 0002:0000f180       $unwind$_raise_excf        000000018005a180     libucrt:fpexcept.obj
 0002:0000f180       $unwind$__unDName          000000018005a180     libvcruntime:undname.obj
 0002:0000f188       $unwind$?computeVolumeIntegralsSIMD@VolumeIntegratorEberly@?A0x86a9014e@physx@@QEAA_NAEAUPxIntegrals@3@AEBVPxVec3@3@@Z 000000018005a188     VolumeIntegration.obj
 0002:0000f1c0       $chain$1$?computeVolumeIntegralsSIMD@VolumeIntegratorEberly@?A0x86a9014e@physx@@QEAA_NAEAUPxIntegrals@3@AEBVPxVec3@3@@Z 000000018005a1c0     VolumeIntegration.obj
 0002:0000f1d8       $chain$2$?computeVolumeIntegralsSIMD@VolumeIntegratorEberly@?A0x86a9014e@physx@@QEAA_NAEAUPxIntegrals@3@AEBVPxVec3@3@@Z 000000018005a1d8     VolumeIntegration.obj
 0002:0000f1e8       $unwind$?computeVolumeIntegrals@VolumeIntegratorEberly@?A0x86a9014e@physx@@QEAA_NAEAUPxIntegrals@3@AEBVPxVec3@3@@Z 000000018005a1e8     VolumeIntegration.obj
 0002:0000f220       $chain$3$?computeVolumeIntegrals@VolumeIntegratorEberly@?A0x86a9014e@physx@@QEAA_NAEAUPxIntegrals@3@AEBVPxVec3@3@@Z 000000018005a220     VolumeIntegration.obj
 0002:0000f240       $chain$4$?computeVolumeIntegrals@VolumeIntegratorEberly@?A0x86a9014e@physx@@QEAA_NAEAUPxIntegrals@3@AEBVPxVec3@3@@Z 000000018005a240     VolumeIntegration.obj
 0002:0000f250       $chain$1$?cookingDelayHook@@YAP6A_JXZIPEAUDelayLoadInfo@@@Z 000000018005a250     WindowsCookingDelayLoadHook.obj
 0002:0000f268       $chain$3$?cookingDelayHook@@YAP6A_JXZIPEAUDelayLoadInfo@@@Z 000000018005a268     WindowsCookingDelayLoadHook.obj
 0002:0000f268       $chain$5$?cookingDelayHook@@YAP6A_JXZIPEAUDelayLoadInfo@@@Z 000000018005a268     WindowsCookingDelayLoadHook.obj
 0002:0000f280       $chain$6$?cookingDelayHook@@YAP6A_JXZIPEAUDelayLoadInfo@@@Z 000000018005a280     WindowsCookingDelayLoadHook.obj
 0002:0000f290       xdata                      000000018005a290     PhysXCommon_64:PhysXCommon_64.dll
 0002:0000f298       xdata                      000000018005a298     PhysXFoundation_64:PhysXFoundation_64.dll
 0002:0000f2a0       $unwind$?DloadProtectSection@@YAXPEAX_KKPEAK@Z 000000018005a2a0     Delayimp:delayhlp.obj
 0002:0000f2b8       $unwind$__delayLoadHelper2 000000018005a2b8     Delayimp:delayhlp.obj
 0002:0000f2b8       $unwind$?getTemplateArgumentList@UnDecorator@@AEAA?AVDName@@XZ 000000018005a2b8     libvcruntime:undname.obj
 0002:0000f2d4       $unwind$??$GuardedWrite@V<lambda_1>@?1??__delayLoadHelper2@@YAP6A_JXZPEBUImgDelayDescr@@PEAP6A_JXZ@Z@@@YAXPEAX_KV<lambda_1>@?1??__delayLoadHelper2@@YAP6A_JXZPEBUImgDelayDescr@@PEAP6A_JXZ@Z@@Z 000000018005a2d4     Delayimp:delayhlp.obj
 0002:0000f2e8       $xdatasym                  000000018005a2e8     LIBCMT:chkstk.obj
 0002:0000f2f0       $unwind$?dllmain_crt_process_attach@@YAHQEAUHINSTANCE__@@QEAX@Z 000000018005a2f0     LIBCMT:dll_dllmain.obj
 0002:0000f32c       $unwind$_query_new_handler$fin$0 000000018005a32c     libucrt:new_handler.obj
 0002:0000f32c       $unwind$?fin$0@?0???$?RV<lambda_0ae27a3a962d80f24befdcbee591983d>@@AEAV<lambda_8d0ee55de4b1038c4002e0adecdf1839>@@V<lambda_dc504788e8f1664fe9b84e20bfb512f2>@@@?$__crt_seh_guarded_call@X@@QEAAX$$QEAV<lambda_0ae27a3a962d80f24befdcbee591983d>@@AEAV<lambda_8d0ee55de4b1038c4002e0adecdf1839>@@$$QEAV<lambda_dc504788e8f1664fe9b84e20bfb512f2>@@@Z@4HA 000000018005a32c     libucrt:per_thread_data.obj
 0002:0000f32c       $unwind$?fin$0@?0???$?RV<lambda_2d41944a1d46af3157314b8a01080d33>@@AEAV<lambda_8f455de75cd7d7f24b4096f044d8b9e6>@@V<lambda_aa500f224e6afead328df44964fe2772>@@@?$__crt_seh_guarded_call@X@@QEAAX$$QEAV<lambda_2d41944a1d46af3157314b8a01080d33>@@AEAV<lambda_8f455de75cd7d7f24b4096f044d8b9e6>@@$$QEAV<lambda_aa500f224e6afead328df44964fe2772>@@@Z@4HA 000000018005a32c     libucrt:per_thread_data.obj
 0002:0000f32c       $unwind$?fin$0@?0???$?RV<lambda_aa87e3671a710a21b5dc78c0bdf72e11>@@AEAV<lambda_92619d2358a28f41a33ba319515a20b9>@@V<lambda_6992ecaafeb10aed2b74cb1fae11a551>@@@?$__crt_seh_guarded_call@X@@QEAAX$$QEAV<lambda_aa87e3671a710a21b5dc78c0bdf72e11>@@AEAV<lambda_92619d2358a28f41a33ba319515a20b9>@@$$QEAV<lambda_6992ecaafeb10aed2b74cb1fae11a551>@@@Z@4HA 000000018005a32c     libucrt:per_thread_data.obj
 0002:0000f32c       $unwind$?fin$0@?0???$?RV<lambda_f2e299630e499de9f9a165e60fcd3db5>@@AEAV<lambda_2ae9d31cdba2644fcbeaf08da7c24588>@@V<lambda_40d01ff24d0e7b3814fdbdcee8eab3c7>@@@?$__crt_seh_guarded_call@X@@QEAAX$$QEAV<lambda_f2e299630e499de9f9a165e60fcd3db5>@@AEAV<lambda_2ae9d31cdba2644fcbeaf08da7c24588>@@$$QEAV<lambda_40d01ff24d0e7b3814fdbdcee8eab3c7>@@@Z@4HA 000000018005a32c     libucrt:per_thread_data.obj
 0002:0000f32c       $unwind$__acrt_update_thread_locale_data$fin$0 000000018005a32c     libucrt:locale_refcounting.obj
 0002:0000f32c       $unwind$?fin$0@?0???$?RV<lambda_410d79af7f07d98d83a3f525b3859a53>@@AEAV<lambda_3e16ef9562a7dcce91392c22ab16ea36>@@V<lambda_38119f0e861e05405d8a144b9b982f0a>@@@?$__crt_seh_guarded_call@X@@QEAAX$$QEAV<lambda_410d79af7f07d98d83a3f525b3859a53>@@AEAV<lambda_3e16ef9562a7dcce91392c22ab16ea36>@@$$QEAV<lambda_38119f0e861e05405d8a144b9b982f0a>@@@Z@4HA 000000018005a32c     libucrt:wsetlocale.obj
 0002:0000f32c       $unwind$?fin$0@?0???$?RV<lambda_ad8af0d99a0adf03d037d7dffe354bb5>@@AEAV<lambda_c9ba49e555ba839a7b07aa3fbecb7617>@@V<lambda_2f1ebd5d68526518146ae959c9e734c8>@@@?$__crt_seh_guarded_call@H@@QEAAH$$QEAV<lambda_ad8af0d99a0adf03d037d7dffe354bb5>@@AEAV<lambda_c9ba49e555ba839a7b07aa3fbecb7617>@@$$QEAV<lambda_2f1ebd5d68526518146ae959c9e734c8>@@@Z@4HA 000000018005a32c     libucrt:close.obj
 0002:0000f32c       $unwind$?fin$0@?0???$?RV<lambda_a37b2b86f63e897a80ea819b0eb08c01>@@AEAV<lambda_38ce7e780aa69e748d6df282ebc68efe>@@V<lambda_99fb1378e971ab6e7edea83e3a7a83a2>@@@?$__crt_seh_guarded_call@H@@QEAAH$$QEAV<lambda_a37b2b86f63e897a80ea819b0eb08c01>@@AEAV<lambda_38ce7e780aa69e748d6df282ebc68efe>@@$$QEAV<lambda_99fb1378e971ab6e7edea83e3a7a83a2>@@@Z@4HA 000000018005a32c     libucrt:commit.obj
 0002:0000f32c       $unwind$__acrt_initialize_lowio$fin$0 000000018005a32c     libucrt:ioinit.obj
 0002:0000f32c       $unwind$__acrt_lowio_ensure_fh_exists$fin$0 000000018005a32c     libucrt:osfinfo.obj
 0002:0000f32c       $unwind$?fin$0@?0???$?RV<lambda_efdfa57d1f175319df784efa44bb7b81>@@AEAV<lambda_5f0a4c1567f8adc6734073e5d1e1b35c>@@V<lambda_2e8a7d3640ea6ccb4c2413664c2db6fd>@@@?$__crt_seh_guarded_call@X@@QEAAX$$QEAV<lambda_efdfa57d1f175319df784efa44bb7b81>@@AEAV<lambda_5f0a4c1567f8adc6734073e5d1e1b35c>@@$$QEAV<lambda_2e8a7d3640ea6ccb4c2413664c2db6fd>@@@Z@4HA 000000018005a32c     libucrt:mbctype.obj
 0002:0000f32c       $unwind$?fin$0@?0??update_thread_multibyte_data_internal@@YAPEAU__crt_multibyte_data@@QEAU__acrt_ptd@@QEAPEAU1@@Z@4HA 000000018005a32c     libucrt:mbctype.obj
 0002:0000f32c       $unwind$?fin$0@?0???$?RV<lambda_450d765d439847d4c735a33c368b5fc0>@@AEAV<lambda_44731a7d0e6d81c3e6aa82d741081786>@@V<lambda_601a2a7da3b7a96e9554ac7215c4b07c>@@@?$__crt_seh_guarded_call@P6AXH@Z@@QEAAP6AXH@Z$$QEAV<lambda_450d765d439847d4c735a33c368b5fc0>@@AEAV<lambda_44731a7d0e6d81c3e6aa82d741081786>@@$$QEAV<lambda_601a2a7da3b7a96e9554ac7215c4b07c>@@@Z@4HA 000000018005a32c     libucrt:signal.obj
 0002:0000f32c       $unwind$raise$fin$0        000000018005a32c     libucrt:signal.obj
 0002:0000f32c       $unwind$?filt$0@?0???R<lambda_6e4b09c48022b2350581041d5f6b0c4c>@@QEBA@XZ@4HA 000000018005a32c     libucrt:exit.obj
 0002:0000f32c       $unwind$?fin$0@?0???$?RV<lambda_d80eeec6fff315bfe5c115232f3240e3>@@AEAV<lambda_6e4b09c48022b2350581041d5f6b0c4c>@@V<lambda_2358e3775559c9db80273638284d5e45>@@@?$__crt_seh_guarded_call@X@@QEAAX$$QEAV<lambda_d80eeec6fff315bfe5c115232f3240e3>@@AEAV<lambda_6e4b09c48022b2350581041d5f6b0c4c>@@$$QEAV<lambda_2358e3775559c9db80273638284d5e45>@@@Z@4HA 000000018005a32c     libucrt:exit.obj
 0002:0000f32c       $unwind$?fin$0@?0???$?RV<lambda_7777bce6b2f8c936911f934f8298dc43>@@AEAV<lambda_f03950bc5685219e0bcd2087efbe011e>@@V<lambda_3883c3dff614d5e0c5f61bb1ac94921c>@@@?$__crt_seh_guarded_call@H@@QEAAH$$QEAV<lambda_7777bce6b2f8c936911f934f8298dc43>@@AEAV<lambda_f03950bc5685219e0bcd2087efbe011e>@@$$QEAV<lambda_3883c3dff614d5e0c5f61bb1ac94921c>@@@Z@4HA 000000018005a32c     libucrt:onexit.obj
 0002:0000f32c       $unwind$_fcloseall$fin$0   000000018005a32c     libucrt:closeall.obj
 0002:0000f32c       $unwind$?fin$0@?0???$?RV<lambda_842d9ff0dc9ef11c61343bbaebe7f885>@@AEAV<lambda_c5860995281e5c4ce005b3de8f5874ee>@@V<lambda_d90129c13df834fdcbf8d2b88dafcf2d>@@@?$__crt_seh_guarded_call@X@@QEAAX$$QEAV<lambda_842d9ff0dc9ef11c61343bbaebe7f885>@@AEAV<lambda_c5860995281e5c4ce005b3de8f5874ee>@@$$QEAV<lambda_d90129c13df834fdcbf8d2b88dafcf2d>@@@Z@4HA 000000018005a32c     libucrt:fflush.obj
 0002:0000f32c       $unwind$?fin$0@?0???$?RV<lambda_886d6c58226a84441f68b9f2b8217b83>@@AEAV<lambda_ab61a845afdef5b7c387490eaf3616ee>@@V<lambda_f7f22ab5edc0698d5f6905b0d3f44752>@@@?$__crt_seh_guarded_call@X@@QEAAX$$QEAV<lambda_886d6c58226a84441f68b9f2b8217b83>@@AEAV<lambda_ab61a845afdef5b7c387490eaf3616ee>@@$$QEAV<lambda_f7f22ab5edc0698d5f6905b0d3f44752>@@@Z@4HA 000000018005a32c     libucrt:fflush.obj
 0002:0000f32c       $unwind$_ctrlfp$filt$0     000000018005a32c     libucrt:fpctrl.obj
 0002:0000f32c       $unwind$common_control87$filt$0 000000018005a32c     libucrt:ieee.obj
 0002:0000f32c       $unwind$?fin$0@?0??dllmain_crt_process_attach@@YAHQEAUHINSTANCE__@@QEAX@Z@4HA 000000018005a32c     LIBCMT:dll_dllmain.obj
 0002:0000f32c       $unwind$?fin$0@?0??dllmain_crt_process_detach@@YAH_N@Z@4HA 000000018005a32c     LIBCMT:dll_dllmain.obj
 0002:0000f32c       $unwind$?fin$1@?0??dllmain_crt_process_detach@@YAH_N@Z@4HA 000000018005a32c     LIBCMT:dll_dllmain.obj
 0002:0000f32c       $unwind$_IsNonwritableInCurrentImage$filt$0 000000018005a32c     LIBCMT:pesect.obj
 0002:0000f32c       $unwind$?filt$0@?0??CxxCallCatchBlock@__FrameHandler3@@SAPEAXPEAU_EXCEPTION_RECORD@@@Z@4HA 000000018005a32c     libvcruntime:frame.obj
 0002:0000f32c       $unwind$?filt$0@?0??CxxCallCatchBlock@__FrameHandler4@@SAPEAXPEAU_EXCEPTION_RECORD@@@Z@4HA 000000018005a32c     libvcruntime:frame.obj
 0002:0000f32c       $unwind$?filt$0@?0??FrameUnwindToState@__FrameHandler3@@SAXPEA_KPEAU_xDISPATCHER_CONTEXT@@PEBU_s_FuncInfo@@H@Z@4HA 000000018005a32c     libvcruntime:frame.obj
 0002:0000f32c       $unwind$?fin$1@?0??FrameUnwindToState@__FrameHandler3@@SAXPEA_KPEAU_xDISPATCHER_CONTEXT@@PEBU_s_FuncInfo@@H@Z@4HA 000000018005a32c     libvcruntime:frame.obj
 0002:0000f334       $unwind$?dllmain_crt_process_detach@@YAH_N@Z 000000018005a334     LIBCMT:dll_dllmain.obj
 0002:0000f388       $unwind$?dllmain_dispatch@@YAHQEAUHINSTANCE__@@KQEAX@Z 000000018005a388     LIBCMT:dll_dllmain.obj
 0002:0000f3b0       $unwind$_write_internal$fin$0 000000018005a3b0     libucrt:write.obj
 0002:0000f3b0       $unwind$?fin$0@?0??_fclose_internal@@YAHQEAU_iobuf@@AEAV__crt_cached_ptd_host@@@Z@4HA 000000018005a3b0     libucrt:fclose.obj
 0002:0000f3b0       $unwind$?filt$0@?0??dllmain_dispatch@@YAHQEAUHINSTANCE__@@KQEAX@Z@4HA 000000018005a3b0     LIBCMT:dll_dllmain.obj
 0002:0000f3b0       $unwind$?filt$0@?0??FrameUnwindToState@__FrameHandler4@@SAXPEA_KPEAU_xDISPATCHER_CONTEXT@@PEAUFuncInfo4@FH4@@H@Z@4HA 000000018005a3b0     libvcruntime:frame.obj
 0002:0000f3b0       $unwind$?fin$1@?0??FrameUnwindToState@__FrameHandler4@@SAXPEA_KPEAU_xDISPATCHER_CONTEXT@@PEAUFuncInfo4@FH4@@H@Z@4HA 000000018005a3b0     libvcruntime:frame.obj
 0002:0000f3b0       $unwind$__unDNameEx$fin$0  000000018005a3b0     libvcruntime:undname.obj
 0002:0000f3b8       $unwind$__isa_available_init 000000018005a3b8     LIBCMT:cpu_disp.obj
 0002:0000f3d0       $xdatasym                  000000018005a3d0     LIBCMT:svml_ssinf4_sse2.obj
 0002:0000f408       $xdatasym                  000000018005a408     LIBCMT:svml_ssinf4_sse4.obj
 0002:0000f43c       $unwind$__security_init_cookie 000000018005a43c     LIBCMT:gs_support.obj
 0002:0000f448       $unwind$__scrt_is_nonwritable_in_current_image 000000018005a448     LIBCMT:utility.obj
